
MDP_HelloWorld.elf:     file format elf32-littlearm

Sections:
Idx Name          Size      VMA       LMA       File off  Algn
  0 .isr_vector   00000188  08000000  08000000  00010000  2**0
                  CONTENTS, ALLOC, LOAD, READONLY, DATA
  1 .text         00009c78  08000190  08000190  00010190  2**4
                  CONTENTS, ALLOC, LOAD, READONLY, CODE
  2 .rodata       00001034  08009e08  08009e08  00019e08  2**3
                  CONTENTS, ALLOC, LOAD, READONLY, DATA
  3 .ARM.extab    00000000  0800ae3c  0800ae3c  0002020c  2**0
                  CONTENTS
  4 .ARM          00000008  0800ae3c  0800ae3c  0001ae3c  2**2
                  CONTENTS, ALLOC, LOAD, READONLY, DATA
  5 .preinit_array 00000000  0800ae44  0800ae44  0002020c  2**0
                  CONTENTS, ALLOC, LOAD, DATA
  6 .init_array   00000004  0800ae44  0800ae44  0001ae44  2**2
                  CONTENTS, ALLOC, LOAD, DATA
  7 .fini_array   00000004  0800ae48  0800ae48  0001ae48  2**2
                  CONTENTS, ALLOC, LOAD, DATA
  8 .data         0000020c  20000000  0800ae4c  00020000  2**3
                  CONTENTS, ALLOC, LOAD, DATA
  9 .ccmram       00000000  10000000  10000000  0002020c  2**0
                  CONTENTS
 10 .bss          00005168  20000210  20000210  00020210  2**3
                  ALLOC
 11 ._user_heap_stack 00000600  20005378  20005378  00020210  2**0
                  ALLOC
 12 .ARM.attributes 00000030  00000000  00000000  0002020c  2**0
                  CONTENTS, READONLY
 13 .comment      00000050  00000000  00000000  0002023c  2**0
                  CONTENTS, READONLY
 14 .debug_frame  000013f8  00000000  00000000  0002028c  2**2
                  CONTENTS, READONLY, DEBUGGING, OCTETS

Disassembly of section .text:

08000190 <__do_global_dtors_aux>:
 8000190:	b510      	push	{r4, lr}
 8000192:	4c05      	ldr	r4, [pc, #20]	; (80001a8 <__do_global_dtors_aux+0x18>)
 8000194:	7823      	ldrb	r3, [r4, #0]
 8000196:	b933      	cbnz	r3, 80001a6 <__do_global_dtors_aux+0x16>
 8000198:	4b04      	ldr	r3, [pc, #16]	; (80001ac <__do_global_dtors_aux+0x1c>)
 800019a:	b113      	cbz	r3, 80001a2 <__do_global_dtors_aux+0x12>
 800019c:	4804      	ldr	r0, [pc, #16]	; (80001b0 <__do_global_dtors_aux+0x20>)
 800019e:	f3af 8000 	nop.w
 80001a2:	2301      	movs	r3, #1
 80001a4:	7023      	strb	r3, [r4, #0]
 80001a6:	bd10      	pop	{r4, pc}
 80001a8:	20000210 	.word	0x20000210
 80001ac:	00000000 	.word	0x00000000
 80001b0:	08009df0 	.word	0x08009df0

080001b4 <frame_dummy>:
 80001b4:	b508      	push	{r3, lr}
 80001b6:	4b03      	ldr	r3, [pc, #12]	; (80001c4 <frame_dummy+0x10>)
 80001b8:	b11b      	cbz	r3, 80001c2 <frame_dummy+0xe>
 80001ba:	4903      	ldr	r1, [pc, #12]	; (80001c8 <frame_dummy+0x14>)
 80001bc:	4803      	ldr	r0, [pc, #12]	; (80001cc <frame_dummy+0x18>)
 80001be:	f3af 8000 	nop.w
 80001c2:	bd08      	pop	{r3, pc}
 80001c4:	00000000 	.word	0x00000000
 80001c8:	20000214 	.word	0x20000214
 80001cc:	08009df0 	.word	0x08009df0

080001d0 <strlen>:
 80001d0:	4603      	mov	r3, r0
 80001d2:	f813 2b01 	ldrb.w	r2, [r3], #1
 80001d6:	2a00      	cmp	r2, #0
 80001d8:	d1fb      	bne.n	80001d2 <strlen+0x2>
 80001da:	1a18      	subs	r0, r3, r0
 80001dc:	3801      	subs	r0, #1
 80001de:	4770      	bx	lr

080001e0 <memchr>:
 80001e0:	f001 01ff 	and.w	r1, r1, #255	; 0xff
 80001e4:	2a10      	cmp	r2, #16
 80001e6:	db2b      	blt.n	8000240 <memchr+0x60>
 80001e8:	f010 0f07 	tst.w	r0, #7
 80001ec:	d008      	beq.n	8000200 <memchr+0x20>
 80001ee:	f810 3b01 	ldrb.w	r3, [r0], #1
 80001f2:	3a01      	subs	r2, #1
 80001f4:	428b      	cmp	r3, r1
 80001f6:	d02d      	beq.n	8000254 <memchr+0x74>
 80001f8:	f010 0f07 	tst.w	r0, #7
 80001fc:	b342      	cbz	r2, 8000250 <memchr+0x70>
 80001fe:	d1f6      	bne.n	80001ee <memchr+0xe>
 8000200:	b4f0      	push	{r4, r5, r6, r7}
 8000202:	ea41 2101 	orr.w	r1, r1, r1, lsl #8
 8000206:	ea41 4101 	orr.w	r1, r1, r1, lsl #16
 800020a:	f022 0407 	bic.w	r4, r2, #7
 800020e:	f07f 0700 	mvns.w	r7, #0
 8000212:	2300      	movs	r3, #0
 8000214:	e8f0 5602 	ldrd	r5, r6, [r0], #8
 8000218:	3c08      	subs	r4, #8
 800021a:	ea85 0501 	eor.w	r5, r5, r1
 800021e:	ea86 0601 	eor.w	r6, r6, r1
 8000222:	fa85 f547 	uadd8	r5, r5, r7
 8000226:	faa3 f587 	sel	r5, r3, r7
 800022a:	fa86 f647 	uadd8	r6, r6, r7
 800022e:	faa5 f687 	sel	r6, r5, r7
 8000232:	b98e      	cbnz	r6, 8000258 <memchr+0x78>
 8000234:	d1ee      	bne.n	8000214 <memchr+0x34>
 8000236:	bcf0      	pop	{r4, r5, r6, r7}
 8000238:	f001 01ff 	and.w	r1, r1, #255	; 0xff
 800023c:	f002 0207 	and.w	r2, r2, #7
 8000240:	b132      	cbz	r2, 8000250 <memchr+0x70>
 8000242:	f810 3b01 	ldrb.w	r3, [r0], #1
 8000246:	3a01      	subs	r2, #1
 8000248:	ea83 0301 	eor.w	r3, r3, r1
 800024c:	b113      	cbz	r3, 8000254 <memchr+0x74>
 800024e:	d1f8      	bne.n	8000242 <memchr+0x62>
 8000250:	2000      	movs	r0, #0
 8000252:	4770      	bx	lr
 8000254:	3801      	subs	r0, #1
 8000256:	4770      	bx	lr
 8000258:	2d00      	cmp	r5, #0
 800025a:	bf06      	itte	eq
 800025c:	4635      	moveq	r5, r6
 800025e:	3803      	subeq	r0, #3
 8000260:	3807      	subne	r0, #7
 8000262:	f015 0f01 	tst.w	r5, #1
 8000266:	d107      	bne.n	8000278 <memchr+0x98>
 8000268:	3001      	adds	r0, #1
 800026a:	f415 7f80 	tst.w	r5, #256	; 0x100
 800026e:	bf02      	ittt	eq
 8000270:	3001      	addeq	r0, #1
 8000272:	f415 3fc0 	tsteq.w	r5, #98304	; 0x18000
 8000276:	3001      	addeq	r0, #1
 8000278:	bcf0      	pop	{r4, r5, r6, r7}
 800027a:	3801      	subs	r0, #1
 800027c:	4770      	bx	lr
 800027e:	bf00      	nop

08000280 <__aeabi_drsub>:
 8000280:	f081 4100 	eor.w	r1, r1, #2147483648	; 0x80000000
 8000284:	e002      	b.n	800028c <__adddf3>
 8000286:	bf00      	nop

08000288 <__aeabi_dsub>:
 8000288:	f083 4300 	eor.w	r3, r3, #2147483648	; 0x80000000

0800028c <__adddf3>:
 800028c:	b530      	push	{r4, r5, lr}
 800028e:	ea4f 0441 	mov.w	r4, r1, lsl #1
 8000292:	ea4f 0543 	mov.w	r5, r3, lsl #1
 8000296:	ea94 0f05 	teq	r4, r5
 800029a:	bf08      	it	eq
 800029c:	ea90 0f02 	teqeq	r0, r2
 80002a0:	bf1f      	itttt	ne
 80002a2:	ea54 0c00 	orrsne.w	ip, r4, r0
 80002a6:	ea55 0c02 	orrsne.w	ip, r5, r2
 80002aa:	ea7f 5c64 	mvnsne.w	ip, r4, asr #21
 80002ae:	ea7f 5c65 	mvnsne.w	ip, r5, asr #21
 80002b2:	f000 80e2 	beq.w	800047a <__adddf3+0x1ee>
 80002b6:	ea4f 5454 	mov.w	r4, r4, lsr #21
 80002ba:	ebd4 5555 	rsbs	r5, r4, r5, lsr #21
 80002be:	bfb8      	it	lt
 80002c0:	426d      	neglt	r5, r5
 80002c2:	dd0c      	ble.n	80002de <__adddf3+0x52>
 80002c4:	442c      	add	r4, r5
 80002c6:	ea80 0202 	eor.w	r2, r0, r2
 80002ca:	ea81 0303 	eor.w	r3, r1, r3
 80002ce:	ea82 0000 	eor.w	r0, r2, r0
 80002d2:	ea83 0101 	eor.w	r1, r3, r1
 80002d6:	ea80 0202 	eor.w	r2, r0, r2
 80002da:	ea81 0303 	eor.w	r3, r1, r3
 80002de:	2d36      	cmp	r5, #54	; 0x36
 80002e0:	bf88      	it	hi
 80002e2:	bd30      	pophi	{r4, r5, pc}
 80002e4:	f011 4f00 	tst.w	r1, #2147483648	; 0x80000000
 80002e8:	ea4f 3101 	mov.w	r1, r1, lsl #12
 80002ec:	f44f 1c80 	mov.w	ip, #1048576	; 0x100000
 80002f0:	ea4c 3111 	orr.w	r1, ip, r1, lsr #12
 80002f4:	d002      	beq.n	80002fc <__adddf3+0x70>
 80002f6:	4240      	negs	r0, r0
 80002f8:	eb61 0141 	sbc.w	r1, r1, r1, lsl #1
 80002fc:	f013 4f00 	tst.w	r3, #2147483648	; 0x80000000
 8000300:	ea4f 3303 	mov.w	r3, r3, lsl #12
 8000304:	ea4c 3313 	orr.w	r3, ip, r3, lsr #12
 8000308:	d002      	beq.n	8000310 <__adddf3+0x84>
 800030a:	4252      	negs	r2, r2
 800030c:	eb63 0343 	sbc.w	r3, r3, r3, lsl #1
 8000310:	ea94 0f05 	teq	r4, r5
 8000314:	f000 80a7 	beq.w	8000466 <__adddf3+0x1da>
 8000318:	f1a4 0401 	sub.w	r4, r4, #1
 800031c:	f1d5 0e20 	rsbs	lr, r5, #32
 8000320:	db0d      	blt.n	800033e <__adddf3+0xb2>
 8000322:	fa02 fc0e 	lsl.w	ip, r2, lr
 8000326:	fa22 f205 	lsr.w	r2, r2, r5
 800032a:	1880      	adds	r0, r0, r2
 800032c:	f141 0100 	adc.w	r1, r1, #0
 8000330:	fa03 f20e 	lsl.w	r2, r3, lr
 8000334:	1880      	adds	r0, r0, r2
 8000336:	fa43 f305 	asr.w	r3, r3, r5
 800033a:	4159      	adcs	r1, r3
 800033c:	e00e      	b.n	800035c <__adddf3+0xd0>
 800033e:	f1a5 0520 	sub.w	r5, r5, #32
 8000342:	f10e 0e20 	add.w	lr, lr, #32
 8000346:	2a01      	cmp	r2, #1
 8000348:	fa03 fc0e 	lsl.w	ip, r3, lr
 800034c:	bf28      	it	cs
 800034e:	f04c 0c02 	orrcs.w	ip, ip, #2
 8000352:	fa43 f305 	asr.w	r3, r3, r5
 8000356:	18c0      	adds	r0, r0, r3
 8000358:	eb51 71e3 	adcs.w	r1, r1, r3, asr #31
 800035c:	f001 4500 	and.w	r5, r1, #2147483648	; 0x80000000
 8000360:	d507      	bpl.n	8000372 <__adddf3+0xe6>
 8000362:	f04f 0e00 	mov.w	lr, #0
 8000366:	f1dc 0c00 	rsbs	ip, ip, #0
 800036a:	eb7e 0000 	sbcs.w	r0, lr, r0
 800036e:	eb6e 0101 	sbc.w	r1, lr, r1
 8000372:	f5b1 1f80 	cmp.w	r1, #1048576	; 0x100000
 8000376:	d31b      	bcc.n	80003b0 <__adddf3+0x124>
 8000378:	f5b1 1f00 	cmp.w	r1, #2097152	; 0x200000
 800037c:	d30c      	bcc.n	8000398 <__adddf3+0x10c>
 800037e:	0849      	lsrs	r1, r1, #1
 8000380:	ea5f 0030 	movs.w	r0, r0, rrx
 8000384:	ea4f 0c3c 	mov.w	ip, ip, rrx
 8000388:	f104 0401 	add.w	r4, r4, #1
 800038c:	ea4f 5244 	mov.w	r2, r4, lsl #21
 8000390:	f512 0f80 	cmn.w	r2, #4194304	; 0x400000
 8000394:	f080 809a 	bcs.w	80004cc <__adddf3+0x240>
 8000398:	f1bc 4f00 	cmp.w	ip, #2147483648	; 0x80000000
 800039c:	bf08      	it	eq
 800039e:	ea5f 0c50 	movseq.w	ip, r0, lsr #1
 80003a2:	f150 0000 	adcs.w	r0, r0, #0
 80003a6:	eb41 5104 	adc.w	r1, r1, r4, lsl #20
 80003aa:	ea41 0105 	orr.w	r1, r1, r5
 80003ae:	bd30      	pop	{r4, r5, pc}
 80003b0:	ea5f 0c4c 	movs.w	ip, ip, lsl #1
 80003b4:	4140      	adcs	r0, r0
 80003b6:	eb41 0101 	adc.w	r1, r1, r1
 80003ba:	3c01      	subs	r4, #1
 80003bc:	bf28      	it	cs
 80003be:	f5b1 1f80 	cmpcs.w	r1, #1048576	; 0x100000
 80003c2:	d2e9      	bcs.n	8000398 <__adddf3+0x10c>
 80003c4:	f091 0f00 	teq	r1, #0
 80003c8:	bf04      	itt	eq
 80003ca:	4601      	moveq	r1, r0
 80003cc:	2000      	moveq	r0, #0
 80003ce:	fab1 f381 	clz	r3, r1
 80003d2:	bf08      	it	eq
 80003d4:	3320      	addeq	r3, #32
 80003d6:	f1a3 030b 	sub.w	r3, r3, #11
 80003da:	f1b3 0220 	subs.w	r2, r3, #32
 80003de:	da0c      	bge.n	80003fa <__adddf3+0x16e>
 80003e0:	320c      	adds	r2, #12
 80003e2:	dd08      	ble.n	80003f6 <__adddf3+0x16a>
 80003e4:	f102 0c14 	add.w	ip, r2, #20
 80003e8:	f1c2 020c 	rsb	r2, r2, #12
 80003ec:	fa01 f00c 	lsl.w	r0, r1, ip
 80003f0:	fa21 f102 	lsr.w	r1, r1, r2
 80003f4:	e00c      	b.n	8000410 <__adddf3+0x184>
 80003f6:	f102 0214 	add.w	r2, r2, #20
 80003fa:	bfd8      	it	le
 80003fc:	f1c2 0c20 	rsble	ip, r2, #32
 8000400:	fa01 f102 	lsl.w	r1, r1, r2
 8000404:	fa20 fc0c 	lsr.w	ip, r0, ip
 8000408:	bfdc      	itt	le
 800040a:	ea41 010c 	orrle.w	r1, r1, ip
 800040e:	4090      	lslle	r0, r2
 8000410:	1ae4      	subs	r4, r4, r3
 8000412:	bfa2      	ittt	ge
 8000414:	eb01 5104 	addge.w	r1, r1, r4, lsl #20
 8000418:	4329      	orrge	r1, r5
 800041a:	bd30      	popge	{r4, r5, pc}
 800041c:	ea6f 0404 	mvn.w	r4, r4
 8000420:	3c1f      	subs	r4, #31
 8000422:	da1c      	bge.n	800045e <__adddf3+0x1d2>
 8000424:	340c      	adds	r4, #12
 8000426:	dc0e      	bgt.n	8000446 <__adddf3+0x1ba>
 8000428:	f104 0414 	add.w	r4, r4, #20
 800042c:	f1c4 0220 	rsb	r2, r4, #32
 8000430:	fa20 f004 	lsr.w	r0, r0, r4
 8000434:	fa01 f302 	lsl.w	r3, r1, r2
 8000438:	ea40 0003 	orr.w	r0, r0, r3
 800043c:	fa21 f304 	lsr.w	r3, r1, r4
 8000440:	ea45 0103 	orr.w	r1, r5, r3
 8000444:	bd30      	pop	{r4, r5, pc}
 8000446:	f1c4 040c 	rsb	r4, r4, #12
 800044a:	f1c4 0220 	rsb	r2, r4, #32
 800044e:	fa20 f002 	lsr.w	r0, r0, r2
 8000452:	fa01 f304 	lsl.w	r3, r1, r4
 8000456:	ea40 0003 	orr.w	r0, r0, r3
 800045a:	4629      	mov	r1, r5
 800045c:	bd30      	pop	{r4, r5, pc}
 800045e:	fa21 f004 	lsr.w	r0, r1, r4
 8000462:	4629      	mov	r1, r5
 8000464:	bd30      	pop	{r4, r5, pc}
 8000466:	f094 0f00 	teq	r4, #0
 800046a:	f483 1380 	eor.w	r3, r3, #1048576	; 0x100000
 800046e:	bf06      	itte	eq
 8000470:	f481 1180 	eoreq.w	r1, r1, #1048576	; 0x100000
 8000474:	3401      	addeq	r4, #1
 8000476:	3d01      	subne	r5, #1
 8000478:	e74e      	b.n	8000318 <__adddf3+0x8c>
 800047a:	ea7f 5c64 	mvns.w	ip, r4, asr #21
 800047e:	bf18      	it	ne
 8000480:	ea7f 5c65 	mvnsne.w	ip, r5, asr #21
 8000484:	d029      	beq.n	80004da <__adddf3+0x24e>
 8000486:	ea94 0f05 	teq	r4, r5
 800048a:	bf08      	it	eq
 800048c:	ea90 0f02 	teqeq	r0, r2
 8000490:	d005      	beq.n	800049e <__adddf3+0x212>
 8000492:	ea54 0c00 	orrs.w	ip, r4, r0
 8000496:	bf04      	itt	eq
 8000498:	4619      	moveq	r1, r3
 800049a:	4610      	moveq	r0, r2
 800049c:	bd30      	pop	{r4, r5, pc}
 800049e:	ea91 0f03 	teq	r1, r3
 80004a2:	bf1e      	ittt	ne
 80004a4:	2100      	movne	r1, #0
 80004a6:	2000      	movne	r0, #0
 80004a8:	bd30      	popne	{r4, r5, pc}
 80004aa:	ea5f 5c54 	movs.w	ip, r4, lsr #21
 80004ae:	d105      	bne.n	80004bc <__adddf3+0x230>
 80004b0:	0040      	lsls	r0, r0, #1
 80004b2:	4149      	adcs	r1, r1
 80004b4:	bf28      	it	cs
 80004b6:	f041 4100 	orrcs.w	r1, r1, #2147483648	; 0x80000000
 80004ba:	bd30      	pop	{r4, r5, pc}
 80004bc:	f514 0480 	adds.w	r4, r4, #4194304	; 0x400000
 80004c0:	bf3c      	itt	cc
 80004c2:	f501 1180 	addcc.w	r1, r1, #1048576	; 0x100000
 80004c6:	bd30      	popcc	{r4, r5, pc}
 80004c8:	f001 4500 	and.w	r5, r1, #2147483648	; 0x80000000
 80004cc:	f045 41fe 	orr.w	r1, r5, #2130706432	; 0x7f000000
 80004d0:	f441 0170 	orr.w	r1, r1, #15728640	; 0xf00000
 80004d4:	f04f 0000 	mov.w	r0, #0
 80004d8:	bd30      	pop	{r4, r5, pc}
 80004da:	ea7f 5c64 	mvns.w	ip, r4, asr #21
 80004de:	bf1a      	itte	ne
 80004e0:	4619      	movne	r1, r3
 80004e2:	4610      	movne	r0, r2
 80004e4:	ea7f 5c65 	mvnseq.w	ip, r5, asr #21
 80004e8:	bf1c      	itt	ne
 80004ea:	460b      	movne	r3, r1
 80004ec:	4602      	movne	r2, r0
 80004ee:	ea50 3401 	orrs.w	r4, r0, r1, lsl #12
 80004f2:	bf06      	itte	eq
 80004f4:	ea52 3503 	orrseq.w	r5, r2, r3, lsl #12
 80004f8:	ea91 0f03 	teqeq	r1, r3
 80004fc:	f441 2100 	orrne.w	r1, r1, #524288	; 0x80000
 8000500:	bd30      	pop	{r4, r5, pc}
 8000502:	bf00      	nop

08000504 <__aeabi_ui2d>:
 8000504:	f090 0f00 	teq	r0, #0
 8000508:	bf04      	itt	eq
 800050a:	2100      	moveq	r1, #0
 800050c:	4770      	bxeq	lr
 800050e:	b530      	push	{r4, r5, lr}
 8000510:	f44f 6480 	mov.w	r4, #1024	; 0x400
 8000514:	f104 0432 	add.w	r4, r4, #50	; 0x32
 8000518:	f04f 0500 	mov.w	r5, #0
 800051c:	f04f 0100 	mov.w	r1, #0
 8000520:	e750      	b.n	80003c4 <__adddf3+0x138>
 8000522:	bf00      	nop

08000524 <__aeabi_i2d>:
 8000524:	f090 0f00 	teq	r0, #0
 8000528:	bf04      	itt	eq
 800052a:	2100      	moveq	r1, #0
 800052c:	4770      	bxeq	lr
 800052e:	b530      	push	{r4, r5, lr}
 8000530:	f44f 6480 	mov.w	r4, #1024	; 0x400
 8000534:	f104 0432 	add.w	r4, r4, #50	; 0x32
 8000538:	f010 4500 	ands.w	r5, r0, #2147483648	; 0x80000000
 800053c:	bf48      	it	mi
 800053e:	4240      	negmi	r0, r0
 8000540:	f04f 0100 	mov.w	r1, #0
 8000544:	e73e      	b.n	80003c4 <__adddf3+0x138>
 8000546:	bf00      	nop

08000548 <__aeabi_f2d>:
 8000548:	0042      	lsls	r2, r0, #1
 800054a:	ea4f 01e2 	mov.w	r1, r2, asr #3
 800054e:	ea4f 0131 	mov.w	r1, r1, rrx
 8000552:	ea4f 7002 	mov.w	r0, r2, lsl #28
 8000556:	bf1f      	itttt	ne
 8000558:	f012 437f 	andsne.w	r3, r2, #4278190080	; 0xff000000
 800055c:	f093 4f7f 	teqne	r3, #4278190080	; 0xff000000
 8000560:	f081 5160 	eorne.w	r1, r1, #939524096	; 0x38000000
 8000564:	4770      	bxne	lr
 8000566:	f032 427f 	bics.w	r2, r2, #4278190080	; 0xff000000
 800056a:	bf08      	it	eq
 800056c:	4770      	bxeq	lr
 800056e:	f093 4f7f 	teq	r3, #4278190080	; 0xff000000
 8000572:	bf04      	itt	eq
 8000574:	f441 2100 	orreq.w	r1, r1, #524288	; 0x80000
 8000578:	4770      	bxeq	lr
 800057a:	b530      	push	{r4, r5, lr}
 800057c:	f44f 7460 	mov.w	r4, #896	; 0x380
 8000580:	f001 4500 	and.w	r5, r1, #2147483648	; 0x80000000
 8000584:	f021 4100 	bic.w	r1, r1, #2147483648	; 0x80000000
 8000588:	e71c      	b.n	80003c4 <__adddf3+0x138>
 800058a:	bf00      	nop

0800058c <__aeabi_ul2d>:
 800058c:	ea50 0201 	orrs.w	r2, r0, r1
 8000590:	bf08      	it	eq
 8000592:	4770      	bxeq	lr
 8000594:	b530      	push	{r4, r5, lr}
 8000596:	f04f 0500 	mov.w	r5, #0
 800059a:	e00a      	b.n	80005b2 <__aeabi_l2d+0x16>

0800059c <__aeabi_l2d>:
 800059c:	ea50 0201 	orrs.w	r2, r0, r1
 80005a0:	bf08      	it	eq
 80005a2:	4770      	bxeq	lr
 80005a4:	b530      	push	{r4, r5, lr}
 80005a6:	f011 4500 	ands.w	r5, r1, #2147483648	; 0x80000000
 80005aa:	d502      	bpl.n	80005b2 <__aeabi_l2d+0x16>
 80005ac:	4240      	negs	r0, r0
 80005ae:	eb61 0141 	sbc.w	r1, r1, r1, lsl #1
 80005b2:	f44f 6480 	mov.w	r4, #1024	; 0x400
 80005b6:	f104 0432 	add.w	r4, r4, #50	; 0x32
 80005ba:	ea5f 5c91 	movs.w	ip, r1, lsr #22
 80005be:	f43f aed8 	beq.w	8000372 <__adddf3+0xe6>
 80005c2:	f04f 0203 	mov.w	r2, #3
 80005c6:	ea5f 0cdc 	movs.w	ip, ip, lsr #3
 80005ca:	bf18      	it	ne
 80005cc:	3203      	addne	r2, #3
 80005ce:	ea5f 0cdc 	movs.w	ip, ip, lsr #3
 80005d2:	bf18      	it	ne
 80005d4:	3203      	addne	r2, #3
 80005d6:	eb02 02dc 	add.w	r2, r2, ip, lsr #3
 80005da:	f1c2 0320 	rsb	r3, r2, #32
 80005de:	fa00 fc03 	lsl.w	ip, r0, r3
 80005e2:	fa20 f002 	lsr.w	r0, r0, r2
 80005e6:	fa01 fe03 	lsl.w	lr, r1, r3
 80005ea:	ea40 000e 	orr.w	r0, r0, lr
 80005ee:	fa21 f102 	lsr.w	r1, r1, r2
 80005f2:	4414      	add	r4, r2
 80005f4:	e6bd      	b.n	8000372 <__adddf3+0xe6>
 80005f6:	bf00      	nop

080005f8 <__aeabi_dmul>:
 80005f8:	b570      	push	{r4, r5, r6, lr}
 80005fa:	f04f 0cff 	mov.w	ip, #255	; 0xff
 80005fe:	f44c 6ce0 	orr.w	ip, ip, #1792	; 0x700
 8000602:	ea1c 5411 	ands.w	r4, ip, r1, lsr #20
 8000606:	bf1d      	ittte	ne
 8000608:	ea1c 5513 	andsne.w	r5, ip, r3, lsr #20
 800060c:	ea94 0f0c 	teqne	r4, ip
 8000610:	ea95 0f0c 	teqne	r5, ip
 8000614:	f000 f8de 	bleq	80007d4 <__aeabi_dmul+0x1dc>
 8000618:	442c      	add	r4, r5
 800061a:	ea81 0603 	eor.w	r6, r1, r3
 800061e:	ea21 514c 	bic.w	r1, r1, ip, lsl #21
 8000622:	ea23 534c 	bic.w	r3, r3, ip, lsl #21
 8000626:	ea50 3501 	orrs.w	r5, r0, r1, lsl #12
 800062a:	bf18      	it	ne
 800062c:	ea52 3503 	orrsne.w	r5, r2, r3, lsl #12
 8000630:	f441 1180 	orr.w	r1, r1, #1048576	; 0x100000
 8000634:	f443 1380 	orr.w	r3, r3, #1048576	; 0x100000
 8000638:	d038      	beq.n	80006ac <__aeabi_dmul+0xb4>
 800063a:	fba0 ce02 	umull	ip, lr, r0, r2
 800063e:	f04f 0500 	mov.w	r5, #0
 8000642:	fbe1 e502 	umlal	lr, r5, r1, r2
 8000646:	f006 4200 	and.w	r2, r6, #2147483648	; 0x80000000
 800064a:	fbe0 e503 	umlal	lr, r5, r0, r3
 800064e:	f04f 0600 	mov.w	r6, #0
 8000652:	fbe1 5603 	umlal	r5, r6, r1, r3
 8000656:	f09c 0f00 	teq	ip, #0
 800065a:	bf18      	it	ne
 800065c:	f04e 0e01 	orrne.w	lr, lr, #1
 8000660:	f1a4 04ff 	sub.w	r4, r4, #255	; 0xff
 8000664:	f5b6 7f00 	cmp.w	r6, #512	; 0x200
 8000668:	f564 7440 	sbc.w	r4, r4, #768	; 0x300
 800066c:	d204      	bcs.n	8000678 <__aeabi_dmul+0x80>
 800066e:	ea5f 0e4e 	movs.w	lr, lr, lsl #1
 8000672:	416d      	adcs	r5, r5
 8000674:	eb46 0606 	adc.w	r6, r6, r6
 8000678:	ea42 21c6 	orr.w	r1, r2, r6, lsl #11
 800067c:	ea41 5155 	orr.w	r1, r1, r5, lsr #21
 8000680:	ea4f 20c5 	mov.w	r0, r5, lsl #11
 8000684:	ea40 505e 	orr.w	r0, r0, lr, lsr #21
 8000688:	ea4f 2ece 	mov.w	lr, lr, lsl #11
 800068c:	f1b4 0cfd 	subs.w	ip, r4, #253	; 0xfd
 8000690:	bf88      	it	hi
 8000692:	f5bc 6fe0 	cmphi.w	ip, #1792	; 0x700
 8000696:	d81e      	bhi.n	80006d6 <__aeabi_dmul+0xde>
 8000698:	f1be 4f00 	cmp.w	lr, #2147483648	; 0x80000000
 800069c:	bf08      	it	eq
 800069e:	ea5f 0e50 	movseq.w	lr, r0, lsr #1
 80006a2:	f150 0000 	adcs.w	r0, r0, #0
 80006a6:	eb41 5104 	adc.w	r1, r1, r4, lsl #20
 80006aa:	bd70      	pop	{r4, r5, r6, pc}
 80006ac:	f006 4600 	and.w	r6, r6, #2147483648	; 0x80000000
 80006b0:	ea46 0101 	orr.w	r1, r6, r1
 80006b4:	ea40 0002 	orr.w	r0, r0, r2
 80006b8:	ea81 0103 	eor.w	r1, r1, r3
 80006bc:	ebb4 045c 	subs.w	r4, r4, ip, lsr #1
 80006c0:	bfc2      	ittt	gt
 80006c2:	ebd4 050c 	rsbsgt	r5, r4, ip
 80006c6:	ea41 5104 	orrgt.w	r1, r1, r4, lsl #20
 80006ca:	bd70      	popgt	{r4, r5, r6, pc}
 80006cc:	f441 1180 	orr.w	r1, r1, #1048576	; 0x100000
 80006d0:	f04f 0e00 	mov.w	lr, #0
 80006d4:	3c01      	subs	r4, #1
 80006d6:	f300 80ab 	bgt.w	8000830 <__aeabi_dmul+0x238>
 80006da:	f114 0f36 	cmn.w	r4, #54	; 0x36
 80006de:	bfde      	ittt	le
 80006e0:	2000      	movle	r0, #0
 80006e2:	f001 4100 	andle.w	r1, r1, #2147483648	; 0x80000000
 80006e6:	bd70      	pople	{r4, r5, r6, pc}
 80006e8:	f1c4 0400 	rsb	r4, r4, #0
 80006ec:	3c20      	subs	r4, #32
 80006ee:	da35      	bge.n	800075c <__aeabi_dmul+0x164>
 80006f0:	340c      	adds	r4, #12
 80006f2:	dc1b      	bgt.n	800072c <__aeabi_dmul+0x134>
 80006f4:	f104 0414 	add.w	r4, r4, #20
 80006f8:	f1c4 0520 	rsb	r5, r4, #32
 80006fc:	fa00 f305 	lsl.w	r3, r0, r5
 8000700:	fa20 f004 	lsr.w	r0, r0, r4
 8000704:	fa01 f205 	lsl.w	r2, r1, r5
 8000708:	ea40 0002 	orr.w	r0, r0, r2
 800070c:	f001 4200 	and.w	r2, r1, #2147483648	; 0x80000000
 8000710:	f021 4100 	bic.w	r1, r1, #2147483648	; 0x80000000
 8000714:	eb10 70d3 	adds.w	r0, r0, r3, lsr #31
 8000718:	fa21 f604 	lsr.w	r6, r1, r4
 800071c:	eb42 0106 	adc.w	r1, r2, r6
 8000720:	ea5e 0e43 	orrs.w	lr, lr, r3, lsl #1
 8000724:	bf08      	it	eq
 8000726:	ea20 70d3 	biceq.w	r0, r0, r3, lsr #31
 800072a:	bd70      	pop	{r4, r5, r6, pc}
 800072c:	f1c4 040c 	rsb	r4, r4, #12
 8000730:	f1c4 0520 	rsb	r5, r4, #32
 8000734:	fa00 f304 	lsl.w	r3, r0, r4
 8000738:	fa20 f005 	lsr.w	r0, r0, r5
 800073c:	fa01 f204 	lsl.w	r2, r1, r4
 8000740:	ea40 0002 	orr.w	r0, r0, r2
 8000744:	f001 4100 	and.w	r1, r1, #2147483648	; 0x80000000
 8000748:	eb10 70d3 	adds.w	r0, r0, r3, lsr #31
 800074c:	f141 0100 	adc.w	r1, r1, #0
 8000750:	ea5e 0e43 	orrs.w	lr, lr, r3, lsl #1
 8000754:	bf08      	it	eq
 8000756:	ea20 70d3 	biceq.w	r0, r0, r3, lsr #31
 800075a:	bd70      	pop	{r4, r5, r6, pc}
 800075c:	f1c4 0520 	rsb	r5, r4, #32
 8000760:	fa00 f205 	lsl.w	r2, r0, r5
 8000764:	ea4e 0e02 	orr.w	lr, lr, r2
 8000768:	fa20 f304 	lsr.w	r3, r0, r4
 800076c:	fa01 f205 	lsl.w	r2, r1, r5
 8000770:	ea43 0302 	orr.w	r3, r3, r2
 8000774:	fa21 f004 	lsr.w	r0, r1, r4
 8000778:	f001 4100 	and.w	r1, r1, #2147483648	; 0x80000000
 800077c:	fa21 f204 	lsr.w	r2, r1, r4
 8000780:	ea20 0002 	bic.w	r0, r0, r2
 8000784:	eb00 70d3 	add.w	r0, r0, r3, lsr #31
 8000788:	ea5e 0e43 	orrs.w	lr, lr, r3, lsl #1
 800078c:	bf08      	it	eq
 800078e:	ea20 70d3 	biceq.w	r0, r0, r3, lsr #31
 8000792:	bd70      	pop	{r4, r5, r6, pc}
 8000794:	f094 0f00 	teq	r4, #0
 8000798:	d10f      	bne.n	80007ba <__aeabi_dmul+0x1c2>
 800079a:	f001 4600 	and.w	r6, r1, #2147483648	; 0x80000000
 800079e:	0040      	lsls	r0, r0, #1
 80007a0:	eb41 0101 	adc.w	r1, r1, r1
 80007a4:	f411 1f80 	tst.w	r1, #1048576	; 0x100000
 80007a8:	bf08      	it	eq
 80007aa:	3c01      	subeq	r4, #1
 80007ac:	d0f7      	beq.n	800079e <__aeabi_dmul+0x1a6>
 80007ae:	ea41 0106 	orr.w	r1, r1, r6
 80007b2:	f095 0f00 	teq	r5, #0
 80007b6:	bf18      	it	ne
 80007b8:	4770      	bxne	lr
 80007ba:	f003 4600 	and.w	r6, r3, #2147483648	; 0x80000000
 80007be:	0052      	lsls	r2, r2, #1
 80007c0:	eb43 0303 	adc.w	r3, r3, r3
 80007c4:	f413 1f80 	tst.w	r3, #1048576	; 0x100000
 80007c8:	bf08      	it	eq
 80007ca:	3d01      	subeq	r5, #1
 80007cc:	d0f7      	beq.n	80007be <__aeabi_dmul+0x1c6>
 80007ce:	ea43 0306 	orr.w	r3, r3, r6
 80007d2:	4770      	bx	lr
 80007d4:	ea94 0f0c 	teq	r4, ip
 80007d8:	ea0c 5513 	and.w	r5, ip, r3, lsr #20
 80007dc:	bf18      	it	ne
 80007de:	ea95 0f0c 	teqne	r5, ip
 80007e2:	d00c      	beq.n	80007fe <__aeabi_dmul+0x206>
 80007e4:	ea50 0641 	orrs.w	r6, r0, r1, lsl #1
 80007e8:	bf18      	it	ne
 80007ea:	ea52 0643 	orrsne.w	r6, r2, r3, lsl #1
 80007ee:	d1d1      	bne.n	8000794 <__aeabi_dmul+0x19c>
 80007f0:	ea81 0103 	eor.w	r1, r1, r3
 80007f4:	f001 4100 	and.w	r1, r1, #2147483648	; 0x80000000
 80007f8:	f04f 0000 	mov.w	r0, #0
 80007fc:	bd70      	pop	{r4, r5, r6, pc}
 80007fe:	ea50 0641 	orrs.w	r6, r0, r1, lsl #1
 8000802:	bf06      	itte	eq
 8000804:	4610      	moveq	r0, r2
 8000806:	4619      	moveq	r1, r3
 8000808:	ea52 0643 	orrsne.w	r6, r2, r3, lsl #1
 800080c:	d019      	beq.n	8000842 <__aeabi_dmul+0x24a>
 800080e:	ea94 0f0c 	teq	r4, ip
 8000812:	d102      	bne.n	800081a <__aeabi_dmul+0x222>
 8000814:	ea50 3601 	orrs.w	r6, r0, r1, lsl #12
 8000818:	d113      	bne.n	8000842 <__aeabi_dmul+0x24a>
 800081a:	ea95 0f0c 	teq	r5, ip
 800081e:	d105      	bne.n	800082c <__aeabi_dmul+0x234>
 8000820:	ea52 3603 	orrs.w	r6, r2, r3, lsl #12
 8000824:	bf1c      	itt	ne
 8000826:	4610      	movne	r0, r2
 8000828:	4619      	movne	r1, r3
 800082a:	d10a      	bne.n	8000842 <__aeabi_dmul+0x24a>
 800082c:	ea81 0103 	eor.w	r1, r1, r3
 8000830:	f001 4100 	and.w	r1, r1, #2147483648	; 0x80000000
 8000834:	f041 41fe 	orr.w	r1, r1, #2130706432	; 0x7f000000
 8000838:	f441 0170 	orr.w	r1, r1, #15728640	; 0xf00000
 800083c:	f04f 0000 	mov.w	r0, #0
 8000840:	bd70      	pop	{r4, r5, r6, pc}
 8000842:	f041 41fe 	orr.w	r1, r1, #2130706432	; 0x7f000000
 8000846:	f441 0178 	orr.w	r1, r1, #16252928	; 0xf80000
 800084a:	bd70      	pop	{r4, r5, r6, pc}

0800084c <__aeabi_ddiv>:
 800084c:	b570      	push	{r4, r5, r6, lr}
 800084e:	f04f 0cff 	mov.w	ip, #255	; 0xff
 8000852:	f44c 6ce0 	orr.w	ip, ip, #1792	; 0x700
 8000856:	ea1c 5411 	ands.w	r4, ip, r1, lsr #20
 800085a:	bf1d      	ittte	ne
 800085c:	ea1c 5513 	andsne.w	r5, ip, r3, lsr #20
 8000860:	ea94 0f0c 	teqne	r4, ip
 8000864:	ea95 0f0c 	teqne	r5, ip
 8000868:	f000 f8a7 	bleq	80009ba <__aeabi_ddiv+0x16e>
 800086c:	eba4 0405 	sub.w	r4, r4, r5
 8000870:	ea81 0e03 	eor.w	lr, r1, r3
 8000874:	ea52 3503 	orrs.w	r5, r2, r3, lsl #12
 8000878:	ea4f 3101 	mov.w	r1, r1, lsl #12
 800087c:	f000 8088 	beq.w	8000990 <__aeabi_ddiv+0x144>
 8000880:	ea4f 3303 	mov.w	r3, r3, lsl #12
 8000884:	f04f 5580 	mov.w	r5, #268435456	; 0x10000000
 8000888:	ea45 1313 	orr.w	r3, r5, r3, lsr #4
 800088c:	ea43 6312 	orr.w	r3, r3, r2, lsr #24
 8000890:	ea4f 2202 	mov.w	r2, r2, lsl #8
 8000894:	ea45 1511 	orr.w	r5, r5, r1, lsr #4
 8000898:	ea45 6510 	orr.w	r5, r5, r0, lsr #24
 800089c:	ea4f 2600 	mov.w	r6, r0, lsl #8
 80008a0:	f00e 4100 	and.w	r1, lr, #2147483648	; 0x80000000
 80008a4:	429d      	cmp	r5, r3
 80008a6:	bf08      	it	eq
 80008a8:	4296      	cmpeq	r6, r2
 80008aa:	f144 04fd 	adc.w	r4, r4, #253	; 0xfd
 80008ae:	f504 7440 	add.w	r4, r4, #768	; 0x300
 80008b2:	d202      	bcs.n	80008ba <__aeabi_ddiv+0x6e>
 80008b4:	085b      	lsrs	r3, r3, #1
 80008b6:	ea4f 0232 	mov.w	r2, r2, rrx
 80008ba:	1ab6      	subs	r6, r6, r2
 80008bc:	eb65 0503 	sbc.w	r5, r5, r3
 80008c0:	085b      	lsrs	r3, r3, #1
 80008c2:	ea4f 0232 	mov.w	r2, r2, rrx
 80008c6:	f44f 1080 	mov.w	r0, #1048576	; 0x100000
 80008ca:	f44f 2c00 	mov.w	ip, #524288	; 0x80000
 80008ce:	ebb6 0e02 	subs.w	lr, r6, r2
 80008d2:	eb75 0e03 	sbcs.w	lr, r5, r3
 80008d6:	bf22      	ittt	cs
 80008d8:	1ab6      	subcs	r6, r6, r2
 80008da:	4675      	movcs	r5, lr
 80008dc:	ea40 000c 	orrcs.w	r0, r0, ip
 80008e0:	085b      	lsrs	r3, r3, #1
 80008e2:	ea4f 0232 	mov.w	r2, r2, rrx
 80008e6:	ebb6 0e02 	subs.w	lr, r6, r2
 80008ea:	eb75 0e03 	sbcs.w	lr, r5, r3
 80008ee:	bf22      	ittt	cs
 80008f0:	1ab6      	subcs	r6, r6, r2
 80008f2:	4675      	movcs	r5, lr
 80008f4:	ea40 005c 	orrcs.w	r0, r0, ip, lsr #1
 80008f8:	085b      	lsrs	r3, r3, #1
 80008fa:	ea4f 0232 	mov.w	r2, r2, rrx
 80008fe:	ebb6 0e02 	subs.w	lr, r6, r2
 8000902:	eb75 0e03 	sbcs.w	lr, r5, r3
 8000906:	bf22      	ittt	cs
 8000908:	1ab6      	subcs	r6, r6, r2
 800090a:	4675      	movcs	r5, lr
 800090c:	ea40 009c 	orrcs.w	r0, r0, ip, lsr #2
 8000910:	085b      	lsrs	r3, r3, #1
 8000912:	ea4f 0232 	mov.w	r2, r2, rrx
 8000916:	ebb6 0e02 	subs.w	lr, r6, r2
 800091a:	eb75 0e03 	sbcs.w	lr, r5, r3
 800091e:	bf22      	ittt	cs
 8000920:	1ab6      	subcs	r6, r6, r2
 8000922:	4675      	movcs	r5, lr
 8000924:	ea40 00dc 	orrcs.w	r0, r0, ip, lsr #3
 8000928:	ea55 0e06 	orrs.w	lr, r5, r6
 800092c:	d018      	beq.n	8000960 <__aeabi_ddiv+0x114>
 800092e:	ea4f 1505 	mov.w	r5, r5, lsl #4
 8000932:	ea45 7516 	orr.w	r5, r5, r6, lsr #28
 8000936:	ea4f 1606 	mov.w	r6, r6, lsl #4
 800093a:	ea4f 03c3 	mov.w	r3, r3, lsl #3
 800093e:	ea43 7352 	orr.w	r3, r3, r2, lsr #29
 8000942:	ea4f 02c2 	mov.w	r2, r2, lsl #3
 8000946:	ea5f 1c1c 	movs.w	ip, ip, lsr #4
 800094a:	d1c0      	bne.n	80008ce <__aeabi_ddiv+0x82>
 800094c:	f411 1f80 	tst.w	r1, #1048576	; 0x100000
 8000950:	d10b      	bne.n	800096a <__aeabi_ddiv+0x11e>
 8000952:	ea41 0100 	orr.w	r1, r1, r0
 8000956:	f04f 0000 	mov.w	r0, #0
 800095a:	f04f 4c00 	mov.w	ip, #2147483648	; 0x80000000
 800095e:	e7b6      	b.n	80008ce <__aeabi_ddiv+0x82>
 8000960:	f411 1f80 	tst.w	r1, #1048576	; 0x100000
 8000964:	bf04      	itt	eq
 8000966:	4301      	orreq	r1, r0
 8000968:	2000      	moveq	r0, #0
 800096a:	f1b4 0cfd 	subs.w	ip, r4, #253	; 0xfd
 800096e:	bf88      	it	hi
 8000970:	f5bc 6fe0 	cmphi.w	ip, #1792	; 0x700
 8000974:	f63f aeaf 	bhi.w	80006d6 <__aeabi_dmul+0xde>
 8000978:	ebb5 0c03 	subs.w	ip, r5, r3
 800097c:	bf04      	itt	eq
 800097e:	ebb6 0c02 	subseq.w	ip, r6, r2
 8000982:	ea5f 0c50 	movseq.w	ip, r0, lsr #1
 8000986:	f150 0000 	adcs.w	r0, r0, #0
 800098a:	eb41 5104 	adc.w	r1, r1, r4, lsl #20
 800098e:	bd70      	pop	{r4, r5, r6, pc}
 8000990:	f00e 4e00 	and.w	lr, lr, #2147483648	; 0x80000000
 8000994:	ea4e 3111 	orr.w	r1, lr, r1, lsr #12
 8000998:	eb14 045c 	adds.w	r4, r4, ip, lsr #1
 800099c:	bfc2      	ittt	gt
 800099e:	ebd4 050c 	rsbsgt	r5, r4, ip
 80009a2:	ea41 5104 	orrgt.w	r1, r1, r4, lsl #20
 80009a6:	bd70      	popgt	{r4, r5, r6, pc}
 80009a8:	f441 1180 	orr.w	r1, r1, #1048576	; 0x100000
 80009ac:	f04f 0e00 	mov.w	lr, #0
 80009b0:	3c01      	subs	r4, #1
 80009b2:	e690      	b.n	80006d6 <__aeabi_dmul+0xde>
 80009b4:	ea45 0e06 	orr.w	lr, r5, r6
 80009b8:	e68d      	b.n	80006d6 <__aeabi_dmul+0xde>
 80009ba:	ea0c 5513 	and.w	r5, ip, r3, lsr #20
 80009be:	ea94 0f0c 	teq	r4, ip
 80009c2:	bf08      	it	eq
 80009c4:	ea95 0f0c 	teqeq	r5, ip
 80009c8:	f43f af3b 	beq.w	8000842 <__aeabi_dmul+0x24a>
 80009cc:	ea94 0f0c 	teq	r4, ip
 80009d0:	d10a      	bne.n	80009e8 <__aeabi_ddiv+0x19c>
 80009d2:	ea50 3401 	orrs.w	r4, r0, r1, lsl #12
 80009d6:	f47f af34 	bne.w	8000842 <__aeabi_dmul+0x24a>
 80009da:	ea95 0f0c 	teq	r5, ip
 80009de:	f47f af25 	bne.w	800082c <__aeabi_dmul+0x234>
 80009e2:	4610      	mov	r0, r2
 80009e4:	4619      	mov	r1, r3
 80009e6:	e72c      	b.n	8000842 <__aeabi_dmul+0x24a>
 80009e8:	ea95 0f0c 	teq	r5, ip
 80009ec:	d106      	bne.n	80009fc <__aeabi_ddiv+0x1b0>
 80009ee:	ea52 3503 	orrs.w	r5, r2, r3, lsl #12
 80009f2:	f43f aefd 	beq.w	80007f0 <__aeabi_dmul+0x1f8>
 80009f6:	4610      	mov	r0, r2
 80009f8:	4619      	mov	r1, r3
 80009fa:	e722      	b.n	8000842 <__aeabi_dmul+0x24a>
 80009fc:	ea50 0641 	orrs.w	r6, r0, r1, lsl #1
 8000a00:	bf18      	it	ne
 8000a02:	ea52 0643 	orrsne.w	r6, r2, r3, lsl #1
 8000a06:	f47f aec5 	bne.w	8000794 <__aeabi_dmul+0x19c>
 8000a0a:	ea50 0441 	orrs.w	r4, r0, r1, lsl #1
 8000a0e:	f47f af0d 	bne.w	800082c <__aeabi_dmul+0x234>
 8000a12:	ea52 0543 	orrs.w	r5, r2, r3, lsl #1
 8000a16:	f47f aeeb 	bne.w	80007f0 <__aeabi_dmul+0x1f8>
 8000a1a:	e712      	b.n	8000842 <__aeabi_dmul+0x24a>

08000a1c <__gedf2>:
 8000a1c:	f04f 3cff 	mov.w	ip, #4294967295
 8000a20:	e006      	b.n	8000a30 <__cmpdf2+0x4>
 8000a22:	bf00      	nop

08000a24 <__ledf2>:
 8000a24:	f04f 0c01 	mov.w	ip, #1
 8000a28:	e002      	b.n	8000a30 <__cmpdf2+0x4>
 8000a2a:	bf00      	nop

08000a2c <__cmpdf2>:
 8000a2c:	f04f 0c01 	mov.w	ip, #1
 8000a30:	f84d cd04 	str.w	ip, [sp, #-4]!
 8000a34:	ea4f 0c41 	mov.w	ip, r1, lsl #1
 8000a38:	ea7f 5c6c 	mvns.w	ip, ip, asr #21
 8000a3c:	ea4f 0c43 	mov.w	ip, r3, lsl #1
 8000a40:	bf18      	it	ne
 8000a42:	ea7f 5c6c 	mvnsne.w	ip, ip, asr #21
 8000a46:	d01b      	beq.n	8000a80 <__cmpdf2+0x54>
 8000a48:	b001      	add	sp, #4
 8000a4a:	ea50 0c41 	orrs.w	ip, r0, r1, lsl #1
 8000a4e:	bf0c      	ite	eq
 8000a50:	ea52 0c43 	orrseq.w	ip, r2, r3, lsl #1
 8000a54:	ea91 0f03 	teqne	r1, r3
 8000a58:	bf02      	ittt	eq
 8000a5a:	ea90 0f02 	teqeq	r0, r2
 8000a5e:	2000      	moveq	r0, #0
 8000a60:	4770      	bxeq	lr
 8000a62:	f110 0f00 	cmn.w	r0, #0
 8000a66:	ea91 0f03 	teq	r1, r3
 8000a6a:	bf58      	it	pl
 8000a6c:	4299      	cmppl	r1, r3
 8000a6e:	bf08      	it	eq
 8000a70:	4290      	cmpeq	r0, r2
 8000a72:	bf2c      	ite	cs
 8000a74:	17d8      	asrcs	r0, r3, #31
 8000a76:	ea6f 70e3 	mvncc.w	r0, r3, asr #31
 8000a7a:	f040 0001 	orr.w	r0, r0, #1
 8000a7e:	4770      	bx	lr
 8000a80:	ea4f 0c41 	mov.w	ip, r1, lsl #1
 8000a84:	ea7f 5c6c 	mvns.w	ip, ip, asr #21
 8000a88:	d102      	bne.n	8000a90 <__cmpdf2+0x64>
 8000a8a:	ea50 3c01 	orrs.w	ip, r0, r1, lsl #12
 8000a8e:	d107      	bne.n	8000aa0 <__cmpdf2+0x74>
 8000a90:	ea4f 0c43 	mov.w	ip, r3, lsl #1
 8000a94:	ea7f 5c6c 	mvns.w	ip, ip, asr #21
 8000a98:	d1d6      	bne.n	8000a48 <__cmpdf2+0x1c>
 8000a9a:	ea52 3c03 	orrs.w	ip, r2, r3, lsl #12
 8000a9e:	d0d3      	beq.n	8000a48 <__cmpdf2+0x1c>
 8000aa0:	f85d 0b04 	ldr.w	r0, [sp], #4
 8000aa4:	4770      	bx	lr
 8000aa6:	bf00      	nop

08000aa8 <__aeabi_cdrcmple>:
 8000aa8:	4684      	mov	ip, r0
 8000aaa:	4610      	mov	r0, r2
 8000aac:	4662      	mov	r2, ip
 8000aae:	468c      	mov	ip, r1
 8000ab0:	4619      	mov	r1, r3
 8000ab2:	4663      	mov	r3, ip
 8000ab4:	e000      	b.n	8000ab8 <__aeabi_cdcmpeq>
 8000ab6:	bf00      	nop

08000ab8 <__aeabi_cdcmpeq>:
 8000ab8:	b501      	push	{r0, lr}
 8000aba:	f7ff ffb7 	bl	8000a2c <__cmpdf2>
 8000abe:	2800      	cmp	r0, #0
 8000ac0:	bf48      	it	mi
 8000ac2:	f110 0f00 	cmnmi.w	r0, #0
 8000ac6:	bd01      	pop	{r0, pc}

08000ac8 <__aeabi_dcmpeq>:
 8000ac8:	f84d ed08 	str.w	lr, [sp, #-8]!
 8000acc:	f7ff fff4 	bl	8000ab8 <__aeabi_cdcmpeq>
 8000ad0:	bf0c      	ite	eq
 8000ad2:	2001      	moveq	r0, #1
 8000ad4:	2000      	movne	r0, #0
 8000ad6:	f85d fb08 	ldr.w	pc, [sp], #8
 8000ada:	bf00      	nop

08000adc <__aeabi_dcmplt>:
 8000adc:	f84d ed08 	str.w	lr, [sp, #-8]!
 8000ae0:	f7ff ffea 	bl	8000ab8 <__aeabi_cdcmpeq>
 8000ae4:	bf34      	ite	cc
 8000ae6:	2001      	movcc	r0, #1
 8000ae8:	2000      	movcs	r0, #0
 8000aea:	f85d fb08 	ldr.w	pc, [sp], #8
 8000aee:	bf00      	nop

08000af0 <__aeabi_dcmple>:
 8000af0:	f84d ed08 	str.w	lr, [sp, #-8]!
 8000af4:	f7ff ffe0 	bl	8000ab8 <__aeabi_cdcmpeq>
 8000af8:	bf94      	ite	ls
 8000afa:	2001      	movls	r0, #1
 8000afc:	2000      	movhi	r0, #0
 8000afe:	f85d fb08 	ldr.w	pc, [sp], #8
 8000b02:	bf00      	nop

08000b04 <__aeabi_dcmpge>:
 8000b04:	f84d ed08 	str.w	lr, [sp, #-8]!
 8000b08:	f7ff ffce 	bl	8000aa8 <__aeabi_cdrcmple>
 8000b0c:	bf94      	ite	ls
 8000b0e:	2001      	movls	r0, #1
 8000b10:	2000      	movhi	r0, #0
 8000b12:	f85d fb08 	ldr.w	pc, [sp], #8
 8000b16:	bf00      	nop

08000b18 <__aeabi_dcmpgt>:
 8000b18:	f84d ed08 	str.w	lr, [sp, #-8]!
 8000b1c:	f7ff ffc4 	bl	8000aa8 <__aeabi_cdrcmple>
 8000b20:	bf34      	ite	cc
 8000b22:	2001      	movcc	r0, #1
 8000b24:	2000      	movcs	r0, #0
 8000b26:	f85d fb08 	ldr.w	pc, [sp], #8
 8000b2a:	bf00      	nop

08000b2c <__aeabi_dcmpun>:
 8000b2c:	ea4f 0c41 	mov.w	ip, r1, lsl #1
 8000b30:	ea7f 5c6c 	mvns.w	ip, ip, asr #21
 8000b34:	d102      	bne.n	8000b3c <__aeabi_dcmpun+0x10>
 8000b36:	ea50 3c01 	orrs.w	ip, r0, r1, lsl #12
 8000b3a:	d10a      	bne.n	8000b52 <__aeabi_dcmpun+0x26>
 8000b3c:	ea4f 0c43 	mov.w	ip, r3, lsl #1
 8000b40:	ea7f 5c6c 	mvns.w	ip, ip, asr #21
 8000b44:	d102      	bne.n	8000b4c <__aeabi_dcmpun+0x20>
 8000b46:	ea52 3c03 	orrs.w	ip, r2, r3, lsl #12
 8000b4a:	d102      	bne.n	8000b52 <__aeabi_dcmpun+0x26>
 8000b4c:	f04f 0000 	mov.w	r0, #0
 8000b50:	4770      	bx	lr
 8000b52:	f04f 0001 	mov.w	r0, #1
 8000b56:	4770      	bx	lr

08000b58 <__aeabi_d2iz>:
 8000b58:	ea4f 0241 	mov.w	r2, r1, lsl #1
 8000b5c:	f512 1200 	adds.w	r2, r2, #2097152	; 0x200000
 8000b60:	d215      	bcs.n	8000b8e <__aeabi_d2iz+0x36>
 8000b62:	d511      	bpl.n	8000b88 <__aeabi_d2iz+0x30>
 8000b64:	f46f 7378 	mvn.w	r3, #992	; 0x3e0
 8000b68:	ebb3 5262 	subs.w	r2, r3, r2, asr #21
 8000b6c:	d912      	bls.n	8000b94 <__aeabi_d2iz+0x3c>
 8000b6e:	ea4f 23c1 	mov.w	r3, r1, lsl #11
 8000b72:	f043 4300 	orr.w	r3, r3, #2147483648	; 0x80000000
 8000b76:	ea43 5350 	orr.w	r3, r3, r0, lsr #21
 8000b7a:	f011 4f00 	tst.w	r1, #2147483648	; 0x80000000
 8000b7e:	fa23 f002 	lsr.w	r0, r3, r2
 8000b82:	bf18      	it	ne
 8000b84:	4240      	negne	r0, r0
 8000b86:	4770      	bx	lr
 8000b88:	f04f 0000 	mov.w	r0, #0
 8000b8c:	4770      	bx	lr
 8000b8e:	ea50 3001 	orrs.w	r0, r0, r1, lsl #12
 8000b92:	d105      	bne.n	8000ba0 <__aeabi_d2iz+0x48>
 8000b94:	f011 4000 	ands.w	r0, r1, #2147483648	; 0x80000000
 8000b98:	bf08      	it	eq
 8000b9a:	f06f 4000 	mvneq.w	r0, #2147483648	; 0x80000000
 8000b9e:	4770      	bx	lr
 8000ba0:	f04f 0000 	mov.w	r0, #0
 8000ba4:	4770      	bx	lr
 8000ba6:	bf00      	nop

08000ba8 <__aeabi_d2uiz>:
 8000ba8:	004a      	lsls	r2, r1, #1
 8000baa:	d211      	bcs.n	8000bd0 <__aeabi_d2uiz+0x28>
 8000bac:	f512 1200 	adds.w	r2, r2, #2097152	; 0x200000
 8000bb0:	d211      	bcs.n	8000bd6 <__aeabi_d2uiz+0x2e>
 8000bb2:	d50d      	bpl.n	8000bd0 <__aeabi_d2uiz+0x28>
 8000bb4:	f46f 7378 	mvn.w	r3, #992	; 0x3e0
 8000bb8:	ebb3 5262 	subs.w	r2, r3, r2, asr #21
 8000bbc:	d40e      	bmi.n	8000bdc <__aeabi_d2uiz+0x34>
 8000bbe:	ea4f 23c1 	mov.w	r3, r1, lsl #11
 8000bc2:	f043 4300 	orr.w	r3, r3, #2147483648	; 0x80000000
 8000bc6:	ea43 5350 	orr.w	r3, r3, r0, lsr #21
 8000bca:	fa23 f002 	lsr.w	r0, r3, r2
 8000bce:	4770      	bx	lr
 8000bd0:	f04f 0000 	mov.w	r0, #0
 8000bd4:	4770      	bx	lr
 8000bd6:	ea50 3001 	orrs.w	r0, r0, r1, lsl #12
 8000bda:	d102      	bne.n	8000be2 <__aeabi_d2uiz+0x3a>
 8000bdc:	f04f 30ff 	mov.w	r0, #4294967295
 8000be0:	4770      	bx	lr
 8000be2:	f04f 0000 	mov.w	r0, #0
 8000be6:	4770      	bx	lr

08000be8 <__aeabi_d2f>:
 8000be8:	ea4f 0241 	mov.w	r2, r1, lsl #1
 8000bec:	f1b2 43e0 	subs.w	r3, r2, #1879048192	; 0x70000000
 8000bf0:	bf24      	itt	cs
 8000bf2:	f5b3 1c00 	subscs.w	ip, r3, #2097152	; 0x200000
 8000bf6:	f1dc 5cfe 	rsbscs	ip, ip, #532676608	; 0x1fc00000
 8000bfa:	d90d      	bls.n	8000c18 <__aeabi_d2f+0x30>
 8000bfc:	f001 4c00 	and.w	ip, r1, #2147483648	; 0x80000000
 8000c00:	ea4f 02c0 	mov.w	r2, r0, lsl #3
 8000c04:	ea4c 7050 	orr.w	r0, ip, r0, lsr #29
 8000c08:	f1b2 4f00 	cmp.w	r2, #2147483648	; 0x80000000
 8000c0c:	eb40 0083 	adc.w	r0, r0, r3, lsl #2
 8000c10:	bf08      	it	eq
 8000c12:	f020 0001 	biceq.w	r0, r0, #1
 8000c16:	4770      	bx	lr
 8000c18:	f011 4f80 	tst.w	r1, #1073741824	; 0x40000000
 8000c1c:	d121      	bne.n	8000c62 <__aeabi_d2f+0x7a>
 8000c1e:	f113 7238 	adds.w	r2, r3, #48234496	; 0x2e00000
 8000c22:	bfbc      	itt	lt
 8000c24:	f001 4000 	andlt.w	r0, r1, #2147483648	; 0x80000000
 8000c28:	4770      	bxlt	lr
 8000c2a:	f441 1180 	orr.w	r1, r1, #1048576	; 0x100000
 8000c2e:	ea4f 5252 	mov.w	r2, r2, lsr #21
 8000c32:	f1c2 0218 	rsb	r2, r2, #24
 8000c36:	f1c2 0c20 	rsb	ip, r2, #32
 8000c3a:	fa10 f30c 	lsls.w	r3, r0, ip
 8000c3e:	fa20 f002 	lsr.w	r0, r0, r2
 8000c42:	bf18      	it	ne
 8000c44:	f040 0001 	orrne.w	r0, r0, #1
 8000c48:	ea4f 23c1 	mov.w	r3, r1, lsl #11
 8000c4c:	ea4f 23d3 	mov.w	r3, r3, lsr #11
 8000c50:	fa03 fc0c 	lsl.w	ip, r3, ip
 8000c54:	ea40 000c 	orr.w	r0, r0, ip
 8000c58:	fa23 f302 	lsr.w	r3, r3, r2
 8000c5c:	ea4f 0343 	mov.w	r3, r3, lsl #1
 8000c60:	e7cc      	b.n	8000bfc <__aeabi_d2f+0x14>
 8000c62:	ea7f 5362 	mvns.w	r3, r2, asr #21
 8000c66:	d107      	bne.n	8000c78 <__aeabi_d2f+0x90>
 8000c68:	ea50 3301 	orrs.w	r3, r0, r1, lsl #12
 8000c6c:	bf1e      	ittt	ne
 8000c6e:	f04f 40fe 	movne.w	r0, #2130706432	; 0x7f000000
 8000c72:	f440 0040 	orrne.w	r0, r0, #12582912	; 0xc00000
 8000c76:	4770      	bxne	lr
 8000c78:	f001 4000 	and.w	r0, r1, #2147483648	; 0x80000000
 8000c7c:	f040 40fe 	orr.w	r0, r0, #2130706432	; 0x7f000000
 8000c80:	f440 0000 	orr.w	r0, r0, #8388608	; 0x800000
 8000c84:	4770      	bx	lr
 8000c86:	bf00      	nop

08000c88 <__aeabi_uldivmod>:
 8000c88:	b953      	cbnz	r3, 8000ca0 <__aeabi_uldivmod+0x18>
 8000c8a:	b94a      	cbnz	r2, 8000ca0 <__aeabi_uldivmod+0x18>
 8000c8c:	2900      	cmp	r1, #0
 8000c8e:	bf08      	it	eq
 8000c90:	2800      	cmpeq	r0, #0
 8000c92:	bf1c      	itt	ne
 8000c94:	f04f 31ff 	movne.w	r1, #4294967295
 8000c98:	f04f 30ff 	movne.w	r0, #4294967295
 8000c9c:	f000 b974 	b.w	8000f88 <__aeabi_idiv0>
 8000ca0:	f1ad 0c08 	sub.w	ip, sp, #8
 8000ca4:	e96d ce04 	strd	ip, lr, [sp, #-16]!
 8000ca8:	f000 f806 	bl	8000cb8 <__udivmoddi4>
 8000cac:	f8dd e004 	ldr.w	lr, [sp, #4]
 8000cb0:	e9dd 2302 	ldrd	r2, r3, [sp, #8]
 8000cb4:	b004      	add	sp, #16
 8000cb6:	4770      	bx	lr

08000cb8 <__udivmoddi4>:
 8000cb8:	e92d 47f0 	stmdb	sp!, {r4, r5, r6, r7, r8, r9, sl, lr}
 8000cbc:	9d08      	ldr	r5, [sp, #32]
 8000cbe:	4604      	mov	r4, r0
 8000cc0:	468e      	mov	lr, r1
 8000cc2:	2b00      	cmp	r3, #0
 8000cc4:	d14d      	bne.n	8000d62 <__udivmoddi4+0xaa>
 8000cc6:	428a      	cmp	r2, r1
 8000cc8:	4694      	mov	ip, r2
 8000cca:	d969      	bls.n	8000da0 <__udivmoddi4+0xe8>
 8000ccc:	fab2 f282 	clz	r2, r2
 8000cd0:	b152      	cbz	r2, 8000ce8 <__udivmoddi4+0x30>
 8000cd2:	fa01 f302 	lsl.w	r3, r1, r2
 8000cd6:	f1c2 0120 	rsb	r1, r2, #32
 8000cda:	fa20 f101 	lsr.w	r1, r0, r1
 8000cde:	fa0c fc02 	lsl.w	ip, ip, r2
 8000ce2:	ea41 0e03 	orr.w	lr, r1, r3
 8000ce6:	4094      	lsls	r4, r2
 8000ce8:	ea4f 481c 	mov.w	r8, ip, lsr #16
 8000cec:	0c21      	lsrs	r1, r4, #16
 8000cee:	fbbe f6f8 	udiv	r6, lr, r8
 8000cf2:	fa1f f78c 	uxth.w	r7, ip
 8000cf6:	fb08 e316 	mls	r3, r8, r6, lr
 8000cfa:	ea41 4303 	orr.w	r3, r1, r3, lsl #16
 8000cfe:	fb06 f107 	mul.w	r1, r6, r7
 8000d02:	4299      	cmp	r1, r3
 8000d04:	d90a      	bls.n	8000d1c <__udivmoddi4+0x64>
 8000d06:	eb1c 0303 	adds.w	r3, ip, r3
 8000d0a:	f106 30ff 	add.w	r0, r6, #4294967295
 8000d0e:	f080 811f 	bcs.w	8000f50 <__udivmoddi4+0x298>
 8000d12:	4299      	cmp	r1, r3
 8000d14:	f240 811c 	bls.w	8000f50 <__udivmoddi4+0x298>
 8000d18:	3e02      	subs	r6, #2
 8000d1a:	4463      	add	r3, ip
 8000d1c:	1a5b      	subs	r3, r3, r1
 8000d1e:	b2a4      	uxth	r4, r4
 8000d20:	fbb3 f0f8 	udiv	r0, r3, r8
 8000d24:	fb08 3310 	mls	r3, r8, r0, r3
 8000d28:	ea44 4403 	orr.w	r4, r4, r3, lsl #16
 8000d2c:	fb00 f707 	mul.w	r7, r0, r7
 8000d30:	42a7      	cmp	r7, r4
 8000d32:	d90a      	bls.n	8000d4a <__udivmoddi4+0x92>
 8000d34:	eb1c 0404 	adds.w	r4, ip, r4
 8000d38:	f100 33ff 	add.w	r3, r0, #4294967295
 8000d3c:	f080 810a 	bcs.w	8000f54 <__udivmoddi4+0x29c>
 8000d40:	42a7      	cmp	r7, r4
 8000d42:	f240 8107 	bls.w	8000f54 <__udivmoddi4+0x29c>
 8000d46:	4464      	add	r4, ip
 8000d48:	3802      	subs	r0, #2
 8000d4a:	ea40 4006 	orr.w	r0, r0, r6, lsl #16
 8000d4e:	1be4      	subs	r4, r4, r7
 8000d50:	2600      	movs	r6, #0
 8000d52:	b11d      	cbz	r5, 8000d5c <__udivmoddi4+0xa4>
 8000d54:	40d4      	lsrs	r4, r2
 8000d56:	2300      	movs	r3, #0
 8000d58:	e9c5 4300 	strd	r4, r3, [r5]
 8000d5c:	4631      	mov	r1, r6
 8000d5e:	e8bd 87f0 	ldmia.w	sp!, {r4, r5, r6, r7, r8, r9, sl, pc}
 8000d62:	428b      	cmp	r3, r1
 8000d64:	d909      	bls.n	8000d7a <__udivmoddi4+0xc2>
 8000d66:	2d00      	cmp	r5, #0
 8000d68:	f000 80ef 	beq.w	8000f4a <__udivmoddi4+0x292>
 8000d6c:	2600      	movs	r6, #0
 8000d6e:	e9c5 0100 	strd	r0, r1, [r5]
 8000d72:	4630      	mov	r0, r6
 8000d74:	4631      	mov	r1, r6
 8000d76:	e8bd 87f0 	ldmia.w	sp!, {r4, r5, r6, r7, r8, r9, sl, pc}
 8000d7a:	fab3 f683 	clz	r6, r3
 8000d7e:	2e00      	cmp	r6, #0
 8000d80:	d14a      	bne.n	8000e18 <__udivmoddi4+0x160>
 8000d82:	428b      	cmp	r3, r1
 8000d84:	d302      	bcc.n	8000d8c <__udivmoddi4+0xd4>
 8000d86:	4282      	cmp	r2, r0
 8000d88:	f200 80f9 	bhi.w	8000f7e <__udivmoddi4+0x2c6>
 8000d8c:	1a84      	subs	r4, r0, r2
 8000d8e:	eb61 0303 	sbc.w	r3, r1, r3
 8000d92:	2001      	movs	r0, #1
 8000d94:	469e      	mov	lr, r3
 8000d96:	2d00      	cmp	r5, #0
 8000d98:	d0e0      	beq.n	8000d5c <__udivmoddi4+0xa4>
 8000d9a:	e9c5 4e00 	strd	r4, lr, [r5]
 8000d9e:	e7dd      	b.n	8000d5c <__udivmoddi4+0xa4>
 8000da0:	b902      	cbnz	r2, 8000da4 <__udivmoddi4+0xec>
 8000da2:	deff      	udf	#255	; 0xff
 8000da4:	fab2 f282 	clz	r2, r2
 8000da8:	2a00      	cmp	r2, #0
 8000daa:	f040 8092 	bne.w	8000ed2 <__udivmoddi4+0x21a>
 8000dae:	eba1 010c 	sub.w	r1, r1, ip
 8000db2:	ea4f 471c 	mov.w	r7, ip, lsr #16
 8000db6:	fa1f fe8c 	uxth.w	lr, ip
 8000dba:	2601      	movs	r6, #1
 8000dbc:	0c20      	lsrs	r0, r4, #16
 8000dbe:	fbb1 f3f7 	udiv	r3, r1, r7
 8000dc2:	fb07 1113 	mls	r1, r7, r3, r1
 8000dc6:	ea40 4101 	orr.w	r1, r0, r1, lsl #16
 8000dca:	fb0e f003 	mul.w	r0, lr, r3
 8000dce:	4288      	cmp	r0, r1
 8000dd0:	d908      	bls.n	8000de4 <__udivmoddi4+0x12c>
 8000dd2:	eb1c 0101 	adds.w	r1, ip, r1
 8000dd6:	f103 38ff 	add.w	r8, r3, #4294967295
 8000dda:	d202      	bcs.n	8000de2 <__udivmoddi4+0x12a>
 8000ddc:	4288      	cmp	r0, r1
 8000dde:	f200 80cb 	bhi.w	8000f78 <__udivmoddi4+0x2c0>
 8000de2:	4643      	mov	r3, r8
 8000de4:	1a09      	subs	r1, r1, r0
 8000de6:	b2a4      	uxth	r4, r4
 8000de8:	fbb1 f0f7 	udiv	r0, r1, r7
 8000dec:	fb07 1110 	mls	r1, r7, r0, r1
 8000df0:	ea44 4401 	orr.w	r4, r4, r1, lsl #16
 8000df4:	fb0e fe00 	mul.w	lr, lr, r0
 8000df8:	45a6      	cmp	lr, r4
 8000dfa:	d908      	bls.n	8000e0e <__udivmoddi4+0x156>
 8000dfc:	eb1c 0404 	adds.w	r4, ip, r4
 8000e00:	f100 31ff 	add.w	r1, r0, #4294967295
 8000e04:	d202      	bcs.n	8000e0c <__udivmoddi4+0x154>
 8000e06:	45a6      	cmp	lr, r4
 8000e08:	f200 80bb 	bhi.w	8000f82 <__udivmoddi4+0x2ca>
 8000e0c:	4608      	mov	r0, r1
 8000e0e:	eba4 040e 	sub.w	r4, r4, lr
 8000e12:	ea40 4003 	orr.w	r0, r0, r3, lsl #16
 8000e16:	e79c      	b.n	8000d52 <__udivmoddi4+0x9a>
 8000e18:	f1c6 0720 	rsb	r7, r6, #32
 8000e1c:	40b3      	lsls	r3, r6
 8000e1e:	fa22 fc07 	lsr.w	ip, r2, r7
 8000e22:	ea4c 0c03 	orr.w	ip, ip, r3
 8000e26:	fa20 f407 	lsr.w	r4, r0, r7
 8000e2a:	fa01 f306 	lsl.w	r3, r1, r6
 8000e2e:	431c      	orrs	r4, r3
 8000e30:	40f9      	lsrs	r1, r7
 8000e32:	ea4f 491c 	mov.w	r9, ip, lsr #16
 8000e36:	fa00 f306 	lsl.w	r3, r0, r6
 8000e3a:	fbb1 f8f9 	udiv	r8, r1, r9
 8000e3e:	0c20      	lsrs	r0, r4, #16
 8000e40:	fa1f fe8c 	uxth.w	lr, ip
 8000e44:	fb09 1118 	mls	r1, r9, r8, r1
 8000e48:	ea40 4101 	orr.w	r1, r0, r1, lsl #16
 8000e4c:	fb08 f00e 	mul.w	r0, r8, lr
 8000e50:	4288      	cmp	r0, r1
 8000e52:	fa02 f206 	lsl.w	r2, r2, r6
 8000e56:	d90b      	bls.n	8000e70 <__udivmoddi4+0x1b8>
 8000e58:	eb1c 0101 	adds.w	r1, ip, r1
 8000e5c:	f108 3aff 	add.w	sl, r8, #4294967295
 8000e60:	f080 8088 	bcs.w	8000f74 <__udivmoddi4+0x2bc>
 8000e64:	4288      	cmp	r0, r1
 8000e66:	f240 8085 	bls.w	8000f74 <__udivmoddi4+0x2bc>
 8000e6a:	f1a8 0802 	sub.w	r8, r8, #2
 8000e6e:	4461      	add	r1, ip
 8000e70:	1a09      	subs	r1, r1, r0
 8000e72:	b2a4      	uxth	r4, r4
 8000e74:	fbb1 f0f9 	udiv	r0, r1, r9
 8000e78:	fb09 1110 	mls	r1, r9, r0, r1
 8000e7c:	ea44 4101 	orr.w	r1, r4, r1, lsl #16
 8000e80:	fb00 fe0e 	mul.w	lr, r0, lr
 8000e84:	458e      	cmp	lr, r1
 8000e86:	d908      	bls.n	8000e9a <__udivmoddi4+0x1e2>
 8000e88:	eb1c 0101 	adds.w	r1, ip, r1
 8000e8c:	f100 34ff 	add.w	r4, r0, #4294967295
 8000e90:	d26c      	bcs.n	8000f6c <__udivmoddi4+0x2b4>
 8000e92:	458e      	cmp	lr, r1
 8000e94:	d96a      	bls.n	8000f6c <__udivmoddi4+0x2b4>
 8000e96:	3802      	subs	r0, #2
 8000e98:	4461      	add	r1, ip
 8000e9a:	ea40 4008 	orr.w	r0, r0, r8, lsl #16
 8000e9e:	fba0 9402 	umull	r9, r4, r0, r2
 8000ea2:	eba1 010e 	sub.w	r1, r1, lr
 8000ea6:	42a1      	cmp	r1, r4
 8000ea8:	46c8      	mov	r8, r9
 8000eaa:	46a6      	mov	lr, r4
 8000eac:	d356      	bcc.n	8000f5c <__udivmoddi4+0x2a4>
 8000eae:	d053      	beq.n	8000f58 <__udivmoddi4+0x2a0>
 8000eb0:	b15d      	cbz	r5, 8000eca <__udivmoddi4+0x212>
 8000eb2:	ebb3 0208 	subs.w	r2, r3, r8
 8000eb6:	eb61 010e 	sbc.w	r1, r1, lr
 8000eba:	fa01 f707 	lsl.w	r7, r1, r7
 8000ebe:	fa22 f306 	lsr.w	r3, r2, r6
 8000ec2:	40f1      	lsrs	r1, r6
 8000ec4:	431f      	orrs	r7, r3
 8000ec6:	e9c5 7100 	strd	r7, r1, [r5]
 8000eca:	2600      	movs	r6, #0
 8000ecc:	4631      	mov	r1, r6
 8000ece:	e8bd 87f0 	ldmia.w	sp!, {r4, r5, r6, r7, r8, r9, sl, pc}
 8000ed2:	f1c2 0320 	rsb	r3, r2, #32
 8000ed6:	40d8      	lsrs	r0, r3
 8000ed8:	fa0c fc02 	lsl.w	ip, ip, r2
 8000edc:	fa21 f303 	lsr.w	r3, r1, r3
 8000ee0:	4091      	lsls	r1, r2
 8000ee2:	4301      	orrs	r1, r0
 8000ee4:	ea4f 471c 	mov.w	r7, ip, lsr #16
 8000ee8:	fa1f fe8c 	uxth.w	lr, ip
 8000eec:	fbb3 f0f7 	udiv	r0, r3, r7
 8000ef0:	fb07 3610 	mls	r6, r7, r0, r3
 8000ef4:	0c0b      	lsrs	r3, r1, #16
 8000ef6:	ea43 4306 	orr.w	r3, r3, r6, lsl #16
 8000efa:	fb00 f60e 	mul.w	r6, r0, lr
 8000efe:	429e      	cmp	r6, r3
 8000f00:	fa04 f402 	lsl.w	r4, r4, r2
 8000f04:	d908      	bls.n	8000f18 <__udivmoddi4+0x260>
 8000f06:	eb1c 0303 	adds.w	r3, ip, r3
 8000f0a:	f100 38ff 	add.w	r8, r0, #4294967295
 8000f0e:	d22f      	bcs.n	8000f70 <__udivmoddi4+0x2b8>
 8000f10:	429e      	cmp	r6, r3
 8000f12:	d92d      	bls.n	8000f70 <__udivmoddi4+0x2b8>
 8000f14:	3802      	subs	r0, #2
 8000f16:	4463      	add	r3, ip
 8000f18:	1b9b      	subs	r3, r3, r6
 8000f1a:	b289      	uxth	r1, r1
 8000f1c:	fbb3 f6f7 	udiv	r6, r3, r7
 8000f20:	fb07 3316 	mls	r3, r7, r6, r3
 8000f24:	ea41 4103 	orr.w	r1, r1, r3, lsl #16
 8000f28:	fb06 f30e 	mul.w	r3, r6, lr
 8000f2c:	428b      	cmp	r3, r1
 8000f2e:	d908      	bls.n	8000f42 <__udivmoddi4+0x28a>
 8000f30:	eb1c 0101 	adds.w	r1, ip, r1
 8000f34:	f106 38ff 	add.w	r8, r6, #4294967295
 8000f38:	d216      	bcs.n	8000f68 <__udivmoddi4+0x2b0>
 8000f3a:	428b      	cmp	r3, r1
 8000f3c:	d914      	bls.n	8000f68 <__udivmoddi4+0x2b0>
 8000f3e:	3e02      	subs	r6, #2
 8000f40:	4461      	add	r1, ip
 8000f42:	1ac9      	subs	r1, r1, r3
 8000f44:	ea46 4600 	orr.w	r6, r6, r0, lsl #16
 8000f48:	e738      	b.n	8000dbc <__udivmoddi4+0x104>
 8000f4a:	462e      	mov	r6, r5
 8000f4c:	4628      	mov	r0, r5
 8000f4e:	e705      	b.n	8000d5c <__udivmoddi4+0xa4>
 8000f50:	4606      	mov	r6, r0
 8000f52:	e6e3      	b.n	8000d1c <__udivmoddi4+0x64>
 8000f54:	4618      	mov	r0, r3
 8000f56:	e6f8      	b.n	8000d4a <__udivmoddi4+0x92>
 8000f58:	454b      	cmp	r3, r9
 8000f5a:	d2a9      	bcs.n	8000eb0 <__udivmoddi4+0x1f8>
 8000f5c:	ebb9 0802 	subs.w	r8, r9, r2
 8000f60:	eb64 0e0c 	sbc.w	lr, r4, ip
 8000f64:	3801      	subs	r0, #1
 8000f66:	e7a3      	b.n	8000eb0 <__udivmoddi4+0x1f8>
 8000f68:	4646      	mov	r6, r8
 8000f6a:	e7ea      	b.n	8000f42 <__udivmoddi4+0x28a>
 8000f6c:	4620      	mov	r0, r4
 8000f6e:	e794      	b.n	8000e9a <__udivmoddi4+0x1e2>
 8000f70:	4640      	mov	r0, r8
 8000f72:	e7d1      	b.n	8000f18 <__udivmoddi4+0x260>
 8000f74:	46d0      	mov	r8, sl
 8000f76:	e77b      	b.n	8000e70 <__udivmoddi4+0x1b8>
 8000f78:	3b02      	subs	r3, #2
 8000f7a:	4461      	add	r1, ip
 8000f7c:	e732      	b.n	8000de4 <__udivmoddi4+0x12c>
 8000f7e:	4630      	mov	r0, r6
 8000f80:	e709      	b.n	8000d96 <__udivmoddi4+0xde>
 8000f82:	4464      	add	r4, ip
 8000f84:	3802      	subs	r0, #2
 8000f86:	e742      	b.n	8000e0e <__udivmoddi4+0x156>

08000f88 <__aeabi_idiv0>:
 8000f88:	4770      	bx	lr
 8000f8a:	bf00      	nop

08000f8c <MotorPIDController_Init>:
 8000f8c:	4b07      	ldr	r3, [pc, #28]	; (8000fac <MotorPIDController_Init+0x20>)
 8000f8e:	6183      	str	r3, [r0, #24]
 8000f90:	f04f 537a 	mov.w	r3, #1048576000	; 0x3e800000
 8000f94:	4a06      	ldr	r2, [pc, #24]	; (8000fb0 <MotorPIDController_Init+0x24>)
 8000f96:	6003      	str	r3, [r0, #0]
 8000f98:	2300      	movs	r3, #0
 8000f9a:	6043      	str	r3, [r0, #4]
 8000f9c:	6142      	str	r2, [r0, #20]
 8000f9e:	6103      	str	r3, [r0, #16]
 8000fa0:	61c3      	str	r3, [r0, #28]
 8000fa2:	6203      	str	r3, [r0, #32]
 8000fa4:	6283      	str	r3, [r0, #40]	; 0x28
 8000fa6:	62c3      	str	r3, [r0, #44]	; 0x2c
 8000fa8:	4770      	bx	lr
 8000faa:	bf00      	nop
 8000fac:	3e4ccccd 	.word	0x3e4ccccd
 8000fb0:	45bb8000 	.word	0x45bb8000

08000fb4 <PIDController_Update>:
 8000fb4:	ee30 7ac0 	vsub.f32	s14, s1, s0
 8000fb8:	ee07 1a90 	vmov	s15, r1
 8000fbc:	eeb4 7a47 	vcmp.f32	s14, s14
 8000fc0:	eef1 fa10 	vmrs	APSR_nzcv, fpscr
 8000fc4:	eeb8 6ae7 	vcvt.f32.s32	s12, s15
 8000fc8:	edd0 6a00 	vldr	s13, [r0]
 8000fcc:	eef7 7a00 	vmov.f32	s15, #112	; 0x3f800000  1.0
 8000fd0:	d607      	bvs.n	8000fe2 <PIDController_Update+0x2e>
 8000fd2:	eeb5 7ac0 	vcmpe.f32	s14, #0.0
 8000fd6:	eef1 fa10 	vmrs	APSR_nzcv, fpscr
 8000fda:	da04      	bge.n	8000fe6 <PIDController_Update+0x32>
 8000fdc:	eec7 5a00 	vdiv.f32	s11, s14, s0
 8000fe0:	e003      	b.n	8000fea <PIDController_Update+0x36>
 8000fe2:	ed9f 7a39 	vldr	s14, [pc, #228]	; 80010c8 <PIDController_Update+0x114>
 8000fe6:	eec7 5a20 	vdiv.f32	s11, s14, s1
 8000fea:	eee5 7aa6 	vfma.f32	s15, s11, s13
 8000fee:	edd0 6a01 	vldr	s13, [r0, #4]
 8000ff2:	edd0 4a05 	vldr	s9, [r0, #20]
 8000ff6:	ed90 5a07 	vldr	s10, [r0, #28]
 8000ffa:	eef6 5a00 	vmov.f32	s11, #96	; 0x3f000000  0.5
 8000ffe:	ee67 7a86 	vmul.f32	s15, s15, s12
 8001002:	ee66 6aa5 	vmul.f32	s13, s13, s11
 8001006:	edd0 5a06 	vldr	s11, [r0, #24]
 800100a:	eefd 7ae7 	vcvt.s32.f32	s15, s15
 800100e:	ee66 6aa5 	vmul.f32	s13, s13, s11
 8001012:	edd0 5a08 	vldr	s11, [r0, #32]
 8001016:	eef8 7ae7 	vcvt.f32.s32	s15, s15
 800101a:	ee77 5a25 	vadd.f32	s11, s14, s11
 800101e:	eef4 4ae7 	vcmpe.f32	s9, s15
 8001022:	ee66 6aa5 	vmul.f32	s13, s13, s11
 8001026:	eef1 fa10 	vmrs	APSR_nzcv, fpscr
 800102a:	eea6 5a86 	vfma.f32	s10, s13, s12
 800102e:	bfc8      	it	gt
 8001030:	ee34 6ae7 	vsubgt.f32	s12, s9, s15
 8001034:	edd0 5a04 	vldr	s11, [r0, #16]
 8001038:	bfd8      	it	le
 800103a:	ed9f 6a24 	vldrle	s12, [pc, #144]	; 80010cc <PIDController_Update+0x118>
 800103e:	ed80 5a07 	vstr	s10, [r0, #28]
 8001042:	bfc8      	it	gt
 8001044:	eebd 6ac6 	vcvtgt.s32.f32	s12, s12
 8001048:	eef4 7ae5 	vcmpe.f32	s15, s11
 800104c:	eef1 fa10 	vmrs	APSR_nzcv, fpscr
 8001050:	eeb8 6ac6 	vcvt.f32.s32	s12, s12
 8001054:	bfc8      	it	gt
 8001056:	ee75 6ae7 	vsubgt.f32	s13, s11, s15
 800105a:	eeb4 5ac6 	vcmpe.f32	s10, s12
 800105e:	bfcc      	ite	gt
 8001060:	eefd 6ae6 	vcvtgt.s32.f32	s13, s13
 8001064:	eddf 6a19 	vldrle	s13, [pc, #100]	; 80010cc <PIDController_Update+0x118>
 8001068:	eef1 fa10 	vmrs	APSR_nzcv, fpscr
 800106c:	dd17      	ble.n	800109e <PIDController_Update+0xea>
 800106e:	ed80 6a07 	vstr	s12, [r0, #28]
 8001072:	edd0 6a07 	vldr	s13, [r0, #28]
 8001076:	ee77 7aa6 	vadd.f32	s15, s15, s13
 800107a:	eef4 4ae7 	vcmpe.f32	s9, s15
 800107e:	eef1 fa10 	vmrs	APSR_nzcv, fpscr
 8001082:	d516      	bpl.n	80010b2 <PIDController_Update+0xfe>
 8001084:	edc0 4a0b 	vstr	s9, [r0, #44]	; 0x2c
 8001088:	edd0 7a0b 	vldr	s15, [r0, #44]	; 0x2c
 800108c:	ed80 7a08 	vstr	s14, [r0, #32]
 8001090:	eefd 7ae7 	vcvt.s32.f32	s15, s15
 8001094:	ed80 0a0a 	vstr	s0, [r0, #40]	; 0x28
 8001098:	ee17 0a90 	vmov	r0, s15
 800109c:	4770      	bx	lr
 800109e:	eef8 6ae6 	vcvt.f32.s32	s13, s13
 80010a2:	eeb4 5ae6 	vcmpe.f32	s10, s13
 80010a6:	eef1 fa10 	vmrs	APSR_nzcv, fpscr
 80010aa:	bf48      	it	mi
 80010ac:	edc0 6a07 	vstrmi	s13, [r0, #28]
 80010b0:	e7df      	b.n	8001072 <PIDController_Update+0xbe>
 80010b2:	eef4 5ae7 	vcmpe.f32	s11, s15
 80010b6:	eef1 fa10 	vmrs	APSR_nzcv, fpscr
 80010ba:	bfc8      	it	gt
 80010bc:	eef0 7a65 	vmovgt.f32	s15, s11
 80010c0:	edc0 7a0b 	vstr	s15, [r0, #44]	; 0x2c
 80010c4:	e7e0      	b.n	8001088 <PIDController_Update+0xd4>
 80010c6:	bf00      	nop
	...

080010d0 <encoder_task>:
 80010d0:	e92d 4ff8 	stmdb	sp!, {r3, r4, r5, r6, r7, r8, r9, sl, fp, lr}
 80010d4:	4e43      	ldr	r6, [pc, #268]	; (80011e4 <encoder_task+0x114>)
 80010d6:	4f44      	ldr	r7, [pc, #272]	; (80011e8 <encoder_task+0x118>)
 80010d8:	f8df b120 	ldr.w	fp, [pc, #288]	; 80011fc <encoder_task+0x12c>
 80010dc:	ed2d 8b02 	vpush	{d8}
 80010e0:	213c      	movs	r1, #60	; 0x3c
 80010e2:	4630      	mov	r0, r6
 80010e4:	f003 f81c 	bl	8004120 <HAL_TIM_Encoder_Start>
 80010e8:	213c      	movs	r1, #60	; 0x3c
 80010ea:	4638      	mov	r0, r7
 80010ec:	f003 f818 	bl	8004120 <HAL_TIM_Encoder_Start>
 80010f0:	6833      	ldr	r3, [r6, #0]
 80010f2:	6a5d      	ldr	r5, [r3, #36]	; 0x24
 80010f4:	683b      	ldr	r3, [r7, #0]
 80010f6:	6a5c      	ldr	r4, [r3, #36]	; 0x24
 80010f8:	f001 feee 	bl	8002ed8 <HAL_GetTick>
 80010fc:	4680      	mov	r8, r0
 80010fe:	f001 feeb 	bl	8002ed8 <HAL_GetTick>
 8001102:	eba0 0008 	sub.w	r0, r0, r8
 8001106:	2832      	cmp	r0, #50	; 0x32
 8001108:	d94d      	bls.n	80011a6 <encoder_task+0xd6>
 800110a:	f8d6 9000 	ldr.w	r9, [r6]
 800110e:	f8d7 8000 	ldr.w	r8, [r7]
 8001112:	f8d9 2024 	ldr.w	r2, [r9, #36]	; 0x24
 8001116:	f8d8 3024 	ldr.w	r3, [r8, #36]	; 0x24
 800111a:	f8d9 1000 	ldr.w	r1, [r9]
 800111e:	06c9      	lsls	r1, r1, #27
 8001120:	d54a      	bpl.n	80011b8 <encoder_task+0xe8>
 8001122:	4295      	cmp	r5, r2
 8001124:	db43      	blt.n	80011ae <encoder_task+0xde>
 8001126:	1aad      	subs	r5, r5, r2
 8001128:	f8d8 2000 	ldr.w	r2, [r8]
 800112c:	06d2      	lsls	r2, r2, #27
 800112e:	d550      	bpl.n	80011d2 <encoder_task+0x102>
 8001130:	429c      	cmp	r4, r3
 8001132:	db49      	blt.n	80011c8 <encoder_task+0xf8>
 8001134:	1ae4      	subs	r4, r4, r3
 8001136:	4a2d      	ldr	r2, [pc, #180]	; (80011ec <encoder_task+0x11c>)
 8001138:	f8df a0c4 	ldr.w	sl, [pc, #196]	; 8001200 <encoder_task+0x130>
 800113c:	f44f 737a 	mov.w	r3, #1000	; 0x3e8
 8001140:	fbb3 f0f0 	udiv	r0, r3, r0
 8001144:	fb00 f305 	mul.w	r3, r0, r5
 8001148:	6013      	str	r3, [r2, #0]
 800114a:	4b29      	ldr	r3, [pc, #164]	; (80011f0 <encoder_task+0x120>)
 800114c:	4360      	muls	r0, r4
 800114e:	6018      	str	r0, [r3, #0]
 8001150:	4b28      	ldr	r3, [pc, #160]	; (80011f4 <encoder_task+0x124>)
 8001152:	e9db 0100 	ldrd	r0, r1, [fp]
 8001156:	e9d3 2300 	ldrd	r2, r3, [r3]
 800115a:	f7ff fb77 	bl	800084c <__aeabi_ddiv>
 800115e:	ec41 0b18 	vmov	d8, r0, r1
 8001162:	4628      	mov	r0, r5
 8001164:	f7ff f9de 	bl	8000524 <__aeabi_i2d>
 8001168:	ec53 2b18 	vmov	r2, r3, d8
 800116c:	f7ff fa44 	bl	80005f8 <__aeabi_dmul>
 8001170:	e9da 2300 	ldrd	r2, r3, [sl]
 8001174:	f7ff f88a 	bl	800028c <__adddf3>
 8001178:	4d1f      	ldr	r5, [pc, #124]	; (80011f8 <encoder_task+0x128>)
 800117a:	e9ca 0100 	strd	r0, r1, [sl]
 800117e:	4620      	mov	r0, r4
 8001180:	f7ff f9d0 	bl	8000524 <__aeabi_i2d>
 8001184:	ec53 2b18 	vmov	r2, r3, d8
 8001188:	f7ff fa36 	bl	80005f8 <__aeabi_dmul>
 800118c:	e9d5 2300 	ldrd	r2, r3, [r5]
 8001190:	f7ff f87c 	bl	800028c <__adddf3>
 8001194:	e9c5 0100 	strd	r0, r1, [r5]
 8001198:	f8d9 5024 	ldr.w	r5, [r9, #36]	; 0x24
 800119c:	f8d8 4024 	ldr.w	r4, [r8, #36]	; 0x24
 80011a0:	f001 fe9a 	bl	8002ed8 <HAL_GetTick>
 80011a4:	4680      	mov	r8, r0
 80011a6:	200a      	movs	r0, #10
 80011a8:	f004 f919 	bl	80053de <osDelay>
 80011ac:	e7a7      	b.n	80010fe <encoder_task+0x2e>
 80011ae:	f5c2 427f 	rsb	r2, r2, #65280	; 0xff00
 80011b2:	32ff      	adds	r2, #255	; 0xff
 80011b4:	4415      	add	r5, r2
 80011b6:	e7b7      	b.n	8001128 <encoder_task+0x58>
 80011b8:	4295      	cmp	r5, r2
 80011ba:	dc01      	bgt.n	80011c0 <encoder_task+0xf0>
 80011bc:	1b55      	subs	r5, r2, r5
 80011be:	e7b3      	b.n	8001128 <encoder_task+0x58>
 80011c0:	f5c5 457f 	rsb	r5, r5, #65280	; 0xff00
 80011c4:	35ff      	adds	r5, #255	; 0xff
 80011c6:	e7f5      	b.n	80011b4 <encoder_task+0xe4>
 80011c8:	f5c3 437f 	rsb	r3, r3, #65280	; 0xff00
 80011cc:	33ff      	adds	r3, #255	; 0xff
 80011ce:	441c      	add	r4, r3
 80011d0:	e7b1      	b.n	8001136 <encoder_task+0x66>
 80011d2:	429c      	cmp	r4, r3
 80011d4:	dc01      	bgt.n	80011da <encoder_task+0x10a>
 80011d6:	1b1c      	subs	r4, r3, r4
 80011d8:	e7ad      	b.n	8001136 <encoder_task+0x66>
 80011da:	f5c4 447f 	rsb	r4, r4, #65280	; 0xff00
 80011de:	34ff      	adds	r4, #255	; 0xff
 80011e0:	e7f5      	b.n	80011ce <encoder_task+0xfe>
 80011e2:	bf00      	nop
 80011e4:	20000808 	.word	0x20000808
 80011e8:	20000850 	.word	0x20000850
 80011ec:	200009b4 	.word	0x200009b4
 80011f0:	200009c8 	.word	0x200009c8
 80011f4:	20000010 	.word	0x20000010
 80011f8:	200006e0 	.word	0x200006e0
 80011fc:	20000008 	.word	0x20000008
 8001200:	20000248 	.word	0x20000248

08001204 <OLED_WR_Byte>:
 8001204:	b570      	push	{r4, r5, r6, lr}
 8001206:	460a      	mov	r2, r1
 8001208:	4604      	mov	r4, r0
 800120a:	b101      	cbz	r1, 800120e <OLED_WR_Byte+0xa>
 800120c:	2201      	movs	r2, #1
 800120e:	4813      	ldr	r0, [pc, #76]	; (800125c <OLED_WR_Byte+0x58>)
 8001210:	4e12      	ldr	r6, [pc, #72]	; (800125c <OLED_WR_Byte+0x58>)
 8001212:	f44f 7180 	mov.w	r1, #256	; 0x100
 8001216:	f002 f80f 	bl	8003238 <HAL_GPIO_WritePin>
 800121a:	2508      	movs	r5, #8
 800121c:	2200      	movs	r2, #0
 800121e:	2120      	movs	r1, #32
 8001220:	4630      	mov	r0, r6
 8001222:	f002 f809 	bl	8003238 <HAL_GPIO_WritePin>
 8001226:	0623      	lsls	r3, r4, #24
 8001228:	bf4c      	ite	mi
 800122a:	2201      	movmi	r2, #1
 800122c:	2200      	movpl	r2, #0
 800122e:	2140      	movs	r1, #64	; 0x40
 8001230:	4630      	mov	r0, r6
 8001232:	f002 f801 	bl	8003238 <HAL_GPIO_WritePin>
 8001236:	3d01      	subs	r5, #1
 8001238:	2201      	movs	r2, #1
 800123a:	2120      	movs	r1, #32
 800123c:	4630      	mov	r0, r6
 800123e:	f001 fffb 	bl	8003238 <HAL_GPIO_WritePin>
 8001242:	0064      	lsls	r4, r4, #1
 8001244:	f015 05ff 	ands.w	r5, r5, #255	; 0xff
 8001248:	b2e4      	uxtb	r4, r4
 800124a:	d1e7      	bne.n	800121c <OLED_WR_Byte+0x18>
 800124c:	e8bd 4070 	ldmia.w	sp!, {r4, r5, r6, lr}
 8001250:	4802      	ldr	r0, [pc, #8]	; (800125c <OLED_WR_Byte+0x58>)
 8001252:	2201      	movs	r2, #1
 8001254:	f44f 7180 	mov.w	r1, #256	; 0x100
 8001258:	f001 bfee 	b.w	8003238 <HAL_GPIO_WritePin>
 800125c:	40021000 	.word	0x40021000

08001260 <OLED_Refresh_Gram>:
 8001260:	b570      	push	{r4, r5, r6, lr}
 8001262:	4e0f      	ldr	r6, [pc, #60]	; (80012a0 <OLED_Refresh_Gram+0x40>)
 8001264:	24b0      	movs	r4, #176	; 0xb0
 8001266:	2100      	movs	r1, #0
 8001268:	4620      	mov	r0, r4
 800126a:	f7ff ffcb 	bl	8001204 <OLED_WR_Byte>
 800126e:	2100      	movs	r1, #0
 8001270:	4608      	mov	r0, r1
 8001272:	f7ff ffc7 	bl	8001204 <OLED_WR_Byte>
 8001276:	2100      	movs	r1, #0
 8001278:	2010      	movs	r0, #16
 800127a:	f7ff ffc3 	bl	8001204 <OLED_WR_Byte>
 800127e:	2500      	movs	r5, #0
 8001280:	f816 0035 	ldrb.w	r0, [r6, r5, lsl #3]
 8001284:	2101      	movs	r1, #1
 8001286:	3501      	adds	r5, #1
 8001288:	f7ff ffbc 	bl	8001204 <OLED_WR_Byte>
 800128c:	2d80      	cmp	r5, #128	; 0x80
 800128e:	d1f7      	bne.n	8001280 <OLED_Refresh_Gram+0x20>
 8001290:	3401      	adds	r4, #1
 8001292:	b2e4      	uxtb	r4, r4
 8001294:	2cb8      	cmp	r4, #184	; 0xb8
 8001296:	f106 0601 	add.w	r6, r6, #1
 800129a:	d1e4      	bne.n	8001266 <OLED_Refresh_Gram+0x6>
 800129c:	bd70      	pop	{r4, r5, r6, pc}
 800129e:	bf00      	nop
 80012a0:	20000254 	.word	0x20000254

080012a4 <OLED_Clear>:
 80012a4:	2300      	movs	r3, #0
 80012a6:	4808      	ldr	r0, [pc, #32]	; (80012c8 <OLED_Clear+0x24>)
 80012a8:	b410      	push	{r4}
 80012aa:	461c      	mov	r4, r3
 80012ac:	2200      	movs	r2, #0
 80012ae:	18c1      	adds	r1, r0, r3
 80012b0:	f801 4032 	strb.w	r4, [r1, r2, lsl #3]
 80012b4:	3201      	adds	r2, #1
 80012b6:	2a80      	cmp	r2, #128	; 0x80
 80012b8:	d1fa      	bne.n	80012b0 <OLED_Clear+0xc>
 80012ba:	3301      	adds	r3, #1
 80012bc:	2b08      	cmp	r3, #8
 80012be:	d1f5      	bne.n	80012ac <OLED_Clear+0x8>
 80012c0:	f85d 4b04 	ldr.w	r4, [sp], #4
 80012c4:	f7ff bfcc 	b.w	8001260 <OLED_Refresh_Gram>
 80012c8:	20000254 	.word	0x20000254

080012cc <OLED_DrawPoint>:
 80012cc:	0603      	lsls	r3, r0, #24
 80012ce:	b530      	push	{r4, r5, lr}
 80012d0:	d413      	bmi.n	80012fa <OLED_DrawPoint+0x2e>
 80012d2:	293f      	cmp	r1, #63	; 0x3f
 80012d4:	d811      	bhi.n	80012fa <OLED_DrawPoint+0x2e>
 80012d6:	f001 0507 	and.w	r5, r1, #7
 80012da:	4c0a      	ldr	r4, [pc, #40]	; (8001304 <OLED_DrawPoint+0x38>)
 80012dc:	08c9      	lsrs	r1, r1, #3
 80012de:	f1c1 0107 	rsb	r1, r1, #7
 80012e2:	b2c9      	uxtb	r1, r1
 80012e4:	eb04 00c0 	add.w	r0, r4, r0, lsl #3
 80012e8:	2301      	movs	r3, #1
 80012ea:	f1c5 0507 	rsb	r5, r5, #7
 80012ee:	fa03 f505 	lsl.w	r5, r3, r5
 80012f2:	5c43      	ldrb	r3, [r0, r1]
 80012f4:	b112      	cbz	r2, 80012fc <OLED_DrawPoint+0x30>
 80012f6:	432b      	orrs	r3, r5
 80012f8:	5443      	strb	r3, [r0, r1]
 80012fa:	bd30      	pop	{r4, r5, pc}
 80012fc:	ea23 0305 	bic.w	r3, r3, r5
 8001300:	e7fa      	b.n	80012f8 <OLED_DrawPoint+0x2c>
 8001302:	bf00      	nop
 8001304:	20000254 	.word	0x20000254

08001308 <OLED_ShowChar>:
 8001308:	e92d 4ff7 	stmdb	sp!, {r0, r1, r2, r4, r5, r6, r7, r8, r9, sl, fp, lr}
 800130c:	461f      	mov	r7, r3
 800130e:	f1a2 0a20 	sub.w	sl, r2, #32
 8001312:	4b1f      	ldr	r3, [pc, #124]	; (8001390 <OLED_ShowChar+0x88>)
 8001314:	f89d b030 	ldrb.w	fp, [sp, #48]	; 0x30
 8001318:	fa5f fa8a 	uxtb.w	sl, sl
 800131c:	eb03 130a 	add.w	r3, r3, sl, lsl #4
 8001320:	9300      	str	r3, [sp, #0]
 8001322:	4b1c      	ldr	r3, [pc, #112]	; (8001394 <OLED_ShowChar+0x8c>)
 8001324:	eb0a 0a4a 	add.w	sl, sl, sl, lsl #1
 8001328:	eb03 038a 	add.w	r3, r3, sl, lsl #2
 800132c:	4681      	mov	r9, r0
 800132e:	4688      	mov	r8, r1
 8001330:	9301      	str	r3, [sp, #4]
 8001332:	460c      	mov	r4, r1
 8001334:	2600      	movs	r6, #0
 8001336:	42b7      	cmp	r7, r6
 8001338:	d102      	bne.n	8001340 <OLED_ShowChar+0x38>
 800133a:	b003      	add	sp, #12
 800133c:	e8bd 8ff0 	ldmia.w	sp!, {r4, r5, r6, r7, r8, r9, sl, fp, pc}
 8001340:	2f0c      	cmp	r7, #12
 8001342:	bf0c      	ite	eq
 8001344:	9b01      	ldreq	r3, [sp, #4]
 8001346:	9b00      	ldrne	r3, [sp, #0]
 8001348:	5d9d      	ldrb	r5, [r3, r6]
 800134a:	f104 0308 	add.w	r3, r4, #8
 800134e:	fa5f fa83 	uxtb.w	sl, r3
 8001352:	062b      	lsls	r3, r5, #24
 8001354:	bf58      	it	pl
 8001356:	fabb f28b 	clzpl	r2, fp
 800135a:	4621      	mov	r1, r4
 800135c:	f104 0401 	add.w	r4, r4, #1
 8001360:	bf4c      	ite	mi
 8001362:	465a      	movmi	r2, fp
 8001364:	0952      	lsrpl	r2, r2, #5
 8001366:	4648      	mov	r0, r9
 8001368:	b2e4      	uxtb	r4, r4
 800136a:	f7ff ffaf 	bl	80012cc <OLED_DrawPoint>
 800136e:	eba4 0208 	sub.w	r2, r4, r8
 8001372:	006d      	lsls	r5, r5, #1
 8001374:	42ba      	cmp	r2, r7
 8001376:	b2ed      	uxtb	r5, r5
 8001378:	d107      	bne.n	800138a <OLED_ShowChar+0x82>
 800137a:	f109 0001 	add.w	r0, r9, #1
 800137e:	fa5f f980 	uxtb.w	r9, r0
 8001382:	46c2      	mov	sl, r8
 8001384:	3601      	adds	r6, #1
 8001386:	4654      	mov	r4, sl
 8001388:	e7d5      	b.n	8001336 <OLED_ShowChar+0x2e>
 800138a:	45a2      	cmp	sl, r4
 800138c:	d1e1      	bne.n	8001352 <OLED_ShowChar+0x4a>
 800138e:	e7f9      	b.n	8001384 <OLED_ShowChar+0x7c>
 8001390:	0800a3e4 	.word	0x0800a3e4
 8001394:	08009f70 	.word	0x08009f70

08001398 <OLED_ShowString>:
 8001398:	b5f7      	push	{r0, r1, r2, r4, r5, r6, r7, lr}
 800139a:	4604      	mov	r4, r0
 800139c:	460d      	mov	r5, r1
 800139e:	1e56      	subs	r6, r2, #1
 80013a0:	2701      	movs	r7, #1
 80013a2:	f816 3f01 	ldrb.w	r3, [r6, #1]!
 80013a6:	b90b      	cbnz	r3, 80013ac <OLED_ShowString+0x14>
 80013a8:	b003      	add	sp, #12
 80013aa:	bdf0      	pop	{r4, r5, r6, r7, pc}
 80013ac:	2c7a      	cmp	r4, #122	; 0x7a
 80013ae:	bf82      	ittt	hi
 80013b0:	3510      	addhi	r5, #16
 80013b2:	b2ed      	uxtbhi	r5, r5
 80013b4:	2400      	movhi	r4, #0
 80013b6:	2d3a      	cmp	r5, #58	; 0x3a
 80013b8:	d903      	bls.n	80013c2 <OLED_ShowString+0x2a>
 80013ba:	f7ff ff73 	bl	80012a4 <OLED_Clear>
 80013be:	2500      	movs	r5, #0
 80013c0:	462c      	mov	r4, r5
 80013c2:	9700      	str	r7, [sp, #0]
 80013c4:	4620      	mov	r0, r4
 80013c6:	7832      	ldrb	r2, [r6, #0]
 80013c8:	230c      	movs	r3, #12
 80013ca:	4629      	mov	r1, r5
 80013cc:	3408      	adds	r4, #8
 80013ce:	f7ff ff9b 	bl	8001308 <OLED_ShowChar>
 80013d2:	b2e4      	uxtb	r4, r4
 80013d4:	e7e5      	b.n	80013a2 <OLED_ShowString+0xa>
	...

080013d8 <show>:
 80013d8:	b508      	push	{r3, lr}
 80013da:	4d17      	ldr	r5, [pc, #92]	; (8001438 <show+0x60>)
 80013dc:	4c17      	ldr	r4, [pc, #92]	; (800143c <show+0x64>)
 80013de:	682a      	ldr	r2, [r5, #0]
 80013e0:	4917      	ldr	r1, [pc, #92]	; (8001440 <show+0x68>)
 80013e2:	4818      	ldr	r0, [pc, #96]	; (8001444 <show+0x6c>)
 80013e4:	f006 f9aa 	bl	800773c <siprintf>
 80013e8:	4b17      	ldr	r3, [pc, #92]	; (8001448 <show+0x70>)
 80013ea:	4918      	ldr	r1, [pc, #96]	; (800144c <show+0x74>)
 80013ec:	681a      	ldr	r2, [r3, #0]
 80013ee:	4818      	ldr	r0, [pc, #96]	; (8001450 <show+0x78>)
 80013f0:	f006 f9a4 	bl	800773c <siprintf>
 80013f4:	4b17      	ldr	r3, [pc, #92]	; (8001454 <show+0x7c>)
 80013f6:	e9d3 0100 	ldrd	r0, r1, [r3]
 80013fa:	f7ff fbad 	bl	8000b58 <__aeabi_d2iz>
 80013fe:	4916      	ldr	r1, [pc, #88]	; (8001458 <show+0x80>)
 8001400:	4602      	mov	r2, r0
 8001402:	4620      	mov	r0, r4
 8001404:	f006 f99a 	bl	800773c <siprintf>
 8001408:	4a14      	ldr	r2, [pc, #80]	; (800145c <show+0x84>)
 800140a:	2100      	movs	r1, #0
 800140c:	200a      	movs	r0, #10
 800140e:	f7ff ffc3 	bl	8001398 <OLED_ShowString>
 8001412:	4b13      	ldr	r3, [pc, #76]	; (8001460 <show+0x88>)
 8001414:	2114      	movs	r1, #20
 8001416:	681a      	ldr	r2, [r3, #0]
 8001418:	200a      	movs	r0, #10
 800141a:	f7ff ffbd 	bl	8001398 <OLED_ShowString>
 800141e:	4622      	mov	r2, r4
 8001420:	211e      	movs	r1, #30
 8001422:	200a      	movs	r0, #10
 8001424:	f7ff ffb8 	bl	8001398 <OLED_ShowString>
 8001428:	4a0e      	ldr	r2, [pc, #56]	; (8001464 <show+0x8c>)
 800142a:	2128      	movs	r1, #40	; 0x28
 800142c:	200a      	movs	r0, #10
 800142e:	f7ff ffb3 	bl	8001398 <OLED_ShowString>
 8001432:	f7ff ff15 	bl	8001260 <OLED_Refresh_Gram>
 8001436:	e7d2      	b.n	80013de <show+0x6>
 8001438:	200006d4 	.word	0x200006d4
 800143c:	20000690 	.word	0x20000690
 8001440:	08009e08 	.word	0x08009e08
 8001444:	20000668 	.word	0x20000668
 8001448:	200006d8 	.word	0x200006d8
 800144c:	08009e14 	.word	0x08009e14
 8001450:	2000067c 	.word	0x2000067c
 8001454:	200006f8 	.word	0x200006f8
 8001458:	08009e20 	.word	0x08009e20
 800145c:	20000654 	.word	0x20000654
 8001460:	20000a10 	.word	0x20000a10
 8001464:	200006a4 	.word	0x200006a4

08001468 <OLED_Init>:
 8001468:	b510      	push	{r4, lr}
 800146a:	f002 fadd 	bl	8003a28 <HAL_PWR_EnableBkUpAccess>
 800146e:	4b40      	ldr	r3, [pc, #256]	; (8001570 <OLED_Init+0x108>)
 8001470:	4c40      	ldr	r4, [pc, #256]	; (8001574 <OLED_Init+0x10c>)
 8001472:	6f1a      	ldr	r2, [r3, #112]	; 0x70
 8001474:	f022 0201 	bic.w	r2, r2, #1
 8001478:	671a      	str	r2, [r3, #112]	; 0x70
 800147a:	6f1a      	ldr	r2, [r3, #112]	; 0x70
 800147c:	f022 0204 	bic.w	r2, r2, #4
 8001480:	671a      	str	r2, [r3, #112]	; 0x70
 8001482:	f002 fadf 	bl	8003a44 <HAL_PWR_DisableBkUpAccess>
 8001486:	2200      	movs	r2, #0
 8001488:	2180      	movs	r1, #128	; 0x80
 800148a:	4620      	mov	r0, r4
 800148c:	f001 fed4 	bl	8003238 <HAL_GPIO_WritePin>
 8001490:	2064      	movs	r0, #100	; 0x64
 8001492:	f001 fd27 	bl	8002ee4 <HAL_Delay>
 8001496:	2201      	movs	r2, #1
 8001498:	4620      	mov	r0, r4
 800149a:	2180      	movs	r1, #128	; 0x80
 800149c:	f001 fecc 	bl	8003238 <HAL_GPIO_WritePin>
 80014a0:	2100      	movs	r1, #0
 80014a2:	20ae      	movs	r0, #174	; 0xae
 80014a4:	f7ff feae 	bl	8001204 <OLED_WR_Byte>
 80014a8:	2100      	movs	r1, #0
 80014aa:	20d5      	movs	r0, #213	; 0xd5
 80014ac:	f7ff feaa 	bl	8001204 <OLED_WR_Byte>
 80014b0:	2100      	movs	r1, #0
 80014b2:	2050      	movs	r0, #80	; 0x50
 80014b4:	f7ff fea6 	bl	8001204 <OLED_WR_Byte>
 80014b8:	2100      	movs	r1, #0
 80014ba:	20a8      	movs	r0, #168	; 0xa8
 80014bc:	f7ff fea2 	bl	8001204 <OLED_WR_Byte>
 80014c0:	2100      	movs	r1, #0
 80014c2:	203f      	movs	r0, #63	; 0x3f
 80014c4:	f7ff fe9e 	bl	8001204 <OLED_WR_Byte>
 80014c8:	2100      	movs	r1, #0
 80014ca:	20d3      	movs	r0, #211	; 0xd3
 80014cc:	f7ff fe9a 	bl	8001204 <OLED_WR_Byte>
 80014d0:	2100      	movs	r1, #0
 80014d2:	4608      	mov	r0, r1
 80014d4:	f7ff fe96 	bl	8001204 <OLED_WR_Byte>
 80014d8:	2100      	movs	r1, #0
 80014da:	2040      	movs	r0, #64	; 0x40
 80014dc:	f7ff fe92 	bl	8001204 <OLED_WR_Byte>
 80014e0:	2100      	movs	r1, #0
 80014e2:	208d      	movs	r0, #141	; 0x8d
 80014e4:	f7ff fe8e 	bl	8001204 <OLED_WR_Byte>
 80014e8:	2100      	movs	r1, #0
 80014ea:	2014      	movs	r0, #20
 80014ec:	f7ff fe8a 	bl	8001204 <OLED_WR_Byte>
 80014f0:	2100      	movs	r1, #0
 80014f2:	2020      	movs	r0, #32
 80014f4:	f7ff fe86 	bl	8001204 <OLED_WR_Byte>
 80014f8:	2100      	movs	r1, #0
 80014fa:	2002      	movs	r0, #2
 80014fc:	f7ff fe82 	bl	8001204 <OLED_WR_Byte>
 8001500:	2100      	movs	r1, #0
 8001502:	20a1      	movs	r0, #161	; 0xa1
 8001504:	f7ff fe7e 	bl	8001204 <OLED_WR_Byte>
 8001508:	2100      	movs	r1, #0
 800150a:	20c0      	movs	r0, #192	; 0xc0
 800150c:	f7ff fe7a 	bl	8001204 <OLED_WR_Byte>
 8001510:	2100      	movs	r1, #0
 8001512:	20da      	movs	r0, #218	; 0xda
 8001514:	f7ff fe76 	bl	8001204 <OLED_WR_Byte>
 8001518:	2100      	movs	r1, #0
 800151a:	2012      	movs	r0, #18
 800151c:	f7ff fe72 	bl	8001204 <OLED_WR_Byte>
 8001520:	2100      	movs	r1, #0
 8001522:	2081      	movs	r0, #129	; 0x81
 8001524:	f7ff fe6e 	bl	8001204 <OLED_WR_Byte>
 8001528:	2100      	movs	r1, #0
 800152a:	20ef      	movs	r0, #239	; 0xef
 800152c:	f7ff fe6a 	bl	8001204 <OLED_WR_Byte>
 8001530:	2100      	movs	r1, #0
 8001532:	20d9      	movs	r0, #217	; 0xd9
 8001534:	f7ff fe66 	bl	8001204 <OLED_WR_Byte>
 8001538:	2100      	movs	r1, #0
 800153a:	20f1      	movs	r0, #241	; 0xf1
 800153c:	f7ff fe62 	bl	8001204 <OLED_WR_Byte>
 8001540:	2100      	movs	r1, #0
 8001542:	20db      	movs	r0, #219	; 0xdb
 8001544:	f7ff fe5e 	bl	8001204 <OLED_WR_Byte>
 8001548:	2100      	movs	r1, #0
 800154a:	2030      	movs	r0, #48	; 0x30
 800154c:	f7ff fe5a 	bl	8001204 <OLED_WR_Byte>
 8001550:	2100      	movs	r1, #0
 8001552:	20a4      	movs	r0, #164	; 0xa4
 8001554:	f7ff fe56 	bl	8001204 <OLED_WR_Byte>
 8001558:	2100      	movs	r1, #0
 800155a:	20a6      	movs	r0, #166	; 0xa6
 800155c:	f7ff fe52 	bl	8001204 <OLED_WR_Byte>
 8001560:	2100      	movs	r1, #0
 8001562:	20af      	movs	r0, #175	; 0xaf
 8001564:	f7ff fe4e 	bl	8001204 <OLED_WR_Byte>
 8001568:	e8bd 4010 	ldmia.w	sp!, {r4, lr}
 800156c:	f7ff be9a 	b.w	80012a4 <OLED_Clear>
 8001570:	40023800 	.word	0x40023800
 8001574:	40021000 	.word	0x40021000

08001578 <SystemClock_Config>:
 8001578:	b500      	push	{lr}
 800157a:	b095      	sub	sp, #84	; 0x54
 800157c:	222c      	movs	r2, #44	; 0x2c
 800157e:	2100      	movs	r1, #0
 8001580:	a809      	add	r0, sp, #36	; 0x24
 8001582:	f005 fc69 	bl	8006e58 <memset>
 8001586:	2214      	movs	r2, #20
 8001588:	2100      	movs	r1, #0
 800158a:	a803      	add	r0, sp, #12
 800158c:	f005 fc64 	bl	8006e58 <memset>
 8001590:	2300      	movs	r3, #0
 8001592:	4a19      	ldr	r2, [pc, #100]	; (80015f8 <SystemClock_Config+0x80>)
 8001594:	9301      	str	r3, [sp, #4]
 8001596:	6c11      	ldr	r1, [r2, #64]	; 0x40
 8001598:	f041 5180 	orr.w	r1, r1, #268435456	; 0x10000000
 800159c:	6411      	str	r1, [r2, #64]	; 0x40
 800159e:	6c12      	ldr	r2, [r2, #64]	; 0x40
 80015a0:	f002 5280 	and.w	r2, r2, #268435456	; 0x10000000
 80015a4:	9201      	str	r2, [sp, #4]
 80015a6:	9a01      	ldr	r2, [sp, #4]
 80015a8:	4a14      	ldr	r2, [pc, #80]	; (80015fc <SystemClock_Config+0x84>)
 80015aa:	9302      	str	r3, [sp, #8]
 80015ac:	6811      	ldr	r1, [r2, #0]
 80015ae:	f441 4180 	orr.w	r1, r1, #16384	; 0x4000
 80015b2:	6011      	str	r1, [r2, #0]
 80015b4:	6812      	ldr	r2, [r2, #0]
 80015b6:	930e      	str	r3, [sp, #56]	; 0x38
 80015b8:	f402 4280 	and.w	r2, r2, #16384	; 0x4000
 80015bc:	9202      	str	r2, [sp, #8]
 80015be:	9a02      	ldr	r2, [sp, #8]
 80015c0:	2202      	movs	r2, #2
 80015c2:	9208      	str	r2, [sp, #32]
 80015c4:	2001      	movs	r0, #1
 80015c6:	2210      	movs	r2, #16
 80015c8:	e9cd 020b 	strd	r0, r2, [sp, #44]	; 0x2c
 80015cc:	a808      	add	r0, sp, #32
 80015ce:	f002 fa47 	bl	8003a60 <HAL_RCC_OscConfig>
 80015d2:	4601      	mov	r1, r0
 80015d4:	b108      	cbz	r0, 80015da <SystemClock_Config+0x62>
 80015d6:	b672      	cpsid	i
 80015d8:	e7fe      	b.n	80015d8 <SystemClock_Config+0x60>
 80015da:	230f      	movs	r3, #15
 80015dc:	e9cd 3003 	strd	r3, r0, [sp, #12]
 80015e0:	e9cd 0005 	strd	r0, r0, [sp, #20]
 80015e4:	9007      	str	r0, [sp, #28]
 80015e6:	a803      	add	r0, sp, #12
 80015e8:	f002 fc18 	bl	8003e1c <HAL_RCC_ClockConfig>
 80015ec:	b108      	cbz	r0, 80015f2 <SystemClock_Config+0x7a>
 80015ee:	b672      	cpsid	i
 80015f0:	e7fe      	b.n	80015f0 <SystemClock_Config+0x78>
 80015f2:	b015      	add	sp, #84	; 0x54
 80015f4:	f85d fb04 	ldr.w	pc, [sp], #4
 80015f8:	40023800 	.word	0x40023800
 80015fc:	40007000 	.word	0x40007000

08001600 <main>:
 8001600:	b500      	push	{lr}
 8001602:	b09d      	sub	sp, #116	; 0x74
 8001604:	f001 fc42 	bl	8002e8c <HAL_Init>
 8001608:	f7ff ffb6 	bl	8001578 <SystemClock_Config>
 800160c:	2214      	movs	r2, #20
 800160e:	2100      	movs	r1, #0
 8001610:	a813      	add	r0, sp, #76	; 0x4c
 8001612:	f005 fc21 	bl	8006e58 <memset>
 8001616:	2400      	movs	r4, #0
 8001618:	4ba3      	ldr	r3, [pc, #652]	; (80018a8 <main+0x2a8>)
 800161a:	9400      	str	r4, [sp, #0]
 800161c:	6b1a      	ldr	r2, [r3, #48]	; 0x30
 800161e:	48a3      	ldr	r0, [pc, #652]	; (80018ac <main+0x2ac>)
 8001620:	4da3      	ldr	r5, [pc, #652]	; (80018b0 <main+0x2b0>)
 8001622:	f042 0210 	orr.w	r2, r2, #16
 8001626:	631a      	str	r2, [r3, #48]	; 0x30
 8001628:	6b1a      	ldr	r2, [r3, #48]	; 0x30
 800162a:	f002 0210 	and.w	r2, r2, #16
 800162e:	9200      	str	r2, [sp, #0]
 8001630:	9a00      	ldr	r2, [sp, #0]
 8001632:	9401      	str	r4, [sp, #4]
 8001634:	6b1a      	ldr	r2, [r3, #48]	; 0x30
 8001636:	f042 0280 	orr.w	r2, r2, #128	; 0x80
 800163a:	631a      	str	r2, [r3, #48]	; 0x30
 800163c:	6b1a      	ldr	r2, [r3, #48]	; 0x30
 800163e:	f002 0280 	and.w	r2, r2, #128	; 0x80
 8001642:	9201      	str	r2, [sp, #4]
 8001644:	9a01      	ldr	r2, [sp, #4]
 8001646:	9402      	str	r4, [sp, #8]
 8001648:	6b1a      	ldr	r2, [r3, #48]	; 0x30
 800164a:	f042 0201 	orr.w	r2, r2, #1
 800164e:	631a      	str	r2, [r3, #48]	; 0x30
 8001650:	6b1a      	ldr	r2, [r3, #48]	; 0x30
 8001652:	f002 0201 	and.w	r2, r2, #1
 8001656:	9202      	str	r2, [sp, #8]
 8001658:	9a02      	ldr	r2, [sp, #8]
 800165a:	9403      	str	r4, [sp, #12]
 800165c:	6b1a      	ldr	r2, [r3, #48]	; 0x30
 800165e:	f042 0208 	orr.w	r2, r2, #8
 8001662:	631a      	str	r2, [r3, #48]	; 0x30
 8001664:	6b1a      	ldr	r2, [r3, #48]	; 0x30
 8001666:	f002 0208 	and.w	r2, r2, #8
 800166a:	9203      	str	r2, [sp, #12]
 800166c:	9a03      	ldr	r2, [sp, #12]
 800166e:	9404      	str	r4, [sp, #16]
 8001670:	6b1a      	ldr	r2, [r3, #48]	; 0x30
 8001672:	f042 0204 	orr.w	r2, r2, #4
 8001676:	631a      	str	r2, [r3, #48]	; 0x30
 8001678:	6b1a      	ldr	r2, [r3, #48]	; 0x30
 800167a:	f002 0204 	and.w	r2, r2, #4
 800167e:	9204      	str	r2, [sp, #16]
 8001680:	9a04      	ldr	r2, [sp, #16]
 8001682:	9405      	str	r4, [sp, #20]
 8001684:	6b1a      	ldr	r2, [r3, #48]	; 0x30
 8001686:	f042 0202 	orr.w	r2, r2, #2
 800168a:	631a      	str	r2, [r3, #48]	; 0x30
 800168c:	6b1b      	ldr	r3, [r3, #48]	; 0x30
 800168e:	f003 0302 	and.w	r3, r3, #2
 8001692:	9305      	str	r3, [sp, #20]
 8001694:	4622      	mov	r2, r4
 8001696:	f44f 615e 	mov.w	r1, #3552	; 0xde0
 800169a:	9b05      	ldr	r3, [sp, #20]
 800169c:	f001 fdcc 	bl	8003238 <HAL_GPIO_WritePin>
 80016a0:	4622      	mov	r2, r4
 80016a2:	4884      	ldr	r0, [pc, #528]	; (80018b4 <main+0x2b4>)
 80016a4:	213c      	movs	r1, #60	; 0x3c
 80016a6:	f001 fdc7 	bl	8003238 <HAL_GPIO_WritePin>
 80016aa:	2601      	movs	r6, #1
 80016ac:	f44f 635e 	mov.w	r3, #3552	; 0xde0
 80016b0:	487e      	ldr	r0, [pc, #504]	; (80018ac <main+0x2ac>)
 80016b2:	a913      	add	r1, sp, #76	; 0x4c
 80016b4:	e9cd 3613 	strd	r3, r6, [sp, #76]	; 0x4c
 80016b8:	e9cd 4415 	strd	r4, r4, [sp, #84]	; 0x54
 80016bc:	f001 fce2 	bl	8003084 <HAL_GPIO_Init>
 80016c0:	233c      	movs	r3, #60	; 0x3c
 80016c2:	e9cd 3613 	strd	r3, r6, [sp, #76]	; 0x4c
 80016c6:	487b      	ldr	r0, [pc, #492]	; (80018b4 <main+0x2b4>)
 80016c8:	9415      	str	r4, [sp, #84]	; 0x54
 80016ca:	2302      	movs	r3, #2
 80016cc:	a913      	add	r1, sp, #76	; 0x4c
 80016ce:	9316      	str	r3, [sp, #88]	; 0x58
 80016d0:	f001 fcd8 	bl	8003084 <HAL_GPIO_Init>
 80016d4:	2210      	movs	r2, #16
 80016d6:	4621      	mov	r1, r4
 80016d8:	a808      	add	r0, sp, #32
 80016da:	f005 fbbd 	bl	8006e58 <memset>
 80016de:	221c      	movs	r2, #28
 80016e0:	4621      	mov	r1, r4
 80016e2:	a80c      	add	r0, sp, #48	; 0x30
 80016e4:	e9cd 4406 	strd	r4, r4, [sp, #24]
 80016e8:	f005 fbb6 	bl	8006e58 <memset>
 80016ec:	2220      	movs	r2, #32
 80016ee:	4621      	mov	r1, r4
 80016f0:	a813      	add	r0, sp, #76	; 0x4c
 80016f2:	f005 fbb1 	bl	8006e58 <memset>
 80016f6:	4b70      	ldr	r3, [pc, #448]	; (80018b8 <main+0x2b8>)
 80016f8:	60ac      	str	r4, [r5, #8]
 80016fa:	e9c5 3400 	strd	r3, r4, [r5]
 80016fe:	4628      	mov	r0, r5
 8001700:	f641 431f 	movw	r3, #7199	; 0x1c1f
 8001704:	e9c5 3403 	strd	r3, r4, [r5, #12]
 8001708:	e9c5 4405 	strd	r4, r4, [r5, #20]
 800170c:	f002 fe86 	bl	800441c <HAL_TIM_Base_Init>
 8001710:	b108      	cbz	r0, 8001716 <main+0x116>
 8001712:	b672      	cpsid	i
 8001714:	e7fe      	b.n	8001714 <main+0x114>
 8001716:	f44f 5380 	mov.w	r3, #4096	; 0x1000
 800171a:	a908      	add	r1, sp, #32
 800171c:	4628      	mov	r0, r5
 800171e:	9308      	str	r3, [sp, #32]
 8001720:	f003 f8bf 	bl	80048a2 <HAL_TIM_ConfigClockSource>
 8001724:	b108      	cbz	r0, 800172a <main+0x12a>
 8001726:	b672      	cpsid	i
 8001728:	e7fe      	b.n	8001728 <main+0x128>
 800172a:	4628      	mov	r0, r5
 800172c:	f002 fea2 	bl	8004474 <HAL_TIM_PWM_Init>
 8001730:	b108      	cbz	r0, 8001736 <main+0x136>
 8001732:	b672      	cpsid	i
 8001734:	e7fe      	b.n	8001734 <main+0x134>
 8001736:	e9cd 0006 	strd	r0, r0, [sp, #24]
 800173a:	a906      	add	r1, sp, #24
 800173c:	4628      	mov	r0, r5
 800173e:	f003 fa49 	bl	8004bd4 <HAL_TIMEx_MasterConfigSynchronization>
 8001742:	4602      	mov	r2, r0
 8001744:	b108      	cbz	r0, 800174a <main+0x14a>
 8001746:	b672      	cpsid	i
 8001748:	e7fe      	b.n	8001748 <main+0x148>
 800174a:	2360      	movs	r3, #96	; 0x60
 800174c:	e9cd 300c 	strd	r3, r0, [sp, #48]	; 0x30
 8001750:	e9cd 000e 	strd	r0, r0, [sp, #56]	; 0x38
 8001754:	e9cd 0010 	strd	r0, r0, [sp, #64]	; 0x40
 8001758:	9012      	str	r0, [sp, #72]	; 0x48
 800175a:	a90c      	add	r1, sp, #48	; 0x30
 800175c:	4628      	mov	r0, r5
 800175e:	f002 ff6d 	bl	800463c <HAL_TIM_PWM_ConfigChannel>
 8001762:	b108      	cbz	r0, 8001768 <main+0x168>
 8001764:	b672      	cpsid	i
 8001766:	e7fe      	b.n	8001766 <main+0x166>
 8001768:	2204      	movs	r2, #4
 800176a:	a90c      	add	r1, sp, #48	; 0x30
 800176c:	4628      	mov	r0, r5
 800176e:	f002 ff65 	bl	800463c <HAL_TIM_PWM_ConfigChannel>
 8001772:	b108      	cbz	r0, 8001778 <main+0x178>
 8001774:	b672      	cpsid	i
 8001776:	e7fe      	b.n	8001776 <main+0x176>
 8001778:	e9cd 0013 	strd	r0, r0, [sp, #76]	; 0x4c
 800177c:	e9cd 0015 	strd	r0, r0, [sp, #84]	; 0x54
 8001780:	9017      	str	r0, [sp, #92]	; 0x5c
 8001782:	f44f 5300 	mov.w	r3, #8192	; 0x2000
 8001786:	901a      	str	r0, [sp, #104]	; 0x68
 8001788:	a913      	add	r1, sp, #76	; 0x4c
 800178a:	4628      	mov	r0, r5
 800178c:	9318      	str	r3, [sp, #96]	; 0x60
 800178e:	f003 fa5f 	bl	8004c50 <HAL_TIMEx_ConfigBreakDeadTime>
 8001792:	4604      	mov	r4, r0
 8001794:	b108      	cbz	r0, 800179a <main+0x19a>
 8001796:	b672      	cpsid	i
 8001798:	e7fe      	b.n	8001798 <main+0x198>
 800179a:	4d48      	ldr	r5, [pc, #288]	; (80018bc <main+0x2bc>)
 800179c:	4601      	mov	r1, r0
 800179e:	221c      	movs	r2, #28
 80017a0:	a814      	add	r0, sp, #80	; 0x50
 80017a2:	f005 fb59 	bl	8006e58 <memset>
 80017a6:	f04f 4380 	mov.w	r3, #1073741824	; 0x40000000
 80017aa:	e9c5 3400 	strd	r3, r4, [r5]
 80017ae:	f64f 73ff 	movw	r3, #65535	; 0xffff
 80017b2:	e9c5 3403 	strd	r3, r4, [r5, #12]
 80017b6:	2303      	movs	r3, #3
 80017b8:	9313      	str	r3, [sp, #76]	; 0x4c
 80017ba:	a913      	add	r1, sp, #76	; 0x4c
 80017bc:	230a      	movs	r3, #10
 80017be:	4628      	mov	r0, r5
 80017c0:	e9cd 440c 	strd	r4, r4, [sp, #48]	; 0x30
 80017c4:	60ac      	str	r4, [r5, #8]
 80017c6:	61ac      	str	r4, [r5, #24]
 80017c8:	9615      	str	r6, [sp, #84]	; 0x54
 80017ca:	9317      	str	r3, [sp, #92]	; 0x5c
 80017cc:	9619      	str	r6, [sp, #100]	; 0x64
 80017ce:	931b      	str	r3, [sp, #108]	; 0x6c
 80017d0:	f002 fea8 	bl	8004524 <HAL_TIM_Encoder_Init>
 80017d4:	b108      	cbz	r0, 80017da <main+0x1da>
 80017d6:	b672      	cpsid	i
 80017d8:	e7fe      	b.n	80017d8 <main+0x1d8>
 80017da:	e9cd 000c 	strd	r0, r0, [sp, #48]	; 0x30
 80017de:	a90c      	add	r1, sp, #48	; 0x30
 80017e0:	4628      	mov	r0, r5
 80017e2:	f003 f9f7 	bl	8004bd4 <HAL_TIMEx_MasterConfigSynchronization>
 80017e6:	4604      	mov	r4, r0
 80017e8:	b108      	cbz	r0, 80017ee <main+0x1ee>
 80017ea:	b672      	cpsid	i
 80017ec:	e7fe      	b.n	80017ec <main+0x1ec>
 80017ee:	4601      	mov	r1, r0
 80017f0:	2210      	movs	r2, #16
 80017f2:	a808      	add	r0, sp, #32
 80017f4:	f005 fb30 	bl	8006e58 <memset>
 80017f8:	221c      	movs	r2, #28
 80017fa:	4621      	mov	r1, r4
 80017fc:	a80c      	add	r0, sp, #48	; 0x30
 80017fe:	e9cd 4406 	strd	r4, r4, [sp, #24]
 8001802:	f005 fb29 	bl	8006e58 <memset>
 8001806:	2220      	movs	r2, #32
 8001808:	4621      	mov	r1, r4
 800180a:	a813      	add	r0, sp, #76	; 0x4c
 800180c:	f005 fb24 	bl	8006e58 <memset>
 8001810:	482b      	ldr	r0, [pc, #172]	; (80018c0 <main+0x2c0>)
 8001812:	f8df c0b0 	ldr.w	ip, [pc, #176]	; 80018c4 <main+0x2c4>
 8001816:	6084      	str	r4, [r0, #8]
 8001818:	23a0      	movs	r3, #160	; 0xa0
 800181a:	e9c0 c300 	strd	ip, r3, [r0]
 800181e:	f44f 737a 	mov.w	r3, #1000	; 0x3e8
 8001822:	e9c0 3403 	strd	r3, r4, [r0, #12]
 8001826:	2380      	movs	r3, #128	; 0x80
 8001828:	6144      	str	r4, [r0, #20]
 800182a:	6183      	str	r3, [r0, #24]
 800182c:	f002 fdf6 	bl	800441c <HAL_TIM_Base_Init>
 8001830:	b108      	cbz	r0, 8001836 <main+0x236>
 8001832:	b672      	cpsid	i
 8001834:	e7fe      	b.n	8001834 <main+0x234>
 8001836:	f44f 5380 	mov.w	r3, #4096	; 0x1000
 800183a:	4821      	ldr	r0, [pc, #132]	; (80018c0 <main+0x2c0>)
 800183c:	9308      	str	r3, [sp, #32]
 800183e:	a908      	add	r1, sp, #32
 8001840:	f003 f82f 	bl	80048a2 <HAL_TIM_ConfigClockSource>
 8001844:	b108      	cbz	r0, 800184a <main+0x24a>
 8001846:	b672      	cpsid	i
 8001848:	e7fe      	b.n	8001848 <main+0x248>
 800184a:	481d      	ldr	r0, [pc, #116]	; (80018c0 <main+0x2c0>)
 800184c:	f002 fe12 	bl	8004474 <HAL_TIM_PWM_Init>
 8001850:	b108      	cbz	r0, 8001856 <main+0x256>
 8001852:	b672      	cpsid	i
 8001854:	e7fe      	b.n	8001854 <main+0x254>
 8001856:	e9cd 0006 	strd	r0, r0, [sp, #24]
 800185a:	a906      	add	r1, sp, #24
 800185c:	4818      	ldr	r0, [pc, #96]	; (80018c0 <main+0x2c0>)
 800185e:	f003 f9b9 	bl	8004bd4 <HAL_TIMEx_MasterConfigSynchronization>
 8001862:	b108      	cbz	r0, 8001868 <main+0x268>
 8001864:	b672      	cpsid	i
 8001866:	e7fe      	b.n	8001866 <main+0x266>
 8001868:	2360      	movs	r3, #96	; 0x60
 800186a:	e9cd 300c 	strd	r3, r0, [sp, #48]	; 0x30
 800186e:	e9cd 0010 	strd	r0, r0, [sp, #64]	; 0x40
 8001872:	900e      	str	r0, [sp, #56]	; 0x38
 8001874:	9012      	str	r0, [sp, #72]	; 0x48
 8001876:	220c      	movs	r2, #12
 8001878:	4811      	ldr	r0, [pc, #68]	; (80018c0 <main+0x2c0>)
 800187a:	a90c      	add	r1, sp, #48	; 0x30
 800187c:	f002 fede 	bl	800463c <HAL_TIM_PWM_ConfigChannel>
 8001880:	b108      	cbz	r0, 8001886 <main+0x286>
 8001882:	b672      	cpsid	i
 8001884:	e7fe      	b.n	8001884 <main+0x284>
 8001886:	e9cd 0013 	strd	r0, r0, [sp, #76]	; 0x4c
 800188a:	e9cd 0015 	strd	r0, r0, [sp, #84]	; 0x54
 800188e:	9017      	str	r0, [sp, #92]	; 0x5c
 8001890:	f44f 5300 	mov.w	r3, #8192	; 0x2000
 8001894:	901a      	str	r0, [sp, #104]	; 0x68
 8001896:	a913      	add	r1, sp, #76	; 0x4c
 8001898:	4809      	ldr	r0, [pc, #36]	; (80018c0 <main+0x2c0>)
 800189a:	9318      	str	r3, [sp, #96]	; 0x60
 800189c:	f003 f9d8 	bl	8004c50 <HAL_TIMEx_ConfigBreakDeadTime>
 80018a0:	4604      	mov	r4, r0
 80018a2:	b188      	cbz	r0, 80018c8 <main+0x2c8>
 80018a4:	b672      	cpsid	i
 80018a6:	e7fe      	b.n	80018a6 <main+0x2a6>
 80018a8:	40023800 	.word	0x40023800
 80018ac:	40021000 	.word	0x40021000
 80018b0:	20000928 	.word	0x20000928
 80018b4:	40020000 	.word	0x40020000
 80018b8:	40010400 	.word	0x40010400
 80018bc:	20000808 	.word	0x20000808
 80018c0:	200007c0 	.word	0x200007c0
 80018c4:	40010000 	.word	0x40010000
 80018c8:	4874      	ldr	r0, [pc, #464]	; (8001a9c <main+0x49c>)
 80018ca:	4e75      	ldr	r6, [pc, #468]	; (8001aa0 <main+0x4a0>)
 80018cc:	f001 f9a0 	bl	8002c10 <HAL_TIM_MspPostInit>
 80018d0:	221c      	movs	r2, #28
 80018d2:	4621      	mov	r1, r4
 80018d4:	a814      	add	r0, sp, #80	; 0x50
 80018d6:	f005 fabf 	bl	8006e58 <memset>
 80018da:	4b72      	ldr	r3, [pc, #456]	; (8001aa4 <main+0x4a4>)
 80018dc:	60b4      	str	r4, [r6, #8]
 80018de:	e9c6 3400 	strd	r3, r4, [r6]
 80018e2:	2303      	movs	r3, #3
 80018e4:	2201      	movs	r2, #1
 80018e6:	f64f 75ff 	movw	r5, #65535	; 0xffff
 80018ea:	9313      	str	r3, [sp, #76]	; 0x4c
 80018ec:	a913      	add	r1, sp, #76	; 0x4c
 80018ee:	230a      	movs	r3, #10
 80018f0:	4630      	mov	r0, r6
 80018f2:	e9cd 440c 	strd	r4, r4, [sp, #48]	; 0x30
 80018f6:	e9c6 5403 	strd	r5, r4, [r6, #12]
 80018fa:	61b4      	str	r4, [r6, #24]
 80018fc:	9215      	str	r2, [sp, #84]	; 0x54
 80018fe:	9317      	str	r3, [sp, #92]	; 0x5c
 8001900:	9219      	str	r2, [sp, #100]	; 0x64
 8001902:	931b      	str	r3, [sp, #108]	; 0x6c
 8001904:	f002 fe0e 	bl	8004524 <HAL_TIM_Encoder_Init>
 8001908:	b108      	cbz	r0, 800190e <main+0x30e>
 800190a:	b672      	cpsid	i
 800190c:	e7fe      	b.n	800190c <main+0x30c>
 800190e:	e9cd 000c 	strd	r0, r0, [sp, #48]	; 0x30
 8001912:	a90c      	add	r1, sp, #48	; 0x30
 8001914:	4630      	mov	r0, r6
 8001916:	f003 f95d 	bl	8004bd4 <HAL_TIMEx_MasterConfigSynchronization>
 800191a:	4603      	mov	r3, r0
 800191c:	b108      	cbz	r0, 8001922 <main+0x322>
 800191e:	b672      	cpsid	i
 8001920:	e7fe      	b.n	8001920 <main+0x320>
 8001922:	4861      	ldr	r0, [pc, #388]	; (8001aa8 <main+0x4a8>)
 8001924:	4e61      	ldr	r6, [pc, #388]	; (8001aac <main+0x4ac>)
 8001926:	6103      	str	r3, [r0, #16]
 8001928:	f44f 32e1 	mov.w	r2, #115200	; 0x1c200
 800192c:	e9c0 6200 	strd	r6, r2, [r0]
 8001930:	220c      	movs	r2, #12
 8001932:	e9c0 3302 	strd	r3, r3, [r0, #8]
 8001936:	e9c0 2305 	strd	r2, r3, [r0, #20]
 800193a:	61c3      	str	r3, [r0, #28]
 800193c:	f003 fa72 	bl	8004e24 <HAL_UART_Init>
 8001940:	4603      	mov	r3, r0
 8001942:	b108      	cbz	r0, 8001948 <main+0x348>
 8001944:	b672      	cpsid	i
 8001946:	e7fe      	b.n	8001946 <main+0x346>
 8001948:	4859      	ldr	r0, [pc, #356]	; (8001ab0 <main+0x4b0>)
 800194a:	4c5a      	ldr	r4, [pc, #360]	; (8001ab4 <main+0x4b4>)
 800194c:	4a5a      	ldr	r2, [pc, #360]	; (8001ab8 <main+0x4b8>)
 800194e:	6203      	str	r3, [r0, #32]
 8001950:	e9c0 4200 	strd	r4, r2, [r0]
 8001954:	f44f 4280 	mov.w	r2, #16384	; 0x4000
 8001958:	e9c0 3302 	strd	r3, r3, [r0, #8]
 800195c:	e9c0 2304 	strd	r2, r3, [r0, #16]
 8001960:	e9c0 3306 	strd	r3, r3, [r0, #24]
 8001964:	f001 fd70 	bl	8003448 <HAL_I2C_Init>
 8001968:	4604      	mov	r4, r0
 800196a:	b108      	cbz	r0, 8001970 <main+0x370>
 800196c:	b672      	cpsid	i
 800196e:	e7fe      	b.n	800196e <main+0x36e>
 8001970:	4601      	mov	r1, r0
 8001972:	2210      	movs	r2, #16
 8001974:	a80c      	add	r0, sp, #48	; 0x30
 8001976:	f005 fa6f 	bl	8006e58 <memset>
 800197a:	4621      	mov	r1, r4
 800197c:	2210      	movs	r2, #16
 800197e:	a813      	add	r0, sp, #76	; 0x4c
 8001980:	e9cd 4408 	strd	r4, r4, [sp, #32]
 8001984:	f005 fa68 	bl	8006e58 <memset>
 8001988:	484c      	ldr	r0, [pc, #304]	; (8001abc <main+0x4bc>)
 800198a:	494d      	ldr	r1, [pc, #308]	; (8001ac0 <main+0x4c0>)
 800198c:	6104      	str	r4, [r0, #16]
 800198e:	230f      	movs	r3, #15
 8001990:	e9c0 1300 	strd	r1, r3, [r0]
 8001994:	e9c0 4502 	strd	r4, r5, [r0, #8]
 8001998:	6184      	str	r4, [r0, #24]
 800199a:	f002 fd3f 	bl	800441c <HAL_TIM_Base_Init>
 800199e:	b108      	cbz	r0, 80019a4 <main+0x3a4>
 80019a0:	b672      	cpsid	i
 80019a2:	e7fe      	b.n	80019a2 <main+0x3a2>
 80019a4:	f44f 5380 	mov.w	r3, #4096	; 0x1000
 80019a8:	4844      	ldr	r0, [pc, #272]	; (8001abc <main+0x4bc>)
 80019aa:	930c      	str	r3, [sp, #48]	; 0x30
 80019ac:	a90c      	add	r1, sp, #48	; 0x30
 80019ae:	f002 ff78 	bl	80048a2 <HAL_TIM_ConfigClockSource>
 80019b2:	b108      	cbz	r0, 80019b8 <main+0x3b8>
 80019b4:	b672      	cpsid	i
 80019b6:	e7fe      	b.n	80019b6 <main+0x3b6>
 80019b8:	4840      	ldr	r0, [pc, #256]	; (8001abc <main+0x4bc>)
 80019ba:	f002 fd87 	bl	80044cc <HAL_TIM_IC_Init>
 80019be:	b108      	cbz	r0, 80019c4 <main+0x3c4>
 80019c0:	b672      	cpsid	i
 80019c2:	e7fe      	b.n	80019c2 <main+0x3c2>
 80019c4:	e9cd 0008 	strd	r0, r0, [sp, #32]
 80019c8:	a908      	add	r1, sp, #32
 80019ca:	483c      	ldr	r0, [pc, #240]	; (8001abc <main+0x4bc>)
 80019cc:	f003 f902 	bl	8004bd4 <HAL_TIMEx_MasterConfigSynchronization>
 80019d0:	4602      	mov	r2, r0
 80019d2:	b108      	cbz	r0, 80019d8 <main+0x3d8>
 80019d4:	b672      	cpsid	i
 80019d6:	e7fe      	b.n	80019d6 <main+0x3d6>
 80019d8:	2301      	movs	r3, #1
 80019da:	e9cd 3014 	strd	r3, r0, [sp, #80]	; 0x50
 80019de:	9013      	str	r0, [sp, #76]	; 0x4c
 80019e0:	9016      	str	r0, [sp, #88]	; 0x58
 80019e2:	a913      	add	r1, sp, #76	; 0x4c
 80019e4:	4835      	ldr	r0, [pc, #212]	; (8001abc <main+0x4bc>)
 80019e6:	f002 febf 	bl	8004768 <HAL_TIM_IC_ConfigChannel>
 80019ea:	b108      	cbz	r0, 80019f0 <main+0x3f0>
 80019ec:	b672      	cpsid	i
 80019ee:	e7fe      	b.n	80019ee <main+0x3ee>
 80019f0:	4d34      	ldr	r5, [pc, #208]	; (8001ac4 <main+0x4c4>)
 80019f2:	4a35      	ldr	r2, [pc, #212]	; (8001ac8 <main+0x4c8>)
 80019f4:	60a8      	str	r0, [r5, #8]
 80019f6:	230f      	movs	r3, #15
 80019f8:	e9cd 0013 	strd	r0, r0, [sp, #76]	; 0x4c
 80019fc:	e9c5 2300 	strd	r2, r3, [r5]
 8001a00:	61a8      	str	r0, [r5, #24]
 8001a02:	f64f 73ff 	movw	r3, #65535	; 0xffff
 8001a06:	4628      	mov	r0, r5
 8001a08:	60eb      	str	r3, [r5, #12]
 8001a0a:	f002 fd07 	bl	800441c <HAL_TIM_Base_Init>
 8001a0e:	b108      	cbz	r0, 8001a14 <main+0x414>
 8001a10:	b672      	cpsid	i
 8001a12:	e7fe      	b.n	8001a12 <main+0x412>
 8001a14:	e9cd 0013 	strd	r0, r0, [sp, #76]	; 0x4c
 8001a18:	a913      	add	r1, sp, #76	; 0x4c
 8001a1a:	4628      	mov	r0, r5
 8001a1c:	f003 f8da 	bl	8004bd4 <HAL_TIMEx_MasterConfigSynchronization>
 8001a20:	4604      	mov	r4, r0
 8001a22:	b108      	cbz	r0, 8001a28 <main+0x428>
 8001a24:	b672      	cpsid	i
 8001a26:	e7fe      	b.n	8001a26 <main+0x426>
 8001a28:	f7ff fd1e 	bl	8001468 <OLED_Init>
 8001a2c:	4628      	mov	r0, r5
 8001a2e:	f002 fb3f 	bl	80040b0 <HAL_TIM_Base_Start>
 8001a32:	4926      	ldr	r1, [pc, #152]	; (8001acc <main+0x4cc>)
 8001a34:	481c      	ldr	r0, [pc, #112]	; (8001aa8 <main+0x4a8>)
 8001a36:	2232      	movs	r2, #50	; 0x32
 8001a38:	f003 fc43 	bl	80052c2 <HAL_UART_Receive_IT>
 8001a3c:	f003 fc5a 	bl	80052f4 <osKernelInitialize>
 8001a40:	4a23      	ldr	r2, [pc, #140]	; (8001ad0 <main+0x4d0>)
 8001a42:	4824      	ldr	r0, [pc, #144]	; (8001ad4 <main+0x4d4>)
 8001a44:	4621      	mov	r1, r4
 8001a46:	f003 fc81 	bl	800534c <osThreadNew>
 8001a4a:	4b23      	ldr	r3, [pc, #140]	; (8001ad8 <main+0x4d8>)
 8001a4c:	4a23      	ldr	r2, [pc, #140]	; (8001adc <main+0x4dc>)
 8001a4e:	6018      	str	r0, [r3, #0]
 8001a50:	4621      	mov	r1, r4
 8001a52:	4823      	ldr	r0, [pc, #140]	; (8001ae0 <main+0x4e0>)
 8001a54:	f003 fc7a 	bl	800534c <osThreadNew>
 8001a58:	4b22      	ldr	r3, [pc, #136]	; (8001ae4 <main+0x4e4>)
 8001a5a:	4a23      	ldr	r2, [pc, #140]	; (8001ae8 <main+0x4e8>)
 8001a5c:	6018      	str	r0, [r3, #0]
 8001a5e:	4621      	mov	r1, r4
 8001a60:	4822      	ldr	r0, [pc, #136]	; (8001aec <main+0x4ec>)
 8001a62:	f003 fc73 	bl	800534c <osThreadNew>
 8001a66:	4b22      	ldr	r3, [pc, #136]	; (8001af0 <main+0x4f0>)
 8001a68:	4a22      	ldr	r2, [pc, #136]	; (8001af4 <main+0x4f4>)
 8001a6a:	6018      	str	r0, [r3, #0]
 8001a6c:	4621      	mov	r1, r4
 8001a6e:	4822      	ldr	r0, [pc, #136]	; (8001af8 <main+0x4f8>)
 8001a70:	f003 fc6c 	bl	800534c <osThreadNew>
 8001a74:	4b21      	ldr	r3, [pc, #132]	; (8001afc <main+0x4fc>)
 8001a76:	4a22      	ldr	r2, [pc, #136]	; (8001b00 <main+0x500>)
 8001a78:	6018      	str	r0, [r3, #0]
 8001a7a:	4621      	mov	r1, r4
 8001a7c:	4821      	ldr	r0, [pc, #132]	; (8001b04 <main+0x504>)
 8001a7e:	f003 fc65 	bl	800534c <osThreadNew>
 8001a82:	4b21      	ldr	r3, [pc, #132]	; (8001b08 <main+0x508>)
 8001a84:	4a21      	ldr	r2, [pc, #132]	; (8001b0c <main+0x50c>)
 8001a86:	6018      	str	r0, [r3, #0]
 8001a88:	4621      	mov	r1, r4
 8001a8a:	4821      	ldr	r0, [pc, #132]	; (8001b10 <main+0x510>)
 8001a8c:	f003 fc5e 	bl	800534c <osThreadNew>
 8001a90:	4b20      	ldr	r3, [pc, #128]	; (8001b14 <main+0x514>)
 8001a92:	6018      	str	r0, [r3, #0]
 8001a94:	f003 fc40 	bl	8005318 <osKernelStart>
 8001a98:	e7fe      	b.n	8001a98 <main+0x498>
 8001a9a:	bf00      	nop
 8001a9c:	200007c0 	.word	0x200007c0
 8001aa0:	20000850 	.word	0x20000850
 8001aa4:	40000400 	.word	0x40000400
 8001aa8:	20000970 	.word	0x20000970
 8001aac:	40004800 	.word	0x40004800
 8001ab0:	2000076c 	.word	0x2000076c
 8001ab4:	40005400 	.word	0x40005400
 8001ab8:	000186a0 	.word	0x000186a0
 8001abc:	20000898 	.word	0x20000898
 8001ac0:	40000800 	.word	0x40000800
 8001ac4:	200008e0 	.word	0x200008e0
 8001ac8:	40001400 	.word	0x40001400
 8001acc:	20000714 	.word	0x20000714
 8001ad0:	08009f24 	.word	0x08009f24
 8001ad4:	08002251 	.word	0x08002251
 8001ad8:	20000764 	.word	0x20000764
 8001adc:	08009edc 	.word	0x08009edc
 8001ae0:	080013d9 	.word	0x080013d9
 8001ae4:	200006f4 	.word	0x200006f4
 8001ae8:	08009eb8 	.word	0x08009eb8
 8001aec:	08001db9 	.word	0x08001db9
 8001af0:	20000250 	.word	0x20000250
 8001af4:	08009e94 	.word	0x08009e94
 8001af8:	080010d1 	.word	0x080010d1
 8001afc:	20000240 	.word	0x20000240
 8001b00:	08009f4c 	.word	0x08009f4c
 8001b04:	080026f9 	.word	0x080026f9
 8001b08:	20000768 	.word	0x20000768
 8001b0c:	08009f00 	.word	0x08009f00
 8001b10:	08002945 	.word	0x08002945
 8001b14:	20000710 	.word	0x20000710

08001b18 <stop>:
 8001b18:	4b02      	ldr	r3, [pc, #8]	; (8001b24 <stop+0xc>)
 8001b1a:	681b      	ldr	r3, [r3, #0]
 8001b1c:	2200      	movs	r2, #0
 8001b1e:	635a      	str	r2, [r3, #52]	; 0x34
 8001b20:	639a      	str	r2, [r3, #56]	; 0x38
 8001b22:	4770      	bx	lr
 8001b24:	20000928 	.word	0x20000928

08001b28 <forward>:
 8001b28:	b570      	push	{r4, r5, r6, lr}
 8001b2a:	4c16      	ldr	r4, [pc, #88]	; (8001b84 <forward+0x5c>)
 8001b2c:	4e16      	ldr	r6, [pc, #88]	; (8001b88 <forward+0x60>)
 8001b2e:	4d17      	ldr	r5, [pc, #92]	; (8001b8c <forward+0x64>)
 8001b30:	4817      	ldr	r0, [pc, #92]	; (8001b90 <forward+0x68>)
 8001b32:	f44f 63af 	mov.w	r3, #1400	; 0x578
 8001b36:	8023      	strh	r3, [r4, #0]
 8001b38:	f240 53b4 	movw	r3, #1460	; 0x5b4
 8001b3c:	8033      	strh	r3, [r6, #0]
 8001b3e:	4b15      	ldr	r3, [pc, #84]	; (8001b94 <forward+0x6c>)
 8001b40:	681b      	ldr	r3, [r3, #0]
 8001b42:	2299      	movs	r2, #153	; 0x99
 8001b44:	641a      	str	r2, [r3, #64]	; 0x40
 8001b46:	2104      	movs	r1, #4
 8001b48:	2200      	movs	r2, #0
 8001b4a:	f001 fb75 	bl	8003238 <HAL_GPIO_WritePin>
 8001b4e:	4810      	ldr	r0, [pc, #64]	; (8001b90 <forward+0x68>)
 8001b50:	2201      	movs	r2, #1
 8001b52:	2108      	movs	r1, #8
 8001b54:	f001 fb70 	bl	8003238 <HAL_GPIO_WritePin>
 8001b58:	682b      	ldr	r3, [r5, #0]
 8001b5a:	8832      	ldrh	r2, [r6, #0]
 8001b5c:	635a      	str	r2, [r3, #52]	; 0x34
 8001b5e:	480c      	ldr	r0, [pc, #48]	; (8001b90 <forward+0x68>)
 8001b60:	2200      	movs	r2, #0
 8001b62:	2120      	movs	r1, #32
 8001b64:	f001 fb68 	bl	8003238 <HAL_GPIO_WritePin>
 8001b68:	4809      	ldr	r0, [pc, #36]	; (8001b90 <forward+0x68>)
 8001b6a:	2201      	movs	r2, #1
 8001b6c:	2110      	movs	r1, #16
 8001b6e:	f001 fb63 	bl	8003238 <HAL_GPIO_WritePin>
 8001b72:	682b      	ldr	r3, [r5, #0]
 8001b74:	8822      	ldrh	r2, [r4, #0]
 8001b76:	639a      	str	r2, [r3, #56]	; 0x38
 8001b78:	e8bd 4070 	ldmia.w	sp!, {r4, r5, r6, lr}
 8001b7c:	200a      	movs	r0, #10
 8001b7e:	f001 b9b1 	b.w	8002ee4 <HAL_Delay>
 8001b82:	bf00      	nop
 8001b84:	200009c4 	.word	0x200009c4
 8001b88:	200009c0 	.word	0x200009c0
 8001b8c:	20000928 	.word	0x20000928
 8001b90:	40020000 	.word	0x40020000
 8001b94:	200007c0 	.word	0x200007c0

08001b98 <forward2>:
 8001b98:	b570      	push	{r4, r5, r6, lr}
 8001b9a:	4c16      	ldr	r4, [pc, #88]	; (8001bf4 <forward2+0x5c>)
 8001b9c:	4e16      	ldr	r6, [pc, #88]	; (8001bf8 <forward2+0x60>)
 8001b9e:	4d17      	ldr	r5, [pc, #92]	; (8001bfc <forward2+0x64>)
 8001ba0:	4817      	ldr	r0, [pc, #92]	; (8001c00 <forward2+0x68>)
 8001ba2:	f44f 737a 	mov.w	r3, #1000	; 0x3e8
 8001ba6:	8023      	strh	r3, [r4, #0]
 8001ba8:	f240 4324 	movw	r3, #1060	; 0x424
 8001bac:	8033      	strh	r3, [r6, #0]
 8001bae:	4b15      	ldr	r3, [pc, #84]	; (8001c04 <forward2+0x6c>)
 8001bb0:	681b      	ldr	r3, [r3, #0]
 8001bb2:	2299      	movs	r2, #153	; 0x99
 8001bb4:	641a      	str	r2, [r3, #64]	; 0x40
 8001bb6:	2104      	movs	r1, #4
 8001bb8:	2200      	movs	r2, #0
 8001bba:	f001 fb3d 	bl	8003238 <HAL_GPIO_WritePin>
 8001bbe:	4810      	ldr	r0, [pc, #64]	; (8001c00 <forward2+0x68>)
 8001bc0:	2201      	movs	r2, #1
 8001bc2:	2108      	movs	r1, #8
 8001bc4:	f001 fb38 	bl	8003238 <HAL_GPIO_WritePin>
 8001bc8:	682b      	ldr	r3, [r5, #0]
 8001bca:	8832      	ldrh	r2, [r6, #0]
 8001bcc:	635a      	str	r2, [r3, #52]	; 0x34
 8001bce:	480c      	ldr	r0, [pc, #48]	; (8001c00 <forward2+0x68>)
 8001bd0:	2200      	movs	r2, #0
 8001bd2:	2120      	movs	r1, #32
 8001bd4:	f001 fb30 	bl	8003238 <HAL_GPIO_WritePin>
 8001bd8:	4809      	ldr	r0, [pc, #36]	; (8001c00 <forward2+0x68>)
 8001bda:	2201      	movs	r2, #1
 8001bdc:	2110      	movs	r1, #16
 8001bde:	f001 fb2b 	bl	8003238 <HAL_GPIO_WritePin>
 8001be2:	682b      	ldr	r3, [r5, #0]
 8001be4:	8822      	ldrh	r2, [r4, #0]
 8001be6:	639a      	str	r2, [r3, #56]	; 0x38
 8001be8:	e8bd 4070 	ldmia.w	sp!, {r4, r5, r6, lr}
 8001bec:	200a      	movs	r0, #10
 8001bee:	f001 b979 	b.w	8002ee4 <HAL_Delay>
 8001bf2:	bf00      	nop
 8001bf4:	200009c6 	.word	0x200009c6
 8001bf8:	200009c2 	.word	0x200009c2
 8001bfc:	20000928 	.word	0x20000928
 8001c00:	40020000 	.word	0x40020000
 8001c04:	200007c0 	.word	0x200007c0

08001c08 <reverse>:
 8001c08:	b570      	push	{r4, r5, r6, lr}
 8001c0a:	4c16      	ldr	r4, [pc, #88]	; (8001c64 <reverse+0x5c>)
 8001c0c:	4e16      	ldr	r6, [pc, #88]	; (8001c68 <reverse+0x60>)
 8001c0e:	4d17      	ldr	r5, [pc, #92]	; (8001c6c <reverse+0x64>)
 8001c10:	4817      	ldr	r0, [pc, #92]	; (8001c70 <reverse+0x68>)
 8001c12:	f240 5364 	movw	r3, #1380	; 0x564
 8001c16:	8023      	strh	r3, [r4, #0]
 8001c18:	f240 53b9 	movw	r3, #1465	; 0x5b9
 8001c1c:	8033      	strh	r3, [r6, #0]
 8001c1e:	4b15      	ldr	r3, [pc, #84]	; (8001c74 <reverse+0x6c>)
 8001c20:	681b      	ldr	r3, [r3, #0]
 8001c22:	2299      	movs	r2, #153	; 0x99
 8001c24:	641a      	str	r2, [r3, #64]	; 0x40
 8001c26:	2104      	movs	r1, #4
 8001c28:	2201      	movs	r2, #1
 8001c2a:	f001 fb05 	bl	8003238 <HAL_GPIO_WritePin>
 8001c2e:	4810      	ldr	r0, [pc, #64]	; (8001c70 <reverse+0x68>)
 8001c30:	2200      	movs	r2, #0
 8001c32:	2108      	movs	r1, #8
 8001c34:	f001 fb00 	bl	8003238 <HAL_GPIO_WritePin>
 8001c38:	682b      	ldr	r3, [r5, #0]
 8001c3a:	8832      	ldrh	r2, [r6, #0]
 8001c3c:	635a      	str	r2, [r3, #52]	; 0x34
 8001c3e:	480c      	ldr	r0, [pc, #48]	; (8001c70 <reverse+0x68>)
 8001c40:	2201      	movs	r2, #1
 8001c42:	2120      	movs	r1, #32
 8001c44:	f001 faf8 	bl	8003238 <HAL_GPIO_WritePin>
 8001c48:	4809      	ldr	r0, [pc, #36]	; (8001c70 <reverse+0x68>)
 8001c4a:	2200      	movs	r2, #0
 8001c4c:	2110      	movs	r1, #16
 8001c4e:	f001 faf3 	bl	8003238 <HAL_GPIO_WritePin>
 8001c52:	682b      	ldr	r3, [r5, #0]
 8001c54:	8822      	ldrh	r2, [r4, #0]
 8001c56:	639a      	str	r2, [r3, #56]	; 0x38
 8001c58:	e8bd 4070 	ldmia.w	sp!, {r4, r5, r6, lr}
 8001c5c:	200a      	movs	r0, #10
 8001c5e:	f001 b941 	b.w	8002ee4 <HAL_Delay>
 8001c62:	bf00      	nop
 8001c64:	200009c4 	.word	0x200009c4
 8001c68:	200009c0 	.word	0x200009c0
 8001c6c:	20000928 	.word	0x20000928
 8001c70:	40020000 	.word	0x40020000
 8001c74:	200007c0 	.word	0x200007c0

08001c78 <fullLeftForward>:
 8001c78:	b538      	push	{r3, r4, r5, lr}
 8001c7a:	4c0d      	ldr	r4, [pc, #52]	; (8001cb0 <fullLeftForward+0x38>)
 8001c7c:	6823      	ldr	r3, [r4, #0]
 8001c7e:	2599      	movs	r5, #153	; 0x99
 8001c80:	ed2d 8b02 	vpush	{d8}
 8001c84:	eeb0 8a40 	vmov.f32	s16, s0
 8001c88:	641d      	str	r5, [r3, #64]	; 0x40
 8001c8a:	f7ff ff85 	bl	8001b98 <forward2>
 8001c8e:	6823      	ldr	r3, [r4, #0]
 8001c90:	eefc 7ac8 	vcvt.u32.f32	s15, s16
 8001c94:	226c      	movs	r2, #108	; 0x6c
 8001c96:	641a      	str	r2, [r3, #64]	; 0x40
 8001c98:	ee17 0a90 	vmov	r0, s15
 8001c9c:	f001 f922 	bl	8002ee4 <HAL_Delay>
 8001ca0:	ecbd 8b02 	vpop	{d8}
 8001ca4:	6823      	ldr	r3, [r4, #0]
 8001ca6:	641d      	str	r5, [r3, #64]	; 0x40
 8001ca8:	e8bd 4038 	ldmia.w	sp!, {r3, r4, r5, lr}
 8001cac:	f7ff bf34 	b.w	8001b18 <stop>
 8001cb0:	200007c0 	.word	0x200007c0

08001cb4 <fullRightForward>:
 8001cb4:	b538      	push	{r3, r4, r5, lr}
 8001cb6:	4c0d      	ldr	r4, [pc, #52]	; (8001cec <fullRightForward+0x38>)
 8001cb8:	6823      	ldr	r3, [r4, #0]
 8001cba:	2599      	movs	r5, #153	; 0x99
 8001cbc:	ed2d 8b02 	vpush	{d8}
 8001cc0:	eeb0 8a40 	vmov.f32	s16, s0
 8001cc4:	641d      	str	r5, [r3, #64]	; 0x40
 8001cc6:	f7ff ff67 	bl	8001b98 <forward2>
 8001cca:	6823      	ldr	r3, [r4, #0]
 8001ccc:	eefc 7ac8 	vcvt.u32.f32	s15, s16
 8001cd0:	22df      	movs	r2, #223	; 0xdf
 8001cd2:	641a      	str	r2, [r3, #64]	; 0x40
 8001cd4:	ee17 0a90 	vmov	r0, s15
 8001cd8:	f001 f904 	bl	8002ee4 <HAL_Delay>
 8001cdc:	ecbd 8b02 	vpop	{d8}
 8001ce0:	6823      	ldr	r3, [r4, #0]
 8001ce2:	641d      	str	r5, [r3, #64]	; 0x40
 8001ce4:	e8bd 4038 	ldmia.w	sp!, {r3, r4, r5, lr}
 8001ce8:	f7ff bf16 	b.w	8001b18 <stop>
 8001cec:	200007c0 	.word	0x200007c0

08001cf0 <fullRightReverse>:
 8001cf0:	b538      	push	{r3, r4, r5, lr}
 8001cf2:	4c0d      	ldr	r4, [pc, #52]	; (8001d28 <fullRightReverse+0x38>)
 8001cf4:	6823      	ldr	r3, [r4, #0]
 8001cf6:	2599      	movs	r5, #153	; 0x99
 8001cf8:	ed2d 8b02 	vpush	{d8}
 8001cfc:	eeb0 8a40 	vmov.f32	s16, s0
 8001d00:	641d      	str	r5, [r3, #64]	; 0x40
 8001d02:	f7ff ff81 	bl	8001c08 <reverse>
 8001d06:	6823      	ldr	r3, [r4, #0]
 8001d08:	eefc 7ac8 	vcvt.u32.f32	s15, s16
 8001d0c:	22da      	movs	r2, #218	; 0xda
 8001d0e:	641a      	str	r2, [r3, #64]	; 0x40
 8001d10:	ee17 0a90 	vmov	r0, s15
 8001d14:	f001 f8e6 	bl	8002ee4 <HAL_Delay>
 8001d18:	ecbd 8b02 	vpop	{d8}
 8001d1c:	6823      	ldr	r3, [r4, #0]
 8001d1e:	641d      	str	r5, [r3, #64]	; 0x40
 8001d20:	e8bd 4038 	ldmia.w	sp!, {r3, r4, r5, lr}
 8001d24:	f7ff bef8 	b.w	8001b18 <stop>
 8001d28:	200007c0 	.word	0x200007c0

08001d2c <fullLeftReverse>:
 8001d2c:	b538      	push	{r3, r4, r5, lr}
 8001d2e:	4c0d      	ldr	r4, [pc, #52]	; (8001d64 <fullLeftReverse+0x38>)
 8001d30:	6823      	ldr	r3, [r4, #0]
 8001d32:	2599      	movs	r5, #153	; 0x99
 8001d34:	ed2d 8b02 	vpush	{d8}
 8001d38:	eeb0 8a40 	vmov.f32	s16, s0
 8001d3c:	641d      	str	r5, [r3, #64]	; 0x40
 8001d3e:	f7ff ff63 	bl	8001c08 <reverse>
 8001d42:	6823      	ldr	r3, [r4, #0]
 8001d44:	eefc 7ac8 	vcvt.u32.f32	s15, s16
 8001d48:	226c      	movs	r2, #108	; 0x6c
 8001d4a:	641a      	str	r2, [r3, #64]	; 0x40
 8001d4c:	ee17 0a90 	vmov	r0, s15
 8001d50:	f001 f8c8 	bl	8002ee4 <HAL_Delay>
 8001d54:	ecbd 8b02 	vpop	{d8}
 8001d58:	6823      	ldr	r3, [r4, #0]
 8001d5a:	641d      	str	r5, [r3, #64]	; 0x40
 8001d5c:	e8bd 4038 	ldmia.w	sp!, {r3, r4, r5, lr}
 8001d60:	f7ff beda 	b.w	8001b18 <stop>
 8001d64:	200007c0 	.word	0x200007c0

08001d68 <forward_motor_prep>:
 8001d68:	b508      	push	{r3, lr}
 8001d6a:	480b      	ldr	r0, [pc, #44]	; (8001d98 <forward_motor_prep+0x30>)
 8001d6c:	2200      	movs	r2, #0
 8001d6e:	2104      	movs	r1, #4
 8001d70:	f001 fa62 	bl	8003238 <HAL_GPIO_WritePin>
 8001d74:	4808      	ldr	r0, [pc, #32]	; (8001d98 <forward_motor_prep+0x30>)
 8001d76:	2201      	movs	r2, #1
 8001d78:	2108      	movs	r1, #8
 8001d7a:	f001 fa5d 	bl	8003238 <HAL_GPIO_WritePin>
 8001d7e:	4806      	ldr	r0, [pc, #24]	; (8001d98 <forward_motor_prep+0x30>)
 8001d80:	2200      	movs	r2, #0
 8001d82:	2120      	movs	r1, #32
 8001d84:	f001 fa58 	bl	8003238 <HAL_GPIO_WritePin>
 8001d88:	e8bd 4008 	ldmia.w	sp!, {r3, lr}
 8001d8c:	4802      	ldr	r0, [pc, #8]	; (8001d98 <forward_motor_prep+0x30>)
 8001d8e:	2201      	movs	r2, #1
 8001d90:	2110      	movs	r1, #16
 8001d92:	f001 ba51 	b.w	8003238 <HAL_GPIO_WritePin>
 8001d96:	bf00      	nop
 8001d98:	40020000 	.word	0x40020000

08001d9c <servomotor_center>:
 8001d9c:	4b05      	ldr	r3, [pc, #20]	; (8001db4 <servomotor_center+0x18>)
 8001d9e:	681b      	ldr	r3, [r3, #0]
 8001da0:	6c1a      	ldr	r2, [r3, #64]	; 0x40
 8001da2:	2a99      	cmp	r2, #153	; 0x99
 8001da4:	d004      	beq.n	8001db0 <servomotor_center+0x14>
 8001da6:	2299      	movs	r2, #153	; 0x99
 8001da8:	641a      	str	r2, [r3, #64]	; 0x40
 8001daa:	20c8      	movs	r0, #200	; 0xc8
 8001dac:	f003 bb17 	b.w	80053de <osDelay>
 8001db0:	4770      	bx	lr
 8001db2:	bf00      	nop
 8001db4:	200007c0 	.word	0x200007c0

08001db8 <Motor>:
 8001db8:	e92d 4ff0 	stmdb	sp!, {r4, r5, r6, r7, r8, r9, sl, fp, lr}
 8001dbc:	2100      	movs	r1, #0
 8001dbe:	b0b5      	sub	sp, #212	; 0xd4
 8001dc0:	488a      	ldr	r0, [pc, #552]	; (8001fec <Motor+0x234>)
 8001dc2:	f8df b268 	ldr.w	fp, [pc, #616]	; 800202c <Motor+0x274>
 8001dc6:	f8df a268 	ldr.w	sl, [pc, #616]	; 8002030 <Motor+0x278>
 8001dca:	f002 fe7d 	bl	8004ac8 <HAL_TIM_PWM_Start>
 8001dce:	2104      	movs	r1, #4
 8001dd0:	4886      	ldr	r0, [pc, #536]	; (8001fec <Motor+0x234>)
 8001dd2:	f002 fe79 	bl	8004ac8 <HAL_TIM_PWM_Start>
 8001dd6:	210c      	movs	r1, #12
 8001dd8:	4885      	ldr	r0, [pc, #532]	; (8001ff0 <Motor+0x238>)
 8001dda:	f002 fe75 	bl	8004ac8 <HAL_TIM_PWM_Start>
 8001dde:	4b85      	ldr	r3, [pc, #532]	; (8001ff4 <Motor+0x23c>)
 8001de0:	2500      	movs	r5, #0
 8001de2:	601d      	str	r5, [r3, #0]
 8001de4:	f8cb 5000 	str.w	r5, [fp]
 8001de8:	f7ff ffbe 	bl	8001d68 <forward_motor_prep>
 8001dec:	f7ff ffd6 	bl	8001d9c <servomotor_center>
 8001df0:	a804      	add	r0, sp, #16
 8001df2:	f7ff f8cb 	bl	8000f8c <MotorPIDController_Init>
 8001df6:	a810      	add	r0, sp, #64	; 0x40
 8001df8:	f7ff f8c8 	bl	8000f8c <MotorPIDController_Init>
 8001dfc:	a81c      	add	r0, sp, #112	; 0x70
 8001dfe:	f7ff f8c5 	bl	8000f8c <MotorPIDController_Init>
 8001e02:	a828      	add	r0, sp, #160	; 0xa0
 8001e04:	f7ff f8c2 	bl	8000f8c <MotorPIDController_Init>
 8001e08:	f7ff ffc8 	bl	8001d9c <servomotor_center>
 8001e0c:	f001 f864 	bl	8002ed8 <HAL_GetTick>
 8001e10:	4b79      	ldr	r3, [pc, #484]	; (8001ff8 <Motor+0x240>)
 8001e12:	9502      	str	r5, [sp, #8]
 8001e14:	2401      	movs	r4, #1
 8001e16:	601c      	str	r4, [r3, #0]
 8001e18:	4b78      	ldr	r3, [pc, #480]	; (8001ffc <Motor+0x244>)
 8001e1a:	2246      	movs	r2, #70	; 0x46
 8001e1c:	701a      	strb	r2, [r3, #0]
 8001e1e:	4b78      	ldr	r3, [pc, #480]	; (8002000 <Motor+0x248>)
 8001e20:	2243      	movs	r2, #67	; 0x43
 8001e22:	701a      	strb	r2, [r3, #0]
 8001e24:	4b77      	ldr	r3, [pc, #476]	; (8002004 <Motor+0x24c>)
 8001e26:	221e      	movs	r2, #30
 8001e28:	601a      	str	r2, [r3, #0]
 8001e2a:	f640 2641 	movw	r6, #2625	; 0xa41
 8001e2e:	f640 13c4 	movw	r3, #2500	; 0x9c4
 8001e32:	4607      	mov	r7, r0
 8001e34:	4625      	mov	r5, r4
 8001e36:	f640 2982 	movw	r9, #2690	; 0xa82
 8001e3a:	46b0      	mov	r8, r6
 8001e3c:	9301      	str	r3, [sp, #4]
 8001e3e:	f001 f84b 	bl	8002ed8 <HAL_GetTick>
 8001e42:	1bc0      	subs	r0, r0, r7
 8001e44:	2864      	cmp	r0, #100	; 0x64
 8001e46:	f240 8086 	bls.w	8001f56 <Motor+0x19e>
 8001e4a:	4b6a      	ldr	r3, [pc, #424]	; (8001ff4 <Motor+0x23c>)
 8001e4c:	681b      	ldr	r3, [r3, #0]
 8001e4e:	b30b      	cbz	r3, 8001e94 <Motor+0xdc>
 8001e50:	1c5a      	adds	r2, r3, #1
 8001e52:	d022      	beq.n	8001e9a <Motor+0xe2>
 8001e54:	2b01      	cmp	r3, #1
 8001e56:	bf04      	itt	eq
 8001e58:	2501      	moveq	r5, #1
 8001e5a:	2402      	moveq	r4, #2
 8001e5c:	f8db 2000 	ldr.w	r2, [fp]
 8001e60:	b312      	cbz	r2, 8001ea8 <Motor+0xf0>
 8001e62:	bb0b      	cbnz	r3, 8001ea8 <Motor+0xf0>
 8001e64:	4b68      	ldr	r3, [pc, #416]	; (8002008 <Motor+0x250>)
 8001e66:	4969      	ldr	r1, [pc, #420]	; (800200c <Motor+0x254>)
 8001e68:	e9d3 2300 	ldrd	r2, r3, [r3]
 8001e6c:	e9d1 0100 	ldrd	r0, r1, [r1]
 8001e70:	f7fe fa0a 	bl	8000288 <__aeabi_dsub>
 8001e74:	4b66      	ldr	r3, [pc, #408]	; (8002010 <Motor+0x258>)
 8001e76:	2200      	movs	r2, #0
 8001e78:	f7fe fbbe 	bl	80005f8 <__aeabi_dmul>
 8001e7c:	4b64      	ldr	r3, [pc, #400]	; (8002010 <Motor+0x258>)
 8001e7e:	2200      	movs	r2, #0
 8001e80:	f7fe fbba 	bl	80005f8 <__aeabi_dmul>
 8001e84:	f7fe fe68 	bl	8000b58 <__aeabi_d2iz>
 8001e88:	2809      	cmp	r0, #9
 8001e8a:	4b62      	ldr	r3, [pc, #392]	; (8002014 <Motor+0x25c>)
 8001e8c:	dd08      	ble.n	8001ea0 <Motor+0xe8>
 8001e8e:	220a      	movs	r2, #10
 8001e90:	601a      	str	r2, [r3, #0]
 8001e92:	e009      	b.n	8001ea8 <Motor+0xf0>
 8001e94:	2401      	movs	r4, #1
 8001e96:	4625      	mov	r5, r4
 8001e98:	e7e0      	b.n	8001e5c <Motor+0xa4>
 8001e9a:	2401      	movs	r4, #1
 8001e9c:	2502      	movs	r5, #2
 8001e9e:	e7dd      	b.n	8001e5c <Motor+0xa4>
 8001ea0:	f110 0f09 	cmn.w	r0, #9
 8001ea4:	db5b      	blt.n	8001f5e <Motor+0x1a6>
 8001ea6:	6018      	str	r0, [r3, #0]
 8001ea8:	4f5b      	ldr	r7, [pc, #364]	; (8002018 <Motor+0x260>)
 8001eaa:	683b      	ldr	r3, [r7, #0]
 8001eac:	2b01      	cmp	r3, #1
 8001eae:	d104      	bne.n	8001eba <Motor+0x102>
 8001eb0:	f001 f812 	bl	8002ed8 <HAL_GetTick>
 8001eb4:	2300      	movs	r3, #0
 8001eb6:	9002      	str	r0, [sp, #8]
 8001eb8:	603b      	str	r3, [r7, #0]
 8001eba:	f8da 3000 	ldr.w	r3, [sl]
 8001ebe:	b94b      	cbnz	r3, 8001ed4 <Motor+0x11c>
 8001ec0:	f001 f80a 	bl	8002ed8 <HAL_GetTick>
 8001ec4:	9b02      	ldr	r3, [sp, #8]
 8001ec6:	1ac0      	subs	r0, r0, r3
 8001ec8:	f5b0 7fc8 	cmp.w	r0, #400	; 0x190
 8001ecc:	bf84      	itt	hi
 8001ece:	2301      	movhi	r3, #1
 8001ed0:	f8ca 3000 	strhi.w	r3, [sl]
 8001ed4:	f8db 3000 	ldr.w	r3, [fp]
 8001ed8:	2b01      	cmp	r3, #1
 8001eda:	d143      	bne.n	8001f64 <Motor+0x1ac>
 8001edc:	fb96 f7f4 	sdiv	r7, r6, r4
 8001ee0:	9b01      	ldr	r3, [sp, #4]
 8001ee2:	fb93 f1f5 	sdiv	r1, r3, r5
 8001ee6:	4b41      	ldr	r3, [pc, #260]	; (8001fec <Motor+0x234>)
 8001ee8:	681b      	ldr	r3, [r3, #0]
 8001eea:	6359      	str	r1, [r3, #52]	; 0x34
 8001eec:	639f      	str	r7, [r3, #56]	; 0x38
 8001eee:	f8da 3000 	ldr.w	r3, [sl]
 8001ef2:	2b01      	cmp	r3, #1
 8001ef4:	d123      	bne.n	8001f3e <Motor+0x186>
 8001ef6:	f44f 6648 	mov.w	r6, #3200	; 0xc80
 8001efa:	fbb6 f3f5 	udiv	r3, r6, r5
 8001efe:	ee00 3a90 	vmov	s1, r3
 8001f02:	4b46      	ldr	r3, [pc, #280]	; (800201c <Motor+0x264>)
 8001f04:	ed93 0a00 	vldr	s0, [r3]
 8001f08:	eef8 0ae0 	vcvt.f32.s32	s1, s1
 8001f0c:	eeb8 0ac0 	vcvt.f32.s32	s0, s0
 8001f10:	a804      	add	r0, sp, #16
 8001f12:	f7ff f84f 	bl	8000fb4 <PIDController_Update>
 8001f16:	fb05 f300 	mul.w	r3, r5, r0
 8001f1a:	9301      	str	r3, [sp, #4]
 8001f1c:	fbb6 f3f4 	udiv	r3, r6, r4
 8001f20:	ee00 3a90 	vmov	s1, r3
 8001f24:	4b3e      	ldr	r3, [pc, #248]	; (8002020 <Motor+0x268>)
 8001f26:	ed93 0a00 	vldr	s0, [r3]
 8001f2a:	eef8 0ae0 	vcvt.f32.s32	s1, s1
 8001f2e:	eeb8 0ac0 	vcvt.f32.s32	s0, s0
 8001f32:	4639      	mov	r1, r7
 8001f34:	a810      	add	r0, sp, #64	; 0x40
 8001f36:	f7ff f83d 	bl	8000fb4 <PIDController_Update>
 8001f3a:	fb04 f600 	mul.w	r6, r4, r0
 8001f3e:	4a39      	ldr	r2, [pc, #228]	; (8002024 <Motor+0x26c>)
 8001f40:	9b01      	ldr	r3, [sp, #4]
 8001f42:	fb93 f3f5 	sdiv	r3, r3, r5
 8001f46:	6013      	str	r3, [r2, #0]
 8001f48:	fb96 f3f4 	sdiv	r3, r6, r4
 8001f4c:	4a36      	ldr	r2, [pc, #216]	; (8002028 <Motor+0x270>)
 8001f4e:	6013      	str	r3, [r2, #0]
 8001f50:	f000 ffc2 	bl	8002ed8 <HAL_GetTick>
 8001f54:	4607      	mov	r7, r0
 8001f56:	200a      	movs	r0, #10
 8001f58:	f003 fa41 	bl	80053de <osDelay>
 8001f5c:	e76f      	b.n	8001e3e <Motor+0x86>
 8001f5e:	f06f 0209 	mvn.w	r2, #9
 8001f62:	e795      	b.n	8001e90 <Motor+0xd8>
 8001f64:	3301      	adds	r3, #1
 8001f66:	d137      	bne.n	8001fd8 <Motor+0x220>
 8001f68:	fb98 f1f5 	sdiv	r1, r8, r5
 8001f6c:	4b1f      	ldr	r3, [pc, #124]	; (8001fec <Motor+0x234>)
 8001f6e:	681a      	ldr	r2, [r3, #0]
 8001f70:	fb99 f3f4 	sdiv	r3, r9, r4
 8001f74:	6351      	str	r1, [r2, #52]	; 0x34
 8001f76:	6393      	str	r3, [r2, #56]	; 0x38
 8001f78:	f8da 2000 	ldr.w	r2, [sl]
 8001f7c:	2a01      	cmp	r2, #1
 8001f7e:	d124      	bne.n	8001fca <Motor+0x212>
 8001f80:	4a26      	ldr	r2, [pc, #152]	; (800201c <Motor+0x264>)
 8001f82:	9303      	str	r3, [sp, #12]
 8001f84:	ed92 0a00 	vldr	s0, [r2]
 8001f88:	f44f 6748 	mov.w	r7, #3200	; 0xc80
 8001f8c:	fbb7 f3f5 	udiv	r3, r7, r5
 8001f90:	ee00 3a90 	vmov	s1, r3
 8001f94:	eeb8 0ac0 	vcvt.f32.s32	s0, s0
 8001f98:	eef8 0ae0 	vcvt.f32.s32	s1, s1
 8001f9c:	a81c      	add	r0, sp, #112	; 0x70
 8001f9e:	f7ff f809 	bl	8000fb4 <PIDController_Update>
 8001fa2:	fbb7 f3f4 	udiv	r3, r7, r4
 8001fa6:	4a1e      	ldr	r2, [pc, #120]	; (8002020 <Motor+0x268>)
 8001fa8:	ee00 3a90 	vmov	s1, r3
 8001fac:	ed92 0a00 	vldr	s0, [r2]
 8001fb0:	9b03      	ldr	r3, [sp, #12]
 8001fb2:	eef8 0ae0 	vcvt.f32.s32	s1, s1
 8001fb6:	eeb8 0ac0 	vcvt.f32.s32	s0, s0
 8001fba:	fb05 f800 	mul.w	r8, r5, r0
 8001fbe:	4619      	mov	r1, r3
 8001fc0:	a828      	add	r0, sp, #160	; 0xa0
 8001fc2:	f7fe fff7 	bl	8000fb4 <PIDController_Update>
 8001fc6:	fb04 f900 	mul.w	r9, r4, r0
 8001fca:	4a16      	ldr	r2, [pc, #88]	; (8002024 <Motor+0x26c>)
 8001fcc:	fb98 f3f5 	sdiv	r3, r8, r5
 8001fd0:	6013      	str	r3, [r2, #0]
 8001fd2:	fb99 f3f4 	sdiv	r3, r9, r4
 8001fd6:	e7b9      	b.n	8001f4c <Motor+0x194>
 8001fd8:	4a12      	ldr	r2, [pc, #72]	; (8002024 <Motor+0x26c>)
 8001fda:	2300      	movs	r3, #0
 8001fdc:	6013      	str	r3, [r2, #0]
 8001fde:	4a12      	ldr	r2, [pc, #72]	; (8002028 <Motor+0x270>)
 8001fe0:	f8ca 3000 	str.w	r3, [sl]
 8001fe4:	6013      	str	r3, [r2, #0]
 8001fe6:	4a0b      	ldr	r2, [pc, #44]	; (8002014 <Motor+0x25c>)
 8001fe8:	e7b1      	b.n	8001f4e <Motor+0x196>
 8001fea:	bf00      	nop
 8001fec:	20000928 	.word	0x20000928
 8001ff0:	200007c0 	.word	0x200007c0
 8001ff4:	20000a00 	.word	0x20000a00
 8001ff8:	200006e8 	.word	0x200006e8
 8001ffc:	200006f0 	.word	0x200006f0
 8002000:	200006f1 	.word	0x200006f1
 8002004:	200006ec 	.word	0x200006ec
 8002008:	20000700 	.word	0x20000700
 800200c:	200006f8 	.word	0x200006f8
 8002010:	40080000 	.word	0x40080000
 8002014:	2000022c 	.word	0x2000022c
 8002018:	200006cc 	.word	0x200006cc
 800201c:	200009b4 	.word	0x200009b4
 8002020:	200009c8 	.word	0x200009c8
 8002024:	200006d4 	.word	0x200006d4
 8002028:	200006d8 	.word	0x200006d8
 800202c:	200009b8 	.word	0x200009b8
 8002030:	200006d0 	.word	0x200006d0

08002034 <servomotor_right>:
 8002034:	4b05      	ldr	r3, [pc, #20]	; (800204c <servomotor_right+0x18>)
 8002036:	681b      	ldr	r3, [r3, #0]
 8002038:	6c1a      	ldr	r2, [r3, #64]	; 0x40
 800203a:	2adf      	cmp	r2, #223	; 0xdf
 800203c:	d004      	beq.n	8002048 <servomotor_right+0x14>
 800203e:	22df      	movs	r2, #223	; 0xdf
 8002040:	641a      	str	r2, [r3, #64]	; 0x40
 8002042:	20c8      	movs	r0, #200	; 0xc8
 8002044:	f003 b9cb 	b.w	80053de <osDelay>
 8002048:	4770      	bx	lr
 800204a:	bf00      	nop
 800204c:	200007c0 	.word	0x200007c0

08002050 <servomotor_set>:
 8002050:	4b07      	ldr	r3, [pc, #28]	; (8002070 <servomotor_set+0x20>)
 8002052:	2864      	cmp	r0, #100	; 0x64
 8002054:	681b      	ldr	r3, [r3, #0]
 8002056:	bfb8      	it	lt
 8002058:	2064      	movlt	r0, #100	; 0x64
 800205a:	28c8      	cmp	r0, #200	; 0xc8
 800205c:	6c1a      	ldr	r2, [r3, #64]	; 0x40
 800205e:	bfa8      	it	ge
 8002060:	20c8      	movge	r0, #200	; 0xc8
 8002062:	4282      	cmp	r2, r0
 8002064:	d003      	beq.n	800206e <servomotor_set+0x1e>
 8002066:	6418      	str	r0, [r3, #64]	; 0x40
 8002068:	20c8      	movs	r0, #200	; 0xc8
 800206a:	f003 b9b8 	b.w	80053de <osDelay>
 800206e:	4770      	bx	lr
 8002070:	200007c0 	.word	0x200007c0

08002074 <tightRightTurn>:
 8002074:	b508      	push	{r3, lr}
 8002076:	209a      	movs	r0, #154	; 0x9a
 8002078:	f7ff ffea 	bl	8002050 <servomotor_set>
 800207c:	f44f 707a 	mov.w	r0, #1000	; 0x3e8
 8002080:	f000 ff30 	bl	8002ee4 <HAL_Delay>
 8002084:	f7ff fd50 	bl	8001b28 <forward>
 8002088:	ed9f 0a0b 	vldr	s0, [pc, #44]	; 80020b8 <tightRightTurn+0x44>
 800208c:	f7ff fe12 	bl	8001cb4 <fullRightForward>
 8002090:	ed9f 0a0a 	vldr	s0, [pc, #40]	; 80020bc <tightRightTurn+0x48>
 8002094:	f7ff fe4a 	bl	8001d2c <fullLeftReverse>
 8002098:	2099      	movs	r0, #153	; 0x99
 800209a:	f7ff ffd9 	bl	8002050 <servomotor_set>
 800209e:	f44f 70fa 	mov.w	r0, #500	; 0x1f4
 80020a2:	f000 ff1f 	bl	8002ee4 <HAL_Delay>
 80020a6:	f7ff fd3f 	bl	8001b28 <forward>
 80020aa:	2032      	movs	r0, #50	; 0x32
 80020ac:	f000 ff1a 	bl	8002ee4 <HAL_Delay>
 80020b0:	e8bd 4008 	ldmia.w	sp!, {r3, lr}
 80020b4:	f7ff bd30 	b.w	8001b18 <stop>
 80020b8:	455c5000 	.word	0x455c5000
 80020bc:	443b8000 	.word	0x443b8000

080020c0 <tightLeftTurn>:
 80020c0:	b508      	push	{r3, lr}
 80020c2:	209a      	movs	r0, #154	; 0x9a
 80020c4:	f7ff ffc4 	bl	8002050 <servomotor_set>
 80020c8:	f44f 707a 	mov.w	r0, #1000	; 0x3e8
 80020cc:	f000 ff0a 	bl	8002ee4 <HAL_Delay>
 80020d0:	f7ff fd2a 	bl	8001b28 <forward>
 80020d4:	ed9f 0a0b 	vldr	s0, [pc, #44]	; 8002104 <tightLeftTurn+0x44>
 80020d8:	f7ff fdce 	bl	8001c78 <fullLeftForward>
 80020dc:	ed9f 0a0a 	vldr	s0, [pc, #40]	; 8002108 <tightLeftTurn+0x48>
 80020e0:	f7ff fe06 	bl	8001cf0 <fullRightReverse>
 80020e4:	2099      	movs	r0, #153	; 0x99
 80020e6:	f7ff ffb3 	bl	8002050 <servomotor_set>
 80020ea:	f44f 70fa 	mov.w	r0, #500	; 0x1f4
 80020ee:	f000 fef9 	bl	8002ee4 <HAL_Delay>
 80020f2:	f7ff fd19 	bl	8001b28 <forward>
 80020f6:	2064      	movs	r0, #100	; 0x64
 80020f8:	f000 fef4 	bl	8002ee4 <HAL_Delay>
 80020fc:	e8bd 4008 	ldmia.w	sp!, {r3, lr}
 8002100:	f7ff bd0a 	b.w	8001b18 <stop>
 8002104:	455c5000 	.word	0x455c5000
 8002108:	443b8000 	.word	0x443b8000

0800210c <tightreverseLeftTurn>:
 800210c:	b507      	push	{r0, r1, r2, lr}
 800210e:	2099      	movs	r0, #153	; 0x99
 8002110:	f7ff ff9e 	bl	8002050 <servomotor_set>
 8002114:	f44f 707a 	mov.w	r0, #1000	; 0x3e8
 8002118:	f000 fee4 	bl	8002ee4 <HAL_Delay>
 800211c:	f7ff fd04 	bl	8001b28 <forward>
 8002120:	2064      	movs	r0, #100	; 0x64
 8002122:	f000 fedf 	bl	8002ee4 <HAL_Delay>
 8002126:	ed9f 0a14 	vldr	s0, [pc, #80]	; 8002178 <tightreverseLeftTurn+0x6c>
 800212a:	ed8d 0a01 	vstr	s0, [sp, #4]
 800212e:	f7ff fdfd 	bl	8001d2c <fullLeftReverse>
 8002132:	ed9d 0a01 	vldr	s0, [sp, #4]
 8002136:	f7ff fdbd 	bl	8001cb4 <fullRightForward>
 800213a:	ed9d 0a01 	vldr	s0, [sp, #4]
 800213e:	f7ff fdf5 	bl	8001d2c <fullLeftReverse>
 8002142:	ed9d 0a01 	vldr	s0, [sp, #4]
 8002146:	f7ff fdb5 	bl	8001cb4 <fullRightForward>
 800214a:	ed9f 0a0c 	vldr	s0, [pc, #48]	; 800217c <tightreverseLeftTurn+0x70>
 800214e:	f7ff fded 	bl	8001d2c <fullLeftReverse>
 8002152:	2099      	movs	r0, #153	; 0x99
 8002154:	f7ff ff7c 	bl	8002050 <servomotor_set>
 8002158:	f44f 70fa 	mov.w	r0, #500	; 0x1f4
 800215c:	f000 fec2 	bl	8002ee4 <HAL_Delay>
 8002160:	f7ff fd52 	bl	8001c08 <reverse>
 8002164:	f44f 707a 	mov.w	r0, #1000	; 0x3e8
 8002168:	f000 febc 	bl	8002ee4 <HAL_Delay>
 800216c:	b003      	add	sp, #12
 800216e:	f85d eb04 	ldr.w	lr, [sp], #4
 8002172:	f7ff bcd1 	b.w	8001b18 <stop>
 8002176:	bf00      	nop
 8002178:	447a0000 	.word	0x447a0000
 800217c:	44160000 	.word	0x44160000

08002180 <tightreverseRightTurn>:
 8002180:	b507      	push	{r0, r1, r2, lr}
 8002182:	2099      	movs	r0, #153	; 0x99
 8002184:	f7ff ff64 	bl	8002050 <servomotor_set>
 8002188:	f44f 707a 	mov.w	r0, #1000	; 0x3e8
 800218c:	f000 feaa 	bl	8002ee4 <HAL_Delay>
 8002190:	f7ff fcca 	bl	8001b28 <forward>
 8002194:	20fa      	movs	r0, #250	; 0xfa
 8002196:	f000 fea5 	bl	8002ee4 <HAL_Delay>
 800219a:	ed9f 0a14 	vldr	s0, [pc, #80]	; 80021ec <tightreverseRightTurn+0x6c>
 800219e:	ed8d 0a01 	vstr	s0, [sp, #4]
 80021a2:	f7ff fda5 	bl	8001cf0 <fullRightReverse>
 80021a6:	ed9d 0a01 	vldr	s0, [sp, #4]
 80021aa:	f7ff fd65 	bl	8001c78 <fullLeftForward>
 80021ae:	ed9d 0a01 	vldr	s0, [sp, #4]
 80021b2:	f7ff fd9d 	bl	8001cf0 <fullRightReverse>
 80021b6:	ed9d 0a01 	vldr	s0, [sp, #4]
 80021ba:	f7ff fd5d 	bl	8001c78 <fullLeftForward>
 80021be:	ed9f 0a0c 	vldr	s0, [pc, #48]	; 80021f0 <tightreverseRightTurn+0x70>
 80021c2:	f7ff fd95 	bl	8001cf0 <fullRightReverse>
 80021c6:	2099      	movs	r0, #153	; 0x99
 80021c8:	f7ff ff42 	bl	8002050 <servomotor_set>
 80021cc:	f44f 70fa 	mov.w	r0, #500	; 0x1f4
 80021d0:	f000 fe88 	bl	8002ee4 <HAL_Delay>
 80021d4:	f7ff fd18 	bl	8001c08 <reverse>
 80021d8:	f44f 7048 	mov.w	r0, #800	; 0x320
 80021dc:	f000 fe82 	bl	8002ee4 <HAL_Delay>
 80021e0:	b003      	add	sp, #12
 80021e2:	f85d eb04 	ldr.w	lr, [sp], #4
 80021e6:	f7ff bc97 	b.w	8001b18 <stop>
 80021ea:	bf00      	nop
 80021ec:	447a0000 	.word	0x447a0000
 80021f0:	443b8000 	.word	0x443b8000

080021f4 <right_turn>:
 80021f4:	b570      	push	{r4, r5, r6, lr}
 80021f6:	4604      	mov	r4, r0
 80021f8:	4e12      	ldr	r6, [pc, #72]	; (8002244 <right_turn+0x50>)
 80021fa:	4d13      	ldr	r5, [pc, #76]	; (8002248 <right_turn+0x54>)
 80021fc:	f7ff ff1a 	bl	8002034 <servomotor_right>
 8002200:	20fa      	movs	r0, #250	; 0xfa
 8002202:	f003 f8ec 	bl	80053de <osDelay>
 8002206:	2200      	movs	r2, #0
 8002208:	2300      	movs	r3, #0
 800220a:	e9c6 2300 	strd	r2, r3, [r6]
 800220e:	f7ff fdab 	bl	8001d68 <forward_motor_prep>
 8002212:	682b      	ldr	r3, [r5, #0]
 8002214:	f44f 727a 	mov.w	r2, #1000	; 0x3e8
 8002218:	635a      	str	r2, [r3, #52]	; 0x34
 800221a:	4264      	negs	r4, r4
 800221c:	639a      	str	r2, [r3, #56]	; 0x38
 800221e:	4620      	mov	r0, r4
 8002220:	f7fe f980 	bl	8000524 <__aeabi_i2d>
 8002224:	e9d6 2300 	ldrd	r2, r3, [r6]
 8002228:	f7fe fc58 	bl	8000adc <__aeabi_dcmplt>
 800222c:	b930      	cbnz	r0, 800223c <right_turn+0x48>
 800222e:	682b      	ldr	r3, [r5, #0]
 8002230:	e8bd 4070 	ldmia.w	sp!, {r4, r5, r6, lr}
 8002234:	6358      	str	r0, [r3, #52]	; 0x34
 8002236:	6398      	str	r0, [r3, #56]	; 0x38
 8002238:	f7ff bdb0 	b.w	8001d9c <servomotor_center>
 800223c:	200a      	movs	r0, #10
 800223e:	f003 f8ce 	bl	80053de <osDelay>
 8002242:	e7ec      	b.n	800221e <right_turn+0x2a>
 8002244:	20000708 	.word	0x20000708
 8002248:	20000928 	.word	0x20000928
 800224c:	00000000 	.word	0x00000000

08002250 <StartDefaultTask>:
 8002250:	e92d 47f0 	stmdb	sp!, {r4, r5, r6, r7, r8, r9, sl, lr}
 8002254:	4bb0      	ldr	r3, [pc, #704]	; (8002518 <StartDefaultTask+0x2c8>)
 8002256:	f8df 92e4 	ldr.w	r9, [pc, #740]	; 800253c <StartDefaultTask+0x2ec>
 800225a:	4fb0      	ldr	r7, [pc, #704]	; (800251c <StartDefaultTask+0x2cc>)
 800225c:	ed2d 8b02 	vpush	{d8}
 8002260:	2600      	movs	r6, #0
 8002262:	ed9f 8bab 	vldr	d8, [pc, #684]	; 8002510 <StartDefaultTask+0x2c0>
 8002266:	801e      	strh	r6, [r3, #0]
 8002268:	605e      	str	r6, [r3, #4]
 800226a:	4bad      	ldr	r3, [pc, #692]	; (8002520 <StartDefaultTask+0x2d0>)
 800226c:	ed83 8b00 	vstr	d8, [r3]
 8002270:	4bac      	ldr	r3, [pc, #688]	; (8002524 <StartDefaultTask+0x2d4>)
 8002272:	ed89 8b00 	vstr	d8, [r9]
 8002276:	ed83 8b00 	vstr	d8, [r3]
 800227a:	f8df a2c4 	ldr.w	sl, [pc, #708]	; 8002540 <StartDefaultTask+0x2f0>
 800227e:	f8da 3000 	ldr.w	r3, [sl]
 8002282:	b31b      	cbz	r3, 80022cc <StartDefaultTask+0x7c>
 8002284:	4ca8      	ldr	r4, [pc, #672]	; (8002528 <StartDefaultTask+0x2d8>)
 8002286:	f8df 82bc 	ldr.w	r8, [pc, #700]	; 8002544 <StartDefaultTask+0x2f4>
 800228a:	6823      	ldr	r3, [r4, #0]
 800228c:	4da7      	ldr	r5, [pc, #668]	; (800252c <StartDefaultTask+0x2dc>)
 800228e:	226c      	movs	r2, #108	; 0x6c
 8002290:	641a      	str	r2, [r3, #64]	; 0x40
 8002292:	f44f 70fa 	mov.w	r0, #500	; 0x1f4
 8002296:	f000 fe25 	bl	8002ee4 <HAL_Delay>
 800229a:	6823      	ldr	r3, [r4, #0]
 800229c:	22df      	movs	r2, #223	; 0xdf
 800229e:	641a      	str	r2, [r3, #64]	; 0x40
 80022a0:	f44f 70fa 	mov.w	r0, #500	; 0x1f4
 80022a4:	f000 fe1e 	bl	8002ee4 <HAL_Delay>
 80022a8:	6823      	ldr	r3, [r4, #0]
 80022aa:	229a      	movs	r2, #154	; 0x9a
 80022ac:	641a      	str	r2, [r3, #64]	; 0x40
 80022ae:	f44f 70fa 	mov.w	r0, #500	; 0x1f4
 80022b2:	f000 fe17 	bl	8002ee4 <HAL_Delay>
 80022b6:	499e      	ldr	r1, [pc, #632]	; (8002530 <StartDefaultTask+0x2e0>)
 80022b8:	489e      	ldr	r0, [pc, #632]	; (8002534 <StartDefaultTask+0x2e4>)
 80022ba:	f005 fa67 	bl	800778c <strtok>
 80022be:	f8c8 0000 	str.w	r0, [r8]
 80022c2:	f8d8 0000 	ldr.w	r0, [r8]
 80022c6:	b928      	cbnz	r0, 80022d4 <StartDefaultTask+0x84>
 80022c8:	f8ca 0000 	str.w	r0, [sl]
 80022cc:	200a      	movs	r0, #10
 80022ce:	f003 f886 	bl	80053de <osDelay>
 80022d2:	e7d2      	b.n	800227a <StartDefaultTask+0x2a>
 80022d4:	ed87 8b00 	vstr	d8, [r7]
 80022d8:	7843      	ldrb	r3, [r0, #1]
 80022da:	2b30      	cmp	r3, #48	; 0x30
 80022dc:	d006      	beq.n	80022ec <StartDefaultTask+0x9c>
 80022de:	3001      	adds	r0, #1
 80022e0:	f004 fd7e 	bl	8006de0 <atoi>
 80022e4:	f7fe f91e 	bl	8000524 <__aeabi_i2d>
 80022e8:	e9c7 0100 	strd	r0, r1, [r7]
 80022ec:	f8d8 3000 	ldr.w	r3, [r8]
 80022f0:	781b      	ldrb	r3, [r3, #0]
 80022f2:	3b62      	subs	r3, #98	; 0x62
 80022f4:	2b15      	cmp	r3, #21
 80022f6:	d846      	bhi.n	8002386 <StartDefaultTask+0x136>
 80022f8:	e8df f013 	tbh	[pc, r3, lsl #1]
 80022fc:	00450082 	.word	0x00450082
 8002300:	00450028 	.word	0x00450028
 8002304:	00450064 	.word	0x00450064
 8002308:	00450045 	.word	0x00450045
 800230c:	00450045 	.word	0x00450045
 8002310:	004500ba 	.word	0x004500ba
 8002314:	00450045 	.word	0x00450045
 8002318:	00450016 	.word	0x00450016
 800231c:	0048009c 	.word	0x0048009c
 8002320:	00d80045 	.word	0x00d80045
 8002324:	012600f0 	.word	0x012600f0
 8002328:	2058      	movs	r0, #88	; 0x58
 800232a:	ed89 8b00 	vstr	d8, [r9]
 800232e:	f7ff ff61 	bl	80021f4 <right_turn>
 8002332:	f8d8 3000 	ldr.w	r3, [r8]
 8002336:	497e      	ldr	r1, [pc, #504]	; (8002530 <StartDefaultTask+0x2e0>)
 8002338:	781e      	ldrb	r6, [r3, #0]
 800233a:	2000      	movs	r0, #0
 800233c:	f005 fa26 	bl	800778c <strtok>
 8002340:	f8c8 0000 	str.w	r0, [r8]
 8002344:	200a      	movs	r0, #10
 8002346:	f003 f84a 	bl	80053de <osDelay>
 800234a:	e7ba      	b.n	80022c2 <StartDefaultTask+0x72>
 800234c:	6823      	ldr	r3, [r4, #0]
 800234e:	226c      	movs	r2, #108	; 0x6c
 8002350:	641a      	str	r2, [r3, #64]	; 0x40
 8002352:	f44f 70fa 	mov.w	r0, #500	; 0x1f4
 8002356:	f000 fdc5 	bl	8002ee4 <HAL_Delay>
 800235a:	6823      	ldr	r3, [r4, #0]
 800235c:	22df      	movs	r2, #223	; 0xdf
 800235e:	641a      	str	r2, [r3, #64]	; 0x40
 8002360:	f44f 70fa 	mov.w	r0, #500	; 0x1f4
 8002364:	f000 fdbe 	bl	8002ee4 <HAL_Delay>
 8002368:	6823      	ldr	r3, [r4, #0]
 800236a:	229a      	movs	r2, #154	; 0x9a
 800236c:	641a      	str	r2, [r3, #64]	; 0x40
 800236e:	f44f 70fa 	mov.w	r0, #500	; 0x1f4
 8002372:	f000 fdb7 	bl	8002ee4 <HAL_Delay>
 8002376:	f7ff fe7d 	bl	8002074 <tightRightTurn>
 800237a:	486f      	ldr	r0, [pc, #444]	; (8002538 <StartDefaultTask+0x2e8>)
 800237c:	2364      	movs	r3, #100	; 0x64
 800237e:	2204      	movs	r2, #4
 8002380:	4629      	mov	r1, r5
 8002382:	f002 fd7d 	bl	8004e80 <HAL_UART_Transmit>
 8002386:	f7ff fbc7 	bl	8001b18 <stop>
 800238a:	e7d2      	b.n	8002332 <StartDefaultTask+0xe2>
 800238c:	2e73      	cmp	r6, #115	; 0x73
 800238e:	d014      	beq.n	80023ba <StartDefaultTask+0x16a>
 8002390:	6823      	ldr	r3, [r4, #0]
 8002392:	226c      	movs	r2, #108	; 0x6c
 8002394:	641a      	str	r2, [r3, #64]	; 0x40
 8002396:	f44f 70fa 	mov.w	r0, #500	; 0x1f4
 800239a:	f000 fda3 	bl	8002ee4 <HAL_Delay>
 800239e:	6823      	ldr	r3, [r4, #0]
 80023a0:	22df      	movs	r2, #223	; 0xdf
 80023a2:	641a      	str	r2, [r3, #64]	; 0x40
 80023a4:	f44f 70fa 	mov.w	r0, #500	; 0x1f4
 80023a8:	f000 fd9c 	bl	8002ee4 <HAL_Delay>
 80023ac:	6823      	ldr	r3, [r4, #0]
 80023ae:	229a      	movs	r2, #154	; 0x9a
 80023b0:	641a      	str	r2, [r3, #64]	; 0x40
 80023b2:	f44f 70fa 	mov.w	r0, #500	; 0x1f4
 80023b6:	f000 fd95 	bl	8002ee4 <HAL_Delay>
 80023ba:	f7ff fbb5 	bl	8001b28 <forward>
 80023be:	f240 10db 	movw	r0, #475	; 0x1db
 80023c2:	e01a      	b.n	80023fa <StartDefaultTask+0x1aa>
 80023c4:	6823      	ldr	r3, [r4, #0]
 80023c6:	226c      	movs	r2, #108	; 0x6c
 80023c8:	641a      	str	r2, [r3, #64]	; 0x40
 80023ca:	f44f 70fa 	mov.w	r0, #500	; 0x1f4
 80023ce:	f000 fd89 	bl	8002ee4 <HAL_Delay>
 80023d2:	6823      	ldr	r3, [r4, #0]
 80023d4:	22df      	movs	r2, #223	; 0xdf
 80023d6:	641a      	str	r2, [r3, #64]	; 0x40
 80023d8:	f44f 70fa 	mov.w	r0, #500	; 0x1f4
 80023dc:	f000 fd82 	bl	8002ee4 <HAL_Delay>
 80023e0:	6823      	ldr	r3, [r4, #0]
 80023e2:	229a      	movs	r2, #154	; 0x9a
 80023e4:	f44f 70fa 	mov.w	r0, #500	; 0x1f4
 80023e8:	641a      	str	r2, [r3, #64]	; 0x40
 80023ea:	f000 fd7b 	bl	8002ee4 <HAL_Delay>
 80023ee:	f7ff fb9b 	bl	8001b28 <forward>
 80023f2:	e9d7 0100 	ldrd	r0, r1, [r7]
 80023f6:	f7fe fbd7 	bl	8000ba8 <__aeabi_d2uiz>
 80023fa:	f000 fd73 	bl	8002ee4 <HAL_Delay>
 80023fe:	e7bc      	b.n	800237a <StartDefaultTask+0x12a>
 8002400:	2e62      	cmp	r6, #98	; 0x62
 8002402:	d014      	beq.n	800242e <StartDefaultTask+0x1de>
 8002404:	6823      	ldr	r3, [r4, #0]
 8002406:	226c      	movs	r2, #108	; 0x6c
 8002408:	641a      	str	r2, [r3, #64]	; 0x40
 800240a:	f44f 70fa 	mov.w	r0, #500	; 0x1f4
 800240e:	f000 fd69 	bl	8002ee4 <HAL_Delay>
 8002412:	6823      	ldr	r3, [r4, #0]
 8002414:	22df      	movs	r2, #223	; 0xdf
 8002416:	641a      	str	r2, [r3, #64]	; 0x40
 8002418:	f44f 70fa 	mov.w	r0, #500	; 0x1f4
 800241c:	f000 fd62 	bl	8002ee4 <HAL_Delay>
 8002420:	6823      	ldr	r3, [r4, #0]
 8002422:	229a      	movs	r2, #154	; 0x9a
 8002424:	641a      	str	r2, [r3, #64]	; 0x40
 8002426:	f44f 70fa 	mov.w	r0, #500	; 0x1f4
 800242a:	f000 fd5b 	bl	8002ee4 <HAL_Delay>
 800242e:	f7ff fbeb 	bl	8001c08 <reverse>
 8002432:	e7c4      	b.n	80023be <StartDefaultTask+0x16e>
 8002434:	6823      	ldr	r3, [r4, #0]
 8002436:	226c      	movs	r2, #108	; 0x6c
 8002438:	641a      	str	r2, [r3, #64]	; 0x40
 800243a:	f44f 70fa 	mov.w	r0, #500	; 0x1f4
 800243e:	f000 fd51 	bl	8002ee4 <HAL_Delay>
 8002442:	6823      	ldr	r3, [r4, #0]
 8002444:	22df      	movs	r2, #223	; 0xdf
 8002446:	641a      	str	r2, [r3, #64]	; 0x40
 8002448:	f44f 70fa 	mov.w	r0, #500	; 0x1f4
 800244c:	f000 fd4a 	bl	8002ee4 <HAL_Delay>
 8002450:	6823      	ldr	r3, [r4, #0]
 8002452:	229a      	movs	r2, #154	; 0x9a
 8002454:	641a      	str	r2, [r3, #64]	; 0x40
 8002456:	f44f 70fa 	mov.w	r0, #500	; 0x1f4
 800245a:	f000 fd43 	bl	8002ee4 <HAL_Delay>
 800245e:	e9d7 0100 	ldrd	r0, r1, [r7]
 8002462:	f7fe fbc1 	bl	8000be8 <__aeabi_d2f>
 8002466:	ee00 0a10 	vmov	s0, r0
 800246a:	f7ff fc23 	bl	8001cb4 <fullRightForward>
 800246e:	e784      	b.n	800237a <StartDefaultTask+0x12a>
 8002470:	6823      	ldr	r3, [r4, #0]
 8002472:	226c      	movs	r2, #108	; 0x6c
 8002474:	641a      	str	r2, [r3, #64]	; 0x40
 8002476:	f44f 70fa 	mov.w	r0, #500	; 0x1f4
 800247a:	f000 fd33 	bl	8002ee4 <HAL_Delay>
 800247e:	6823      	ldr	r3, [r4, #0]
 8002480:	22df      	movs	r2, #223	; 0xdf
 8002482:	641a      	str	r2, [r3, #64]	; 0x40
 8002484:	f44f 70fa 	mov.w	r0, #500	; 0x1f4
 8002488:	f000 fd2c 	bl	8002ee4 <HAL_Delay>
 800248c:	6823      	ldr	r3, [r4, #0]
 800248e:	229a      	movs	r2, #154	; 0x9a
 8002490:	641a      	str	r2, [r3, #64]	; 0x40
 8002492:	f44f 70fa 	mov.w	r0, #500	; 0x1f4
 8002496:	f000 fd25 	bl	8002ee4 <HAL_Delay>
 800249a:	e9d7 0100 	ldrd	r0, r1, [r7]
 800249e:	f7fe fba3 	bl	8000be8 <__aeabi_d2f>
 80024a2:	ee00 0a10 	vmov	s0, r0
 80024a6:	f7ff fbe7 	bl	8001c78 <fullLeftForward>
 80024aa:	e766      	b.n	800237a <StartDefaultTask+0x12a>
 80024ac:	6823      	ldr	r3, [r4, #0]
 80024ae:	226c      	movs	r2, #108	; 0x6c
 80024b0:	641a      	str	r2, [r3, #64]	; 0x40
 80024b2:	f44f 70fa 	mov.w	r0, #500	; 0x1f4
 80024b6:	f000 fd15 	bl	8002ee4 <HAL_Delay>
 80024ba:	6823      	ldr	r3, [r4, #0]
 80024bc:	22df      	movs	r2, #223	; 0xdf
 80024be:	641a      	str	r2, [r3, #64]	; 0x40
 80024c0:	f44f 70fa 	mov.w	r0, #500	; 0x1f4
 80024c4:	f000 fd0e 	bl	8002ee4 <HAL_Delay>
 80024c8:	6823      	ldr	r3, [r4, #0]
 80024ca:	229a      	movs	r2, #154	; 0x9a
 80024cc:	641a      	str	r2, [r3, #64]	; 0x40
 80024ce:	f44f 70fa 	mov.w	r0, #500	; 0x1f4
 80024d2:	f000 fd07 	bl	8002ee4 <HAL_Delay>
 80024d6:	f7ff fdf3 	bl	80020c0 <tightLeftTurn>
 80024da:	e74e      	b.n	800237a <StartDefaultTask+0x12a>
 80024dc:	6823      	ldr	r3, [r4, #0]
 80024de:	226c      	movs	r2, #108	; 0x6c
 80024e0:	641a      	str	r2, [r3, #64]	; 0x40
 80024e2:	f44f 70fa 	mov.w	r0, #500	; 0x1f4
 80024e6:	f000 fcfd 	bl	8002ee4 <HAL_Delay>
 80024ea:	6823      	ldr	r3, [r4, #0]
 80024ec:	22df      	movs	r2, #223	; 0xdf
 80024ee:	641a      	str	r2, [r3, #64]	; 0x40
 80024f0:	f44f 70fa 	mov.w	r0, #500	; 0x1f4
 80024f4:	f000 fcf6 	bl	8002ee4 <HAL_Delay>
 80024f8:	6823      	ldr	r3, [r4, #0]
 80024fa:	229a      	movs	r2, #154	; 0x9a
 80024fc:	641a      	str	r2, [r3, #64]	; 0x40
 80024fe:	f44f 70fa 	mov.w	r0, #500	; 0x1f4
 8002502:	f000 fcef 	bl	8002ee4 <HAL_Delay>
 8002506:	f7ff fe01 	bl	800210c <tightreverseLeftTurn>
 800250a:	e736      	b.n	800237a <StartDefaultTask+0x12a>
 800250c:	f3af 8000 	nop.w
	...
 8002518:	2000075c 	.word	0x2000075c
 800251c:	20000a08 	.word	0x20000a08
 8002520:	20000248 	.word	0x20000248
 8002524:	200006e0 	.word	0x200006e0
 8002528:	200007c0 	.word	0x200007c0
 800252c:	20000018 	.word	0x20000018
 8002530:	08009f48 	.word	0x08009f48
 8002534:	200009cc 	.word	0x200009cc
 8002538:	20000970 	.word	0x20000970
 800253c:	20000708 	.word	0x20000708
 8002540:	200009bc 	.word	0x200009bc
 8002544:	20000a10 	.word	0x20000a10
 8002548:	6823      	ldr	r3, [r4, #0]
 800254a:	226c      	movs	r2, #108	; 0x6c
 800254c:	641a      	str	r2, [r3, #64]	; 0x40
 800254e:	f44f 70fa 	mov.w	r0, #500	; 0x1f4
 8002552:	f000 fcc7 	bl	8002ee4 <HAL_Delay>
 8002556:	6823      	ldr	r3, [r4, #0]
 8002558:	22df      	movs	r2, #223	; 0xdf
 800255a:	641a      	str	r2, [r3, #64]	; 0x40
 800255c:	f44f 70fa 	mov.w	r0, #500	; 0x1f4
 8002560:	f000 fcc0 	bl	8002ee4 <HAL_Delay>
 8002564:	6823      	ldr	r3, [r4, #0]
 8002566:	229a      	movs	r2, #154	; 0x9a
 8002568:	641a      	str	r2, [r3, #64]	; 0x40
 800256a:	f44f 70fa 	mov.w	r0, #500	; 0x1f4
 800256e:	f000 fcb9 	bl	8002ee4 <HAL_Delay>
 8002572:	f7ff fe05 	bl	8002180 <tightreverseRightTurn>
 8002576:	e700      	b.n	800237a <StartDefaultTask+0x12a>

08002578 <HAL_UART_RxCpltCallback>:
 8002578:	4814      	ldr	r0, [pc, #80]	; (80025cc <HAL_UART_RxCpltCallback+0x54>)
 800257a:	6803      	ldr	r3, [r0, #0]
 800257c:	b510      	push	{r4, lr}
 800257e:	b9bb      	cbnz	r3, 80025b0 <HAL_UART_RxCpltCallback+0x38>
 8002580:	4a13      	ldr	r2, [pc, #76]	; (80025d0 <HAL_UART_RxCpltCallback+0x58>)
 8002582:	4b14      	ldr	r3, [pc, #80]	; (80025d4 <HAL_UART_RxCpltCallback+0x5c>)
 8002584:	7811      	ldrb	r1, [r2, #0]
 8002586:	7019      	strb	r1, [r3, #0]
 8002588:	4b13      	ldr	r3, [pc, #76]	; (80025d8 <HAL_UART_RxCpltCallback+0x60>)
 800258a:	7851      	ldrb	r1, [r2, #1]
 800258c:	7019      	strb	r1, [r3, #0]
 800258e:	7893      	ldrb	r3, [r2, #2]
 8002590:	f1a3 0130 	sub.w	r1, r3, #48	; 0x30
 8002594:	78d3      	ldrb	r3, [r2, #3]
 8002596:	7912      	ldrb	r2, [r2, #4]
 8002598:	240a      	movs	r4, #10
 800259a:	3b30      	subs	r3, #48	; 0x30
 800259c:	4363      	muls	r3, r4
 800259e:	2464      	movs	r4, #100	; 0x64
 80025a0:	3a30      	subs	r2, #48	; 0x30
 80025a2:	fb04 3301 	mla	r3, r4, r1, r3
 80025a6:	4413      	add	r3, r2
 80025a8:	4a0c      	ldr	r2, [pc, #48]	; (80025dc <HAL_UART_RxCpltCallback+0x64>)
 80025aa:	6013      	str	r3, [r2, #0]
 80025ac:	2301      	movs	r3, #1
 80025ae:	6003      	str	r3, [r0, #0]
 80025b0:	4907      	ldr	r1, [pc, #28]	; (80025d0 <HAL_UART_RxCpltCallback+0x58>)
 80025b2:	480b      	ldr	r0, [pc, #44]	; (80025e0 <HAL_UART_RxCpltCallback+0x68>)
 80025b4:	f005 f8e2 	bl	800777c <strcpy>
 80025b8:	4b0a      	ldr	r3, [pc, #40]	; (80025e4 <HAL_UART_RxCpltCallback+0x6c>)
 80025ba:	4905      	ldr	r1, [pc, #20]	; (80025d0 <HAL_UART_RxCpltCallback+0x58>)
 80025bc:	480a      	ldr	r0, [pc, #40]	; (80025e8 <HAL_UART_RxCpltCallback+0x70>)
 80025be:	2201      	movs	r2, #1
 80025c0:	601a      	str	r2, [r3, #0]
 80025c2:	e8bd 4010 	ldmia.w	sp!, {r4, lr}
 80025c6:	2232      	movs	r2, #50	; 0x32
 80025c8:	f002 be7b 	b.w	80052c2 <HAL_UART_Receive_IT>
 80025cc:	200006e8 	.word	0x200006e8
 80025d0:	20000714 	.word	0x20000714
 80025d4:	200006f0 	.word	0x200006f0
 80025d8:	200006f1 	.word	0x200006f1
 80025dc:	200006ec 	.word	0x200006ec
 80025e0:	200009cc 	.word	0x200009cc
 80025e4:	200009bc 	.word	0x200009bc
 80025e8:	20000970 	.word	0x20000970

080025ec <writeByte>:
 80025ec:	b507      	push	{r0, r1, r2, lr}
 80025ee:	4b07      	ldr	r3, [pc, #28]	; (800260c <writeByte+0x20>)
 80025f0:	4a07      	ldr	r2, [pc, #28]	; (8002610 <writeByte+0x24>)
 80025f2:	7051      	strb	r1, [r2, #1]
 80025f4:	7819      	ldrb	r1, [r3, #0]
 80025f6:	7010      	strb	r0, [r2, #0]
 80025f8:	2314      	movs	r3, #20
 80025fa:	9300      	str	r3, [sp, #0]
 80025fc:	0049      	lsls	r1, r1, #1
 80025fe:	2302      	movs	r3, #2
 8002600:	4804      	ldr	r0, [pc, #16]	; (8002614 <writeByte+0x28>)
 8002602:	f000 ffc9 	bl	8003598 <HAL_I2C_Master_Transmit>
 8002606:	b003      	add	sp, #12
 8002608:	f85d fb04 	ldr.w	pc, [sp], #4
 800260c:	20000000 	.word	0x20000000
 8002610:	20000746 	.word	0x20000746
 8002614:	2000076c 	.word	0x2000076c

08002618 <gyroInit>:
 8002618:	b508      	push	{r3, lr}
 800261a:	2100      	movs	r1, #0
 800261c:	2006      	movs	r0, #6
 800261e:	f7ff ffe5 	bl	80025ec <writeByte>
 8002622:	200a      	movs	r0, #10
 8002624:	f002 fee7 	bl	80053f6 <osDelayUntil>
 8002628:	2180      	movs	r1, #128	; 0x80
 800262a:	2003      	movs	r0, #3
 800262c:	f7ff ffde 	bl	80025ec <writeByte>
 8002630:	200a      	movs	r0, #10
 8002632:	f002 fee0 	bl	80053f6 <osDelayUntil>
 8002636:	213f      	movs	r1, #63	; 0x3f
 8002638:	2007      	movs	r0, #7
 800263a:	f7ff ffd7 	bl	80025ec <writeByte>
 800263e:	200a      	movs	r0, #10
 8002640:	f002 fed9 	bl	80053f6 <osDelayUntil>
 8002644:	2101      	movs	r1, #1
 8002646:	2006      	movs	r0, #6
 8002648:	f7ff ffd0 	bl	80025ec <writeByte>
 800264c:	200a      	movs	r0, #10
 800264e:	f002 fed2 	bl	80053f6 <osDelayUntil>
 8002652:	2120      	movs	r1, #32
 8002654:	207f      	movs	r0, #127	; 0x7f
 8002656:	f7ff ffc9 	bl	80025ec <writeByte>
 800265a:	200a      	movs	r0, #10
 800265c:	f002 fecb 	bl	80053f6 <osDelayUntil>
 8002660:	212f      	movs	r1, #47	; 0x2f
 8002662:	2001      	movs	r0, #1
 8002664:	f7ff ffc2 	bl	80025ec <writeByte>
 8002668:	200a      	movs	r0, #10
 800266a:	f002 fec4 	bl	80053f6 <osDelayUntil>
 800266e:	2100      	movs	r1, #0
 8002670:	4608      	mov	r0, r1
 8002672:	f7ff ffbb 	bl	80025ec <writeByte>
 8002676:	200a      	movs	r0, #10
 8002678:	f002 febd 	bl	80053f6 <osDelayUntil>
 800267c:	212f      	movs	r1, #47	; 0x2f
 800267e:	2001      	movs	r0, #1
 8002680:	f7ff ffb4 	bl	80025ec <writeByte>
 8002684:	200a      	movs	r0, #10
 8002686:	f002 feb6 	bl	80053f6 <osDelayUntil>
 800268a:	2100      	movs	r1, #0
 800268c:	4608      	mov	r0, r1
 800268e:	f7ff ffad 	bl	80025ec <writeByte>
 8002692:	200a      	movs	r0, #10
 8002694:	f002 feaf 	bl	80053f6 <osDelayUntil>
 8002698:	2100      	movs	r1, #0
 800269a:	207f      	movs	r0, #127	; 0x7f
 800269c:	f7ff ffa6 	bl	80025ec <writeByte>
 80026a0:	200a      	movs	r0, #10
 80026a2:	f002 fea8 	bl	80053f6 <osDelayUntil>
 80026a6:	2007      	movs	r0, #7
 80026a8:	2100      	movs	r1, #0
 80026aa:	f7ff ff9f 	bl	80025ec <writeByte>
 80026ae:	e8bd 4008 	ldmia.w	sp!, {r3, lr}
 80026b2:	200a      	movs	r0, #10
 80026b4:	f002 be9f 	b.w	80053f6 <osDelayUntil>

080026b8 <readByte>:
 80026b8:	b573      	push	{r0, r1, r4, r5, r6, lr}
 80026ba:	4e0c      	ldr	r6, [pc, #48]	; (80026ec <readByte+0x34>)
 80026bc:	4a0c      	ldr	r2, [pc, #48]	; (80026f0 <readByte+0x38>)
 80026be:	4d0d      	ldr	r5, [pc, #52]	; (80026f4 <readByte+0x3c>)
 80026c0:	7010      	strb	r0, [r2, #0]
 80026c2:	460c      	mov	r4, r1
 80026c4:	230a      	movs	r3, #10
 80026c6:	7831      	ldrb	r1, [r6, #0]
 80026c8:	9300      	str	r3, [sp, #0]
 80026ca:	2301      	movs	r3, #1
 80026cc:	4099      	lsls	r1, r3
 80026ce:	4628      	mov	r0, r5
 80026d0:	f000 ff62 	bl	8003598 <HAL_I2C_Master_Transmit>
 80026d4:	7831      	ldrb	r1, [r6, #0]
 80026d6:	2314      	movs	r3, #20
 80026d8:	9300      	str	r3, [sp, #0]
 80026da:	4622      	mov	r2, r4
 80026dc:	2302      	movs	r3, #2
 80026de:	0049      	lsls	r1, r1, #1
 80026e0:	4628      	mov	r0, r5
 80026e2:	f001 f831 	bl	8003748 <HAL_I2C_Master_Receive>
 80026e6:	b002      	add	sp, #8
 80026e8:	bd70      	pop	{r4, r5, r6, pc}
 80026ea:	bf00      	nop
 80026ec:	20000000 	.word	0x20000000
 80026f0:	20000746 	.word	0x20000746
 80026f4:	2000076c 	.word	0x2000076c

080026f8 <gyro_task>:
 80026f8:	e92d 4ff7 	stmdb	sp!, {r0, r1, r2, r4, r5, r6, r7, r8, r9, sl, fp, lr}
 80026fc:	2300      	movs	r3, #0
 80026fe:	f8ad 3004 	strh.w	r3, [sp, #4]
 8002702:	f7ff ff89 	bl	8002618 <gyroInit>
 8002706:	f000 fbe7 	bl	8002ed8 <HAL_GetTick>
 800270a:	4680      	mov	r8, r0
 800270c:	200a      	movs	r0, #10
 800270e:	f002 fe72 	bl	80053f6 <osDelayUntil>
 8002712:	4f41      	ldr	r7, [pc, #260]	; (8002818 <gyro_task+0x120>)
 8002714:	2600      	movs	r6, #0
 8002716:	200a      	movs	r0, #10
 8002718:	f002 fe61 	bl	80053de <osDelay>
 800271c:	f000 fbdc 	bl	8002ed8 <HAL_GetTick>
 8002720:	eba0 0008 	sub.w	r0, r0, r8
 8002724:	2831      	cmp	r0, #49	; 0x31
 8002726:	d9f6      	bls.n	8002716 <gyro_task+0x1e>
 8002728:	a901      	add	r1, sp, #4
 800272a:	2037      	movs	r0, #55	; 0x37
 800272c:	f7ff ffc4 	bl	80026b8 <readByte>
 8002730:	f8bd 0004 	ldrh.w	r0, [sp, #4]
 8002734:	f8df a0fc 	ldr.w	sl, [pc, #252]	; 8002834 <gyro_task+0x13c>
 8002738:	f8df b0fc 	ldr.w	fp, [pc, #252]	; 8002838 <gyro_task+0x140>
 800273c:	bac0      	revsh	r0, r0
 800273e:	f7fd fef1 	bl	8000524 <__aeabi_i2d>
 8002742:	a331      	add	r3, pc, #196	; (adr r3, 8002808 <gyro_task+0x110>)
 8002744:	e9d3 2300 	ldrd	r2, r3, [r3]
 8002748:	f7fd fda0 	bl	800028c <__adddf3>
 800274c:	460d      	mov	r5, r1
 800274e:	4604      	mov	r4, r0
 8002750:	f000 fbc2 	bl	8002ed8 <HAL_GetTick>
 8002754:	eba0 0008 	sub.w	r0, r0, r8
 8002758:	f7fd fed4 	bl	8000504 <__aeabi_ui2d>
 800275c:	a32c      	add	r3, pc, #176	; (adr r3, 8002810 <gyro_task+0x118>)
 800275e:	e9d3 2300 	ldrd	r2, r3, [r3]
 8002762:	f7fe f873 	bl	800084c <__aeabi_ddiv>
 8002766:	4622      	mov	r2, r4
 8002768:	462b      	mov	r3, r5
 800276a:	f7fd ff45 	bl	80005f8 <__aeabi_dmul>
 800276e:	e9da 2300 	ldrd	r2, r3, [sl]
 8002772:	4680      	mov	r8, r0
 8002774:	4689      	mov	r9, r1
 8002776:	f7fd fd89 	bl	800028c <__adddf3>
 800277a:	4642      	mov	r2, r8
 800277c:	4604      	mov	r4, r0
 800277e:	460d      	mov	r5, r1
 8002780:	464b      	mov	r3, r9
 8002782:	e9db 0100 	ldrd	r0, r1, [fp]
 8002786:	e9ca 4500 	strd	r4, r5, [sl]
 800278a:	f7fd fd7f 	bl	800028c <__adddf3>
 800278e:	4632      	mov	r2, r6
 8002790:	e9cb 0100 	strd	r0, r1, [fp]
 8002794:	463b      	mov	r3, r7
 8002796:	4620      	mov	r0, r4
 8002798:	4629      	mov	r1, r5
 800279a:	f7fe f9b3 	bl	8000b04 <__aeabi_dcmpge>
 800279e:	b138      	cbz	r0, 80027b0 <gyro_task+0xb8>
 80027a0:	4632      	mov	r2, r6
 80027a2:	463b      	mov	r3, r7
 80027a4:	4620      	mov	r0, r4
 80027a6:	4629      	mov	r1, r5
 80027a8:	f7fd fd6e 	bl	8000288 <__aeabi_dsub>
 80027ac:	e9ca 0100 	strd	r0, r1, [sl]
 80027b0:	e9da 4500 	ldrd	r4, r5, [sl]
 80027b4:	4b19      	ldr	r3, [pc, #100]	; (800281c <gyro_task+0x124>)
 80027b6:	2200      	movs	r2, #0
 80027b8:	4620      	mov	r0, r4
 80027ba:	4629      	mov	r1, r5
 80027bc:	f7fe f998 	bl	8000af0 <__aeabi_dcmple>
 80027c0:	b138      	cbz	r0, 80027d2 <gyro_task+0xda>
 80027c2:	4632      	mov	r2, r6
 80027c4:	463b      	mov	r3, r7
 80027c6:	4620      	mov	r0, r4
 80027c8:	4629      	mov	r1, r5
 80027ca:	f7fd fd5f 	bl	800028c <__adddf3>
 80027ce:	e9ca 0100 	strd	r0, r1, [sl]
 80027d2:	e9da 0100 	ldrd	r0, r1, [sl]
 80027d6:	f7fe f9bf 	bl	8000b58 <__aeabi_d2iz>
 80027da:	4911      	ldr	r1, [pc, #68]	; (8002820 <gyro_task+0x128>)
 80027dc:	4602      	mov	r2, r0
 80027de:	4811      	ldr	r0, [pc, #68]	; (8002824 <gyro_task+0x12c>)
 80027e0:	f004 ffac 	bl	800773c <siprintf>
 80027e4:	4b10      	ldr	r3, [pc, #64]	; (8002828 <gyro_task+0x130>)
 80027e6:	2200      	movs	r2, #0
 80027e8:	e9da 0100 	ldrd	r0, r1, [sl]
 80027ec:	f7fd ff04 	bl	80005f8 <__aeabi_dmul>
 80027f0:	f7fe f9b2 	bl	8000b58 <__aeabi_d2iz>
 80027f4:	490d      	ldr	r1, [pc, #52]	; (800282c <gyro_task+0x134>)
 80027f6:	4602      	mov	r2, r0
 80027f8:	480d      	ldr	r0, [pc, #52]	; (8002830 <gyro_task+0x138>)
 80027fa:	f004 ff9f 	bl	800773c <siprintf>
 80027fe:	f000 fb6b 	bl	8002ed8 <HAL_GetTick>
 8002802:	4680      	mov	r8, r0
 8002804:	e787      	b.n	8002716 <gyro_task+0x1e>
 8002806:	bf00      	nop
 8002808:	95769f44 	.word	0x95769f44
 800280c:	401f6541 	.word	0x401f6541
 8002810:	00000000 	.word	0x00000000
 8002814:	40d00400 	.word	0x40d00400
 8002818:	40868000 	.word	0x40868000
 800281c:	c0868000 	.word	0xc0868000
 8002820:	08009e2c 	.word	0x08009e2c
 8002824:	200006a4 	.word	0x200006a4
 8002828:	40590000 	.word	0x40590000
 800282c:	08009e38 	.word	0x08009e38
 8002830:	200006b8 	.word	0x200006b8
 8002834:	20000700 	.word	0x20000700
 8002838:	20000708 	.word	0x20000708

0800283c <delay_us>:
 800283c:	4b03      	ldr	r3, [pc, #12]	; (800284c <delay_us+0x10>)
 800283e:	681b      	ldr	r3, [r3, #0]
 8002840:	2200      	movs	r2, #0
 8002842:	625a      	str	r2, [r3, #36]	; 0x24
 8002844:	6a5a      	ldr	r2, [r3, #36]	; 0x24
 8002846:	4282      	cmp	r2, r0
 8002848:	d3fc      	bcc.n	8002844 <delay_us+0x8>
 800284a:	4770      	bx	lr
 800284c:	20000898 	.word	0x20000898

08002850 <HAL_TIM_IC_CaptureCallback>:
 8002850:	b570      	push	{r4, r5, r6, lr}
 8002852:	7f06      	ldrb	r6, [r0, #28]
 8002854:	2e01      	cmp	r6, #1
 8002856:	4604      	mov	r4, r0
 8002858:	d110      	bne.n	800287c <HAL_TIM_IC_CaptureCallback+0x2c>
 800285a:	4d25      	ldr	r5, [pc, #148]	; (80028f0 <HAL_TIM_IC_CaptureCallback+0xa0>)
 800285c:	7829      	ldrb	r1, [r5, #0]
 800285e:	b971      	cbnz	r1, 800287e <HAL_TIM_IC_CaptureCallback+0x2e>
 8002860:	f001 fcb9 	bl	80041d6 <HAL_TIM_ReadCapturedValue>
 8002864:	4b23      	ldr	r3, [pc, #140]	; (80028f4 <HAL_TIM_IC_CaptureCallback+0xa4>)
 8002866:	702e      	strb	r6, [r5, #0]
 8002868:	6018      	str	r0, [r3, #0]
 800286a:	6823      	ldr	r3, [r4, #0]
 800286c:	6a1a      	ldr	r2, [r3, #32]
 800286e:	f022 020a 	bic.w	r2, r2, #10
 8002872:	621a      	str	r2, [r3, #32]
 8002874:	6a1a      	ldr	r2, [r3, #32]
 8002876:	f042 0202 	orr.w	r2, r2, #2
 800287a:	621a      	str	r2, [r3, #32]
 800287c:	bd70      	pop	{r4, r5, r6, pc}
 800287e:	2901      	cmp	r1, #1
 8002880:	d1fc      	bne.n	800287c <HAL_TIM_IC_CaptureCallback+0x2c>
 8002882:	2100      	movs	r1, #0
 8002884:	f001 fca7 	bl	80041d6 <HAL_TIM_ReadCapturedValue>
 8002888:	4b1b      	ldr	r3, [pc, #108]	; (80028f8 <HAL_TIM_IC_CaptureCallback+0xa8>)
 800288a:	4a1c      	ldr	r2, [pc, #112]	; (80028fc <HAL_TIM_IC_CaptureCallback+0xac>)
 800288c:	6018      	str	r0, [r3, #0]
 800288e:	6823      	ldr	r3, [r4, #0]
 8002890:	2100      	movs	r1, #0
 8002892:	6259      	str	r1, [r3, #36]	; 0x24
 8002894:	4b17      	ldr	r3, [pc, #92]	; (80028f4 <HAL_TIM_IC_CaptureCallback+0xa4>)
 8002896:	681b      	ldr	r3, [r3, #0]
 8002898:	4298      	cmp	r0, r3
 800289a:	d921      	bls.n	80028e0 <HAL_TIM_IC_CaptureCallback+0x90>
 800289c:	1ac3      	subs	r3, r0, r3
 800289e:	6013      	str	r3, [r2, #0]
 80028a0:	6810      	ldr	r0, [r2, #0]
 80028a2:	f7fd fe2f 	bl	8000504 <__aeabi_ui2d>
 80028a6:	a310      	add	r3, pc, #64	; (adr r3, 80028e8 <HAL_TIM_IC_CaptureCallback+0x98>)
 80028a8:	e9d3 2300 	ldrd	r2, r3, [r3]
 80028ac:	f7fd fea4 	bl	80005f8 <__aeabi_dmul>
 80028b0:	4b13      	ldr	r3, [pc, #76]	; (8002900 <HAL_TIM_IC_CaptureCallback+0xb0>)
 80028b2:	2200      	movs	r2, #0
 80028b4:	f7fd fea0 	bl	80005f8 <__aeabi_dmul>
 80028b8:	f7fe f976 	bl	8000ba8 <__aeabi_d2uiz>
 80028bc:	4b11      	ldr	r3, [pc, #68]	; (8002904 <HAL_TIM_IC_CaptureCallback+0xb4>)
 80028be:	7018      	strb	r0, [r3, #0]
 80028c0:	2300      	movs	r3, #0
 80028c2:	702b      	strb	r3, [r5, #0]
 80028c4:	6823      	ldr	r3, [r4, #0]
 80028c6:	6a1a      	ldr	r2, [r3, #32]
 80028c8:	f022 020a 	bic.w	r2, r2, #10
 80028cc:	621a      	str	r2, [r3, #32]
 80028ce:	6a1a      	ldr	r2, [r3, #32]
 80028d0:	621a      	str	r2, [r3, #32]
 80028d2:	4b0d      	ldr	r3, [pc, #52]	; (8002908 <HAL_TIM_IC_CaptureCallback+0xb8>)
 80028d4:	681a      	ldr	r2, [r3, #0]
 80028d6:	68d3      	ldr	r3, [r2, #12]
 80028d8:	f023 0302 	bic.w	r3, r3, #2
 80028dc:	60d3      	str	r3, [r2, #12]
 80028de:	e7cd      	b.n	800287c <HAL_TIM_IC_CaptureCallback+0x2c>
 80028e0:	bf38      	it	cc
 80028e2:	6011      	strcc	r1, [r2, #0]
 80028e4:	e7dc      	b.n	80028a0 <HAL_TIM_IC_CaptureCallback+0x50>
 80028e6:	bf00      	nop
 80028e8:	04816f00 	.word	0x04816f00
 80028ec:	3fa18fc5 	.word	0x3fa18fc5
 80028f0:	20000244 	.word	0x20000244
 80028f4:	20000238 	.word	0x20000238
 80028f8:	2000023c 	.word	0x2000023c
 80028fc:	20000230 	.word	0x20000230
 8002900:	3fe00000 	.word	0x3fe00000
 8002904:	20000234 	.word	0x20000234
 8002908:	20000898 	.word	0x20000898

0800290c <HCSR04_Read>:
 800290c:	b510      	push	{r4, lr}
 800290e:	4c0b      	ldr	r4, [pc, #44]	; (800293c <HCSR04_Read+0x30>)
 8002910:	2201      	movs	r2, #1
 8002912:	f44f 6100 	mov.w	r1, #2048	; 0x800
 8002916:	4620      	mov	r0, r4
 8002918:	f000 fc8e 	bl	8003238 <HAL_GPIO_WritePin>
 800291c:	200a      	movs	r0, #10
 800291e:	f7ff ff8d 	bl	800283c <delay_us>
 8002922:	f44f 6100 	mov.w	r1, #2048	; 0x800
 8002926:	2200      	movs	r2, #0
 8002928:	4620      	mov	r0, r4
 800292a:	f000 fc85 	bl	8003238 <HAL_GPIO_WritePin>
 800292e:	4b04      	ldr	r3, [pc, #16]	; (8002940 <HCSR04_Read+0x34>)
 8002930:	681a      	ldr	r2, [r3, #0]
 8002932:	68d3      	ldr	r3, [r2, #12]
 8002934:	f043 0302 	orr.w	r3, r3, #2
 8002938:	60d3      	str	r3, [r2, #12]
 800293a:	bd10      	pop	{r4, pc}
 800293c:	40021000 	.word	0x40021000
 8002940:	20000898 	.word	0x20000898

08002944 <ultrasound_task>:
 8002944:	b57f      	push	{r0, r1, r2, r3, r4, r5, r6, lr}
 8002946:	480b      	ldr	r0, [pc, #44]	; (8002974 <ultrasound_task+0x30>)
 8002948:	4d0b      	ldr	r5, [pc, #44]	; (8002978 <ultrasound_task+0x34>)
 800294a:	4c0c      	ldr	r4, [pc, #48]	; (800297c <ultrasound_task+0x38>)
 800294c:	2100      	movs	r1, #0
 800294e:	f002 f8bd 	bl	8004acc <HAL_TIM_IC_Start_IT>
 8002952:	f7ff ffdb 	bl	800290c <HCSR04_Read>
 8002956:	782a      	ldrb	r2, [r5, #0]
 8002958:	4621      	mov	r1, r4
 800295a:	a801      	add	r0, sp, #4
 800295c:	f004 feee 	bl	800773c <siprintf>
 8002960:	aa01      	add	r2, sp, #4
 8002962:	2132      	movs	r1, #50	; 0x32
 8002964:	200a      	movs	r0, #10
 8002966:	f7fe fd17 	bl	8001398 <OLED_ShowString>
 800296a:	200a      	movs	r0, #10
 800296c:	f002 fd37 	bl	80053de <osDelay>
 8002970:	e7ef      	b.n	8002952 <ultrasound_task+0xe>
 8002972:	bf00      	nop
 8002974:	20000898 	.word	0x20000898
 8002978:	20000234 	.word	0x20000234
 800297c:	08009e44 	.word	0x08009e44

08002980 <HAL_MspInit>:
 8002980:	b082      	sub	sp, #8
 8002982:	4b0e      	ldr	r3, [pc, #56]	; (80029bc <HAL_MspInit+0x3c>)
 8002984:	2200      	movs	r2, #0
 8002986:	9200      	str	r2, [sp, #0]
 8002988:	6c59      	ldr	r1, [r3, #68]	; 0x44
 800298a:	f441 4180 	orr.w	r1, r1, #16384	; 0x4000
 800298e:	6459      	str	r1, [r3, #68]	; 0x44
 8002990:	6c59      	ldr	r1, [r3, #68]	; 0x44
 8002992:	f401 4180 	and.w	r1, r1, #16384	; 0x4000
 8002996:	9100      	str	r1, [sp, #0]
 8002998:	9900      	ldr	r1, [sp, #0]
 800299a:	9201      	str	r2, [sp, #4]
 800299c:	6c19      	ldr	r1, [r3, #64]	; 0x40
 800299e:	f041 5180 	orr.w	r1, r1, #268435456	; 0x10000000
 80029a2:	6419      	str	r1, [r3, #64]	; 0x40
 80029a4:	6c1b      	ldr	r3, [r3, #64]	; 0x40
 80029a6:	f003 5380 	and.w	r3, r3, #268435456	; 0x10000000
 80029aa:	9301      	str	r3, [sp, #4]
 80029ac:	9b01      	ldr	r3, [sp, #4]
 80029ae:	210f      	movs	r1, #15
 80029b0:	f06f 0001 	mvn.w	r0, #1
 80029b4:	b002      	add	sp, #8
 80029b6:	f000 babb 	b.w	8002f30 <HAL_NVIC_SetPriority>
 80029ba:	bf00      	nop
 80029bc:	40023800 	.word	0x40023800

080029c0 <HAL_I2C_MspInit>:
 80029c0:	b530      	push	{r4, r5, lr}
 80029c2:	4604      	mov	r4, r0
 80029c4:	b089      	sub	sp, #36	; 0x24
 80029c6:	2214      	movs	r2, #20
 80029c8:	2100      	movs	r1, #0
 80029ca:	a803      	add	r0, sp, #12
 80029cc:	f004 fa44 	bl	8006e58 <memset>
 80029d0:	6822      	ldr	r2, [r4, #0]
 80029d2:	4b14      	ldr	r3, [pc, #80]	; (8002a24 <HAL_I2C_MspInit+0x64>)
 80029d4:	429a      	cmp	r2, r3
 80029d6:	d122      	bne.n	8002a1e <HAL_I2C_MspInit+0x5e>
 80029d8:	4c13      	ldr	r4, [pc, #76]	; (8002a28 <HAL_I2C_MspInit+0x68>)
 80029da:	4814      	ldr	r0, [pc, #80]	; (8002a2c <HAL_I2C_MspInit+0x6c>)
 80029dc:	2500      	movs	r5, #0
 80029de:	9501      	str	r5, [sp, #4]
 80029e0:	6b23      	ldr	r3, [r4, #48]	; 0x30
 80029e2:	f043 0302 	orr.w	r3, r3, #2
 80029e6:	6323      	str	r3, [r4, #48]	; 0x30
 80029e8:	6b23      	ldr	r3, [r4, #48]	; 0x30
 80029ea:	f003 0302 	and.w	r3, r3, #2
 80029ee:	9301      	str	r3, [sp, #4]
 80029f0:	9b01      	ldr	r3, [sp, #4]
 80029f2:	f44f 7240 	mov.w	r2, #768	; 0x300
 80029f6:	2312      	movs	r3, #18
 80029f8:	e9cd 2303 	strd	r2, r3, [sp, #12]
 80029fc:	2103      	movs	r1, #3
 80029fe:	2304      	movs	r3, #4
 8002a00:	e9cd 1306 	strd	r1, r3, [sp, #24]
 8002a04:	a903      	add	r1, sp, #12
 8002a06:	f000 fb3d 	bl	8003084 <HAL_GPIO_Init>
 8002a0a:	9502      	str	r5, [sp, #8]
 8002a0c:	6c23      	ldr	r3, [r4, #64]	; 0x40
 8002a0e:	f443 1300 	orr.w	r3, r3, #2097152	; 0x200000
 8002a12:	6423      	str	r3, [r4, #64]	; 0x40
 8002a14:	6c23      	ldr	r3, [r4, #64]	; 0x40
 8002a16:	f403 1300 	and.w	r3, r3, #2097152	; 0x200000
 8002a1a:	9302      	str	r3, [sp, #8]
 8002a1c:	9b02      	ldr	r3, [sp, #8]
 8002a1e:	b009      	add	sp, #36	; 0x24
 8002a20:	bd30      	pop	{r4, r5, pc}
 8002a22:	bf00      	nop
 8002a24:	40005400 	.word	0x40005400
 8002a28:	40023800 	.word	0x40023800
 8002a2c:	40020400 	.word	0x40020400

08002a30 <HAL_TIM_Base_MspInit>:
 8002a30:	b510      	push	{r4, lr}
 8002a32:	2214      	movs	r2, #20
 8002a34:	b08a      	sub	sp, #40	; 0x28
 8002a36:	4604      	mov	r4, r0
 8002a38:	2100      	movs	r1, #0
 8002a3a:	eb0d 0002 	add.w	r0, sp, r2
 8002a3e:	f004 fa0b 	bl	8006e58 <memset>
 8002a42:	6823      	ldr	r3, [r4, #0]
 8002a44:	4a30      	ldr	r2, [pc, #192]	; (8002b08 <HAL_TIM_Base_MspInit+0xd8>)
 8002a46:	4293      	cmp	r3, r2
 8002a48:	d10d      	bne.n	8002a66 <HAL_TIM_Base_MspInit+0x36>
 8002a4a:	2300      	movs	r3, #0
 8002a4c:	9300      	str	r3, [sp, #0]
 8002a4e:	4b2f      	ldr	r3, [pc, #188]	; (8002b0c <HAL_TIM_Base_MspInit+0xdc>)
 8002a50:	6c5a      	ldr	r2, [r3, #68]	; 0x44
 8002a52:	f042 0201 	orr.w	r2, r2, #1
 8002a56:	645a      	str	r2, [r3, #68]	; 0x44
 8002a58:	6c5b      	ldr	r3, [r3, #68]	; 0x44
 8002a5a:	f003 0301 	and.w	r3, r3, #1
 8002a5e:	9300      	str	r3, [sp, #0]
 8002a60:	9b00      	ldr	r3, [sp, #0]
 8002a62:	b00a      	add	sp, #40	; 0x28
 8002a64:	bd10      	pop	{r4, pc}
 8002a66:	4a2a      	ldr	r2, [pc, #168]	; (8002b10 <HAL_TIM_Base_MspInit+0xe0>)
 8002a68:	4293      	cmp	r3, r2
 8002a6a:	d128      	bne.n	8002abe <HAL_TIM_Base_MspInit+0x8e>
 8002a6c:	4b27      	ldr	r3, [pc, #156]	; (8002b0c <HAL_TIM_Base_MspInit+0xdc>)
 8002a6e:	4829      	ldr	r0, [pc, #164]	; (8002b14 <HAL_TIM_Base_MspInit+0xe4>)
 8002a70:	2400      	movs	r4, #0
 8002a72:	9401      	str	r4, [sp, #4]
 8002a74:	6c1a      	ldr	r2, [r3, #64]	; 0x40
 8002a76:	f042 0204 	orr.w	r2, r2, #4
 8002a7a:	641a      	str	r2, [r3, #64]	; 0x40
 8002a7c:	6c1a      	ldr	r2, [r3, #64]	; 0x40
 8002a7e:	f002 0204 	and.w	r2, r2, #4
 8002a82:	9201      	str	r2, [sp, #4]
 8002a84:	9a01      	ldr	r2, [sp, #4]
 8002a86:	9402      	str	r4, [sp, #8]
 8002a88:	6b1a      	ldr	r2, [r3, #48]	; 0x30
 8002a8a:	f042 0208 	orr.w	r2, r2, #8
 8002a8e:	631a      	str	r2, [r3, #48]	; 0x30
 8002a90:	6b1b      	ldr	r3, [r3, #48]	; 0x30
 8002a92:	f003 0308 	and.w	r3, r3, #8
 8002a96:	9302      	str	r3, [sp, #8]
 8002a98:	9b02      	ldr	r3, [sp, #8]
 8002a9a:	f44f 5180 	mov.w	r1, #4096	; 0x1000
 8002a9e:	2302      	movs	r3, #2
 8002aa0:	e9cd 1305 	strd	r1, r3, [sp, #20]
 8002aa4:	a905      	add	r1, sp, #20
 8002aa6:	9309      	str	r3, [sp, #36]	; 0x24
 8002aa8:	f000 faec 	bl	8003084 <HAL_GPIO_Init>
 8002aac:	4622      	mov	r2, r4
 8002aae:	2105      	movs	r1, #5
 8002ab0:	201e      	movs	r0, #30
 8002ab2:	f000 fa3d 	bl	8002f30 <HAL_NVIC_SetPriority>
 8002ab6:	201e      	movs	r0, #30
 8002ab8:	f000 fa6c 	bl	8002f94 <HAL_NVIC_EnableIRQ>
 8002abc:	e7d1      	b.n	8002a62 <HAL_TIM_Base_MspInit+0x32>
 8002abe:	4a16      	ldr	r2, [pc, #88]	; (8002b18 <HAL_TIM_Base_MspInit+0xe8>)
 8002ac0:	4293      	cmp	r3, r2
 8002ac2:	d1ce      	bne.n	8002a62 <HAL_TIM_Base_MspInit+0x32>
 8002ac4:	4b11      	ldr	r3, [pc, #68]	; (8002b0c <HAL_TIM_Base_MspInit+0xdc>)
 8002ac6:	4815      	ldr	r0, [pc, #84]	; (8002b1c <HAL_TIM_Base_MspInit+0xec>)
 8002ac8:	2100      	movs	r1, #0
 8002aca:	9103      	str	r1, [sp, #12]
 8002acc:	6c5a      	ldr	r2, [r3, #68]	; 0x44
 8002ace:	f042 0202 	orr.w	r2, r2, #2
 8002ad2:	645a      	str	r2, [r3, #68]	; 0x44
 8002ad4:	6c5a      	ldr	r2, [r3, #68]	; 0x44
 8002ad6:	f002 0202 	and.w	r2, r2, #2
 8002ada:	9203      	str	r2, [sp, #12]
 8002adc:	9a03      	ldr	r2, [sp, #12]
 8002ade:	9104      	str	r1, [sp, #16]
 8002ae0:	6b1a      	ldr	r2, [r3, #48]	; 0x30
 8002ae2:	f042 0204 	orr.w	r2, r2, #4
 8002ae6:	631a      	str	r2, [r3, #48]	; 0x30
 8002ae8:	6b1b      	ldr	r3, [r3, #48]	; 0x30
 8002aea:	f003 0304 	and.w	r3, r3, #4
 8002aee:	9304      	str	r3, [sp, #16]
 8002af0:	9b04      	ldr	r3, [sp, #16]
 8002af2:	22c0      	movs	r2, #192	; 0xc0
 8002af4:	2302      	movs	r3, #2
 8002af6:	e9cd 2305 	strd	r2, r3, [sp, #20]
 8002afa:	a905      	add	r1, sp, #20
 8002afc:	2303      	movs	r3, #3
 8002afe:	9309      	str	r3, [sp, #36]	; 0x24
 8002b00:	f000 fac0 	bl	8003084 <HAL_GPIO_Init>
 8002b04:	e7ad      	b.n	8002a62 <HAL_TIM_Base_MspInit+0x32>
 8002b06:	bf00      	nop
 8002b08:	40010000 	.word	0x40010000
 8002b0c:	40023800 	.word	0x40023800
 8002b10:	40000800 	.word	0x40000800
 8002b14:	40020c00 	.word	0x40020c00
 8002b18:	40010400 	.word	0x40010400
 8002b1c:	40020800 	.word	0x40020800

08002b20 <HAL_TIM_Encoder_MspInit>:
 8002b20:	b570      	push	{r4, r5, r6, lr}
 8002b22:	2214      	movs	r2, #20
 8002b24:	b08a      	sub	sp, #40	; 0x28
 8002b26:	4604      	mov	r4, r0
 8002b28:	2100      	movs	r1, #0
 8002b2a:	eb0d 0002 	add.w	r0, sp, r2
 8002b2e:	f004 f993 	bl	8006e58 <memset>
 8002b32:	6823      	ldr	r3, [r4, #0]
 8002b34:	f1b3 4f80 	cmp.w	r3, #1073741824	; 0x40000000
 8002b38:	d13f      	bne.n	8002bba <HAL_TIM_Encoder_MspInit+0x9a>
 8002b3a:	f503 330e 	add.w	r3, r3, #145408	; 0x23800
 8002b3e:	2400      	movs	r4, #0
 8002b40:	9400      	str	r4, [sp, #0]
 8002b42:	6c1a      	ldr	r2, [r3, #64]	; 0x40
 8002b44:	482e      	ldr	r0, [pc, #184]	; (8002c00 <HAL_TIM_Encoder_MspInit+0xe0>)
 8002b46:	f042 0201 	orr.w	r2, r2, #1
 8002b4a:	641a      	str	r2, [r3, #64]	; 0x40
 8002b4c:	6c1a      	ldr	r2, [r3, #64]	; 0x40
 8002b4e:	f002 0201 	and.w	r2, r2, #1
 8002b52:	9200      	str	r2, [sp, #0]
 8002b54:	9a00      	ldr	r2, [sp, #0]
 8002b56:	9401      	str	r4, [sp, #4]
 8002b58:	6b1a      	ldr	r2, [r3, #48]	; 0x30
 8002b5a:	f042 0201 	orr.w	r2, r2, #1
 8002b5e:	631a      	str	r2, [r3, #48]	; 0x30
 8002b60:	6b1a      	ldr	r2, [r3, #48]	; 0x30
 8002b62:	f002 0201 	and.w	r2, r2, #1
 8002b66:	9201      	str	r2, [sp, #4]
 8002b68:	9a01      	ldr	r2, [sp, #4]
 8002b6a:	9402      	str	r4, [sp, #8]
 8002b6c:	6b1a      	ldr	r2, [r3, #48]	; 0x30
 8002b6e:	f042 0202 	orr.w	r2, r2, #2
 8002b72:	631a      	str	r2, [r3, #48]	; 0x30
 8002b74:	6b1b      	ldr	r3, [r3, #48]	; 0x30
 8002b76:	f003 0302 	and.w	r3, r3, #2
 8002b7a:	9302      	str	r3, [sp, #8]
 8002b7c:	9b02      	ldr	r3, [sp, #8]
 8002b7e:	2602      	movs	r6, #2
 8002b80:	f44f 4300 	mov.w	r3, #32768	; 0x8000
 8002b84:	2501      	movs	r5, #1
 8002b86:	a905      	add	r1, sp, #20
 8002b88:	e9cd 3605 	strd	r3, r6, [sp, #20]
 8002b8c:	9509      	str	r5, [sp, #36]	; 0x24
 8002b8e:	f000 fa79 	bl	8003084 <HAL_GPIO_Init>
 8002b92:	2308      	movs	r3, #8
 8002b94:	481b      	ldr	r0, [pc, #108]	; (8002c04 <HAL_TIM_Encoder_MspInit+0xe4>)
 8002b96:	9509      	str	r5, [sp, #36]	; 0x24
 8002b98:	a905      	add	r1, sp, #20
 8002b9a:	e9cd 3605 	strd	r3, r6, [sp, #20]
 8002b9e:	e9cd 4407 	strd	r4, r4, [sp, #28]
 8002ba2:	f000 fa6f 	bl	8003084 <HAL_GPIO_Init>
 8002ba6:	201c      	movs	r0, #28
 8002ba8:	4622      	mov	r2, r4
 8002baa:	2105      	movs	r1, #5
 8002bac:	f000 f9c0 	bl	8002f30 <HAL_NVIC_SetPriority>
 8002bb0:	201c      	movs	r0, #28
 8002bb2:	f000 f9ef 	bl	8002f94 <HAL_NVIC_EnableIRQ>
 8002bb6:	b00a      	add	sp, #40	; 0x28
 8002bb8:	bd70      	pop	{r4, r5, r6, pc}
 8002bba:	4a13      	ldr	r2, [pc, #76]	; (8002c08 <HAL_TIM_Encoder_MspInit+0xe8>)
 8002bbc:	4293      	cmp	r3, r2
 8002bbe:	d1fa      	bne.n	8002bb6 <HAL_TIM_Encoder_MspInit+0x96>
 8002bc0:	4b12      	ldr	r3, [pc, #72]	; (8002c0c <HAL_TIM_Encoder_MspInit+0xec>)
 8002bc2:	480f      	ldr	r0, [pc, #60]	; (8002c00 <HAL_TIM_Encoder_MspInit+0xe0>)
 8002bc4:	2100      	movs	r1, #0
 8002bc6:	9103      	str	r1, [sp, #12]
 8002bc8:	6c1a      	ldr	r2, [r3, #64]	; 0x40
 8002bca:	f042 0202 	orr.w	r2, r2, #2
 8002bce:	641a      	str	r2, [r3, #64]	; 0x40
 8002bd0:	6c1a      	ldr	r2, [r3, #64]	; 0x40
 8002bd2:	f002 0202 	and.w	r2, r2, #2
 8002bd6:	9203      	str	r2, [sp, #12]
 8002bd8:	9a03      	ldr	r2, [sp, #12]
 8002bda:	9104      	str	r1, [sp, #16]
 8002bdc:	6b1a      	ldr	r2, [r3, #48]	; 0x30
 8002bde:	f042 0201 	orr.w	r2, r2, #1
 8002be2:	631a      	str	r2, [r3, #48]	; 0x30
 8002be4:	6b1b      	ldr	r3, [r3, #48]	; 0x30
 8002be6:	f003 0301 	and.w	r3, r3, #1
 8002bea:	9304      	str	r3, [sp, #16]
 8002bec:	9b04      	ldr	r3, [sp, #16]
 8002bee:	22c0      	movs	r2, #192	; 0xc0
 8002bf0:	2302      	movs	r3, #2
 8002bf2:	a905      	add	r1, sp, #20
 8002bf4:	e9cd 2305 	strd	r2, r3, [sp, #20]
 8002bf8:	9309      	str	r3, [sp, #36]	; 0x24
 8002bfa:	f000 fa43 	bl	8003084 <HAL_GPIO_Init>
 8002bfe:	e7da      	b.n	8002bb6 <HAL_TIM_Encoder_MspInit+0x96>
 8002c00:	40020000 	.word	0x40020000
 8002c04:	40020400 	.word	0x40020400
 8002c08:	40000400 	.word	0x40000400
 8002c0c:	40023800 	.word	0x40023800

08002c10 <HAL_TIM_MspPostInit>:
 8002c10:	b510      	push	{r4, lr}
 8002c12:	4604      	mov	r4, r0
 8002c14:	b086      	sub	sp, #24
 8002c16:	2214      	movs	r2, #20
 8002c18:	2100      	movs	r1, #0
 8002c1a:	a801      	add	r0, sp, #4
 8002c1c:	f004 f91c 	bl	8006e58 <memset>
 8002c20:	6822      	ldr	r2, [r4, #0]
 8002c22:	4b0e      	ldr	r3, [pc, #56]	; (8002c5c <HAL_TIM_MspPostInit+0x4c>)
 8002c24:	429a      	cmp	r2, r3
 8002c26:	d116      	bne.n	8002c56 <HAL_TIM_MspPostInit+0x46>
 8002c28:	2300      	movs	r3, #0
 8002c2a:	9300      	str	r3, [sp, #0]
 8002c2c:	4b0c      	ldr	r3, [pc, #48]	; (8002c60 <HAL_TIM_MspPostInit+0x50>)
 8002c2e:	480d      	ldr	r0, [pc, #52]	; (8002c64 <HAL_TIM_MspPostInit+0x54>)
 8002c30:	6b1a      	ldr	r2, [r3, #48]	; 0x30
 8002c32:	f042 0210 	orr.w	r2, r2, #16
 8002c36:	631a      	str	r2, [r3, #48]	; 0x30
 8002c38:	6b1b      	ldr	r3, [r3, #48]	; 0x30
 8002c3a:	f003 0310 	and.w	r3, r3, #16
 8002c3e:	9300      	str	r3, [sp, #0]
 8002c40:	9b00      	ldr	r3, [sp, #0]
 8002c42:	f44f 4280 	mov.w	r2, #16384	; 0x4000
 8002c46:	2302      	movs	r3, #2
 8002c48:	e9cd 2301 	strd	r2, r3, [sp, #4]
 8002c4c:	a901      	add	r1, sp, #4
 8002c4e:	2301      	movs	r3, #1
 8002c50:	9305      	str	r3, [sp, #20]
 8002c52:	f000 fa17 	bl	8003084 <HAL_GPIO_Init>
 8002c56:	b006      	add	sp, #24
 8002c58:	bd10      	pop	{r4, pc}
 8002c5a:	bf00      	nop
 8002c5c:	40010000 	.word	0x40010000
 8002c60:	40023800 	.word	0x40023800
 8002c64:	40021000 	.word	0x40021000

08002c68 <HAL_UART_MspInit>:
 8002c68:	b510      	push	{r4, lr}
 8002c6a:	4604      	mov	r4, r0
 8002c6c:	b088      	sub	sp, #32
 8002c6e:	2214      	movs	r2, #20
 8002c70:	2100      	movs	r1, #0
 8002c72:	a803      	add	r0, sp, #12
 8002c74:	f004 f8f0 	bl	8006e58 <memset>
 8002c78:	6822      	ldr	r2, [r4, #0]
 8002c7a:	4b18      	ldr	r3, [pc, #96]	; (8002cdc <HAL_UART_MspInit+0x74>)
 8002c7c:	429a      	cmp	r2, r3
 8002c7e:	d12b      	bne.n	8002cd8 <HAL_UART_MspInit+0x70>
 8002c80:	f503 33f8 	add.w	r3, r3, #126976	; 0x1f000
 8002c84:	2400      	movs	r4, #0
 8002c86:	9401      	str	r4, [sp, #4]
 8002c88:	6c1a      	ldr	r2, [r3, #64]	; 0x40
 8002c8a:	4815      	ldr	r0, [pc, #84]	; (8002ce0 <HAL_UART_MspInit+0x78>)
 8002c8c:	f442 2280 	orr.w	r2, r2, #262144	; 0x40000
 8002c90:	641a      	str	r2, [r3, #64]	; 0x40
 8002c92:	6c1a      	ldr	r2, [r3, #64]	; 0x40
 8002c94:	f402 2280 	and.w	r2, r2, #262144	; 0x40000
 8002c98:	9201      	str	r2, [sp, #4]
 8002c9a:	9a01      	ldr	r2, [sp, #4]
 8002c9c:	9402      	str	r4, [sp, #8]
 8002c9e:	6b1a      	ldr	r2, [r3, #48]	; 0x30
 8002ca0:	f042 0204 	orr.w	r2, r2, #4
 8002ca4:	631a      	str	r2, [r3, #48]	; 0x30
 8002ca6:	6b1b      	ldr	r3, [r3, #48]	; 0x30
 8002ca8:	f003 0304 	and.w	r3, r3, #4
 8002cac:	9302      	str	r3, [sp, #8]
 8002cae:	f44f 6240 	mov.w	r2, #3072	; 0xc00
 8002cb2:	9b02      	ldr	r3, [sp, #8]
 8002cb4:	2302      	movs	r3, #2
 8002cb6:	e9cd 2303 	strd	r2, r3, [sp, #12]
 8002cba:	2103      	movs	r1, #3
 8002cbc:	2307      	movs	r3, #7
 8002cbe:	e9cd 1306 	strd	r1, r3, [sp, #24]
 8002cc2:	a903      	add	r1, sp, #12
 8002cc4:	f000 f9de 	bl	8003084 <HAL_GPIO_Init>
 8002cc8:	2027      	movs	r0, #39	; 0x27
 8002cca:	4622      	mov	r2, r4
 8002ccc:	2105      	movs	r1, #5
 8002cce:	f000 f92f 	bl	8002f30 <HAL_NVIC_SetPriority>
 8002cd2:	2027      	movs	r0, #39	; 0x27
 8002cd4:	f000 f95e 	bl	8002f94 <HAL_NVIC_EnableIRQ>
 8002cd8:	b008      	add	sp, #32
 8002cda:	bd10      	pop	{r4, pc}
 8002cdc:	40004800 	.word	0x40004800
 8002ce0:	40020800 	.word	0x40020800

08002ce4 <NMI_Handler>:
 8002ce4:	e7fe      	b.n	8002ce4 <NMI_Handler>

08002ce6 <HardFault_Handler>:
 8002ce6:	e7fe      	b.n	8002ce6 <HardFault_Handler>

08002ce8 <MemManage_Handler>:
 8002ce8:	e7fe      	b.n	8002ce8 <MemManage_Handler>

08002cea <BusFault_Handler>:
 8002cea:	e7fe      	b.n	8002cea <BusFault_Handler>

08002cec <UsageFault_Handler>:
 8002cec:	e7fe      	b.n	8002cec <UsageFault_Handler>

08002cee <DebugMon_Handler>:
 8002cee:	4770      	bx	lr

08002cf0 <SysTick_Handler>:
 8002cf0:	b508      	push	{r3, lr}
 8002cf2:	f000 f8e5 	bl	8002ec0 <HAL_IncTick>
 8002cf6:	f003 fb89 	bl	800640c <xTaskGetSchedulerState>
 8002cfa:	2801      	cmp	r0, #1
 8002cfc:	d003      	beq.n	8002d06 <SysTick_Handler+0x16>
 8002cfe:	e8bd 4008 	ldmia.w	sp!, {r3, lr}
 8002d02:	f003 be97 	b.w	8006a34 <xPortSysTickHandler>
 8002d06:	bd08      	pop	{r3, pc}

08002d08 <TIM2_IRQHandler>:
 8002d08:	4801      	ldr	r0, [pc, #4]	; (8002d10 <TIM2_IRQHandler+0x8>)
 8002d0a:	f001 ba7e 	b.w	800420a <HAL_TIM_IRQHandler>
 8002d0e:	bf00      	nop
 8002d10:	20000808 	.word	0x20000808

08002d14 <TIM4_IRQHandler>:
 8002d14:	4801      	ldr	r0, [pc, #4]	; (8002d1c <TIM4_IRQHandler+0x8>)
 8002d16:	f001 ba78 	b.w	800420a <HAL_TIM_IRQHandler>
 8002d1a:	bf00      	nop
 8002d1c:	20000898 	.word	0x20000898

08002d20 <USART3_IRQHandler>:
 8002d20:	4801      	ldr	r0, [pc, #4]	; (8002d28 <USART3_IRQHandler+0x8>)
 8002d22:	f002 b963 	b.w	8004fec <HAL_UART_IRQHandler>
 8002d26:	bf00      	nop
 8002d28:	20000970 	.word	0x20000970

08002d2c <_getpid>:
 8002d2c:	2001      	movs	r0, #1
 8002d2e:	4770      	bx	lr

08002d30 <_kill>:
 8002d30:	b508      	push	{r3, lr}
 8002d32:	f004 f859 	bl	8006de8 <__errno>
 8002d36:	2316      	movs	r3, #22
 8002d38:	6003      	str	r3, [r0, #0]
 8002d3a:	f04f 30ff 	mov.w	r0, #4294967295
 8002d3e:	bd08      	pop	{r3, pc}

08002d40 <_exit>:
 8002d40:	b508      	push	{r3, lr}
 8002d42:	f004 f851 	bl	8006de8 <__errno>
 8002d46:	2316      	movs	r3, #22
 8002d48:	6003      	str	r3, [r0, #0]
 8002d4a:	e7fe      	b.n	8002d4a <_exit+0xa>

08002d4c <_read>:
 8002d4c:	b570      	push	{r4, r5, r6, lr}
 8002d4e:	460d      	mov	r5, r1
 8002d50:	4614      	mov	r4, r2
 8002d52:	460e      	mov	r6, r1
 8002d54:	1b73      	subs	r3, r6, r5
 8002d56:	429c      	cmp	r4, r3
 8002d58:	dc01      	bgt.n	8002d5e <_read+0x12>
 8002d5a:	4620      	mov	r0, r4
 8002d5c:	bd70      	pop	{r4, r5, r6, pc}
 8002d5e:	f3af 8000 	nop.w
 8002d62:	f806 0b01 	strb.w	r0, [r6], #1
 8002d66:	e7f5      	b.n	8002d54 <_read+0x8>

08002d68 <_write>:
 8002d68:	b570      	push	{r4, r5, r6, lr}
 8002d6a:	460d      	mov	r5, r1
 8002d6c:	4614      	mov	r4, r2
 8002d6e:	460e      	mov	r6, r1
 8002d70:	1b73      	subs	r3, r6, r5
 8002d72:	429c      	cmp	r4, r3
 8002d74:	dc01      	bgt.n	8002d7a <_write+0x12>
 8002d76:	4620      	mov	r0, r4
 8002d78:	bd70      	pop	{r4, r5, r6, pc}
 8002d7a:	f816 0b01 	ldrb.w	r0, [r6], #1
 8002d7e:	f3af 8000 	nop.w
 8002d82:	e7f5      	b.n	8002d70 <_write+0x8>

08002d84 <_close>:
 8002d84:	f04f 30ff 	mov.w	r0, #4294967295
 8002d88:	4770      	bx	lr

08002d8a <_fstat>:
 8002d8a:	f44f 5300 	mov.w	r3, #8192	; 0x2000
 8002d8e:	604b      	str	r3, [r1, #4]
 8002d90:	2000      	movs	r0, #0
 8002d92:	4770      	bx	lr

08002d94 <_isatty>:
 8002d94:	2001      	movs	r0, #1
 8002d96:	4770      	bx	lr

08002d98 <_lseek>:
 8002d98:	2000      	movs	r0, #0
 8002d9a:	4770      	bx	lr

08002d9c <_sbrk>:
 8002d9c:	4a0b      	ldr	r2, [pc, #44]	; (8002dcc <_sbrk+0x30>)
 8002d9e:	6811      	ldr	r1, [r2, #0]
 8002da0:	b510      	push	{r4, lr}
 8002da2:	4603      	mov	r3, r0
 8002da4:	b909      	cbnz	r1, 8002daa <_sbrk+0xe>
 8002da6:	490a      	ldr	r1, [pc, #40]	; (8002dd0 <_sbrk+0x34>)
 8002da8:	6011      	str	r1, [r2, #0]
 8002daa:	6810      	ldr	r0, [r2, #0]
 8002dac:	4909      	ldr	r1, [pc, #36]	; (8002dd4 <_sbrk+0x38>)
 8002dae:	4c0a      	ldr	r4, [pc, #40]	; (8002dd8 <_sbrk+0x3c>)
 8002db0:	4403      	add	r3, r0
 8002db2:	1b09      	subs	r1, r1, r4
 8002db4:	428b      	cmp	r3, r1
 8002db6:	d906      	bls.n	8002dc6 <_sbrk+0x2a>
 8002db8:	f004 f816 	bl	8006de8 <__errno>
 8002dbc:	230c      	movs	r3, #12
 8002dbe:	6003      	str	r3, [r0, #0]
 8002dc0:	f04f 30ff 	mov.w	r0, #4294967295
 8002dc4:	bd10      	pop	{r4, pc}
 8002dc6:	6013      	str	r3, [r2, #0]
 8002dc8:	e7fc      	b.n	8002dc4 <_sbrk+0x28>
 8002dca:	bf00      	nop
 8002dcc:	20000a14 	.word	0x20000a14
 8002dd0:	20005378 	.word	0x20005378
 8002dd4:	20020000 	.word	0x20020000
 8002dd8:	00000400 	.word	0x00000400

08002ddc <SystemInit>:
 8002ddc:	4a03      	ldr	r2, [pc, #12]	; (8002dec <SystemInit+0x10>)
 8002dde:	f8d2 3088 	ldr.w	r3, [r2, #136]	; 0x88
 8002de2:	f443 0370 	orr.w	r3, r3, #15728640	; 0xf00000
 8002de6:	f8c2 3088 	str.w	r3, [r2, #136]	; 0x88
 8002dea:	4770      	bx	lr
 8002dec:	e000ed00 	.word	0xe000ed00

08002df0 <Reset_Handler>:
 8002df0:	f8df d034 	ldr.w	sp, [pc, #52]	; 8002e28 <LoopFillZerobss+0x12>
 8002df4:	480d      	ldr	r0, [pc, #52]	; (8002e2c <LoopFillZerobss+0x16>)
 8002df6:	490e      	ldr	r1, [pc, #56]	; (8002e30 <LoopFillZerobss+0x1a>)
 8002df8:	4a0e      	ldr	r2, [pc, #56]	; (8002e34 <LoopFillZerobss+0x1e>)
 8002dfa:	2300      	movs	r3, #0
 8002dfc:	e002      	b.n	8002e04 <LoopCopyDataInit>

08002dfe <CopyDataInit>:
 8002dfe:	58d4      	ldr	r4, [r2, r3]
 8002e00:	50c4      	str	r4, [r0, r3]
 8002e02:	3304      	adds	r3, #4

08002e04 <LoopCopyDataInit>:
 8002e04:	18c4      	adds	r4, r0, r3
 8002e06:	428c      	cmp	r4, r1
 8002e08:	d3f9      	bcc.n	8002dfe <CopyDataInit>
 8002e0a:	4a0b      	ldr	r2, [pc, #44]	; (8002e38 <LoopFillZerobss+0x22>)
 8002e0c:	4c0b      	ldr	r4, [pc, #44]	; (8002e3c <LoopFillZerobss+0x26>)
 8002e0e:	2300      	movs	r3, #0
 8002e10:	e001      	b.n	8002e16 <LoopFillZerobss>

08002e12 <FillZerobss>:
 8002e12:	6013      	str	r3, [r2, #0]
 8002e14:	3204      	adds	r2, #4

08002e16 <LoopFillZerobss>:
 8002e16:	42a2      	cmp	r2, r4
 8002e18:	d3fb      	bcc.n	8002e12 <FillZerobss>
 8002e1a:	f7ff ffdf 	bl	8002ddc <SystemInit>
 8002e1e:	f003 ffe9 	bl	8006df4 <__libc_init_array>
 8002e22:	f7fe fbed 	bl	8001600 <main>
 8002e26:	4770      	bx	lr
 8002e28:	20020000 	.word	0x20020000
 8002e2c:	20000000 	.word	0x20000000
 8002e30:	2000020c 	.word	0x2000020c
 8002e34:	0800ae4c 	.word	0x0800ae4c
 8002e38:	20000210 	.word	0x20000210
 8002e3c:	20005378 	.word	0x20005378

08002e40 <ADC_IRQHandler>:
 8002e40:	e7fe      	b.n	8002e40 <ADC_IRQHandler>
	...

08002e44 <HAL_InitTick>:
 8002e44:	b538      	push	{r3, r4, r5, lr}
 8002e46:	4a0e      	ldr	r2, [pc, #56]	; (8002e80 <HAL_InitTick+0x3c>)
 8002e48:	4b0e      	ldr	r3, [pc, #56]	; (8002e84 <HAL_InitTick+0x40>)
 8002e4a:	4605      	mov	r5, r0
 8002e4c:	7818      	ldrb	r0, [r3, #0]
 8002e4e:	f44f 737a 	mov.w	r3, #1000	; 0x3e8
 8002e52:	fbb3 f3f0 	udiv	r3, r3, r0
 8002e56:	6810      	ldr	r0, [r2, #0]
 8002e58:	fbb0 f0f3 	udiv	r0, r0, r3
 8002e5c:	f000 f8a8 	bl	8002fb0 <HAL_SYSTICK_Config>
 8002e60:	4604      	mov	r4, r0
 8002e62:	b958      	cbnz	r0, 8002e7c <HAL_InitTick+0x38>
 8002e64:	2d0f      	cmp	r5, #15
 8002e66:	d809      	bhi.n	8002e7c <HAL_InitTick+0x38>
 8002e68:	4602      	mov	r2, r0
 8002e6a:	4629      	mov	r1, r5
 8002e6c:	f04f 30ff 	mov.w	r0, #4294967295
 8002e70:	f000 f85e 	bl	8002f30 <HAL_NVIC_SetPriority>
 8002e74:	4b04      	ldr	r3, [pc, #16]	; (8002e88 <HAL_InitTick+0x44>)
 8002e76:	4620      	mov	r0, r4
 8002e78:	601d      	str	r5, [r3, #0]
 8002e7a:	bd38      	pop	{r3, r4, r5, pc}
 8002e7c:	2001      	movs	r0, #1
 8002e7e:	e7fc      	b.n	8002e7a <HAL_InitTick+0x36>
 8002e80:	2000002c 	.word	0x2000002c
 8002e84:	20000030 	.word	0x20000030
 8002e88:	20000034 	.word	0x20000034

08002e8c <HAL_Init>:
 8002e8c:	b508      	push	{r3, lr}
 8002e8e:	4b0b      	ldr	r3, [pc, #44]	; (8002ebc <HAL_Init+0x30>)
 8002e90:	681a      	ldr	r2, [r3, #0]
 8002e92:	f442 7200 	orr.w	r2, r2, #512	; 0x200
 8002e96:	601a      	str	r2, [r3, #0]
 8002e98:	681a      	ldr	r2, [r3, #0]
 8002e9a:	f442 6280 	orr.w	r2, r2, #1024	; 0x400
 8002e9e:	601a      	str	r2, [r3, #0]
 8002ea0:	681a      	ldr	r2, [r3, #0]
 8002ea2:	f442 7280 	orr.w	r2, r2, #256	; 0x100
 8002ea6:	601a      	str	r2, [r3, #0]
 8002ea8:	2003      	movs	r0, #3
 8002eaa:	f000 f82f 	bl	8002f0c <HAL_NVIC_SetPriorityGrouping>
 8002eae:	200f      	movs	r0, #15
 8002eb0:	f7ff ffc8 	bl	8002e44 <HAL_InitTick>
 8002eb4:	f7ff fd64 	bl	8002980 <HAL_MspInit>
 8002eb8:	2000      	movs	r0, #0
 8002eba:	bd08      	pop	{r3, pc}
 8002ebc:	40023c00 	.word	0x40023c00

08002ec0 <HAL_IncTick>:
 8002ec0:	4a03      	ldr	r2, [pc, #12]	; (8002ed0 <HAL_IncTick+0x10>)
 8002ec2:	4b04      	ldr	r3, [pc, #16]	; (8002ed4 <HAL_IncTick+0x14>)
 8002ec4:	6811      	ldr	r1, [r2, #0]
 8002ec6:	781b      	ldrb	r3, [r3, #0]
 8002ec8:	440b      	add	r3, r1
 8002eca:	6013      	str	r3, [r2, #0]
 8002ecc:	4770      	bx	lr
 8002ece:	bf00      	nop
 8002ed0:	20000a18 	.word	0x20000a18
 8002ed4:	20000030 	.word	0x20000030

08002ed8 <HAL_GetTick>:
 8002ed8:	4b01      	ldr	r3, [pc, #4]	; (8002ee0 <HAL_GetTick+0x8>)
 8002eda:	6818      	ldr	r0, [r3, #0]
 8002edc:	4770      	bx	lr
 8002ede:	bf00      	nop
 8002ee0:	20000a18 	.word	0x20000a18

08002ee4 <HAL_Delay>:
 8002ee4:	b538      	push	{r3, r4, r5, lr}
 8002ee6:	4604      	mov	r4, r0
 8002ee8:	f7ff fff6 	bl	8002ed8 <HAL_GetTick>
 8002eec:	1c63      	adds	r3, r4, #1
 8002eee:	bf1c      	itt	ne
 8002ef0:	4b05      	ldrne	r3, [pc, #20]	; (8002f08 <HAL_Delay+0x24>)
 8002ef2:	781b      	ldrbne	r3, [r3, #0]
 8002ef4:	4605      	mov	r5, r0
 8002ef6:	bf18      	it	ne
 8002ef8:	18e4      	addne	r4, r4, r3
 8002efa:	f7ff ffed 	bl	8002ed8 <HAL_GetTick>
 8002efe:	1b43      	subs	r3, r0, r5
 8002f00:	42a3      	cmp	r3, r4
 8002f02:	d3fa      	bcc.n	8002efa <HAL_Delay+0x16>
 8002f04:	bd38      	pop	{r3, r4, r5, pc}
 8002f06:	bf00      	nop
 8002f08:	20000030 	.word	0x20000030

08002f0c <HAL_NVIC_SetPriorityGrouping>:
 8002f0c:	4907      	ldr	r1, [pc, #28]	; (8002f2c <HAL_NVIC_SetPriorityGrouping+0x20>)
 8002f0e:	68ca      	ldr	r2, [r1, #12]
 8002f10:	f422 62e0 	bic.w	r2, r2, #1792	; 0x700
 8002f14:	0203      	lsls	r3, r0, #8
 8002f16:	0412      	lsls	r2, r2, #16
 8002f18:	f403 63e0 	and.w	r3, r3, #1792	; 0x700
 8002f1c:	0c12      	lsrs	r2, r2, #16
 8002f1e:	4313      	orrs	r3, r2
 8002f20:	f043 63bf 	orr.w	r3, r3, #100139008	; 0x5f80000
 8002f24:	f443 3300 	orr.w	r3, r3, #131072	; 0x20000
 8002f28:	60cb      	str	r3, [r1, #12]
 8002f2a:	4770      	bx	lr
 8002f2c:	e000ed00 	.word	0xe000ed00

08002f30 <HAL_NVIC_SetPriority>:
 8002f30:	4b16      	ldr	r3, [pc, #88]	; (8002f8c <HAL_NVIC_SetPriority+0x5c>)
 8002f32:	b530      	push	{r4, r5, lr}
 8002f34:	68dc      	ldr	r4, [r3, #12]
 8002f36:	f3c4 2402 	ubfx	r4, r4, #8, #3
 8002f3a:	f1c4 0507 	rsb	r5, r4, #7
 8002f3e:	1d23      	adds	r3, r4, #4
 8002f40:	2d04      	cmp	r5, #4
 8002f42:	bf28      	it	cs
 8002f44:	2504      	movcs	r5, #4
 8002f46:	2b06      	cmp	r3, #6
 8002f48:	f04f 33ff 	mov.w	r3, #4294967295
 8002f4c:	bf8c      	ite	hi
 8002f4e:	3c03      	subhi	r4, #3
 8002f50:	2400      	movls	r4, #0
 8002f52:	fa03 f505 	lsl.w	r5, r3, r5
 8002f56:	ea21 0105 	bic.w	r1, r1, r5
 8002f5a:	40a3      	lsls	r3, r4
 8002f5c:	ea22 0203 	bic.w	r2, r2, r3
 8002f60:	40a1      	lsls	r1, r4
 8002f62:	2800      	cmp	r0, #0
 8002f64:	ea41 0302 	orr.w	r3, r1, r2
 8002f68:	bfac      	ite	ge
 8002f6a:	f100 4060 	addge.w	r0, r0, #3758096384	; 0xe0000000
 8002f6e:	4a08      	ldrlt	r2, [pc, #32]	; (8002f90 <HAL_NVIC_SetPriority+0x60>)
 8002f70:	ea4f 1303 	mov.w	r3, r3, lsl #4
 8002f74:	bfb8      	it	lt
 8002f76:	f000 000f 	andlt.w	r0, r0, #15
 8002f7a:	b2db      	uxtb	r3, r3
 8002f7c:	bfaa      	itet	ge
 8002f7e:	f500 4061 	addge.w	r0, r0, #57600	; 0xe100
 8002f82:	5413      	strblt	r3, [r2, r0]
 8002f84:	f880 3300 	strbge.w	r3, [r0, #768]	; 0x300
 8002f88:	bd30      	pop	{r4, r5, pc}
 8002f8a:	bf00      	nop
 8002f8c:	e000ed00 	.word	0xe000ed00
 8002f90:	e000ed14 	.word	0xe000ed14

08002f94 <HAL_NVIC_EnableIRQ>:
 8002f94:	2800      	cmp	r0, #0
 8002f96:	db08      	blt.n	8002faa <HAL_NVIC_EnableIRQ+0x16>
 8002f98:	0942      	lsrs	r2, r0, #5
 8002f9a:	2301      	movs	r3, #1
 8002f9c:	f000 001f 	and.w	r0, r0, #31
 8002fa0:	fa03 f000 	lsl.w	r0, r3, r0
 8002fa4:	4b01      	ldr	r3, [pc, #4]	; (8002fac <HAL_NVIC_EnableIRQ+0x18>)
 8002fa6:	f843 0022 	str.w	r0, [r3, r2, lsl #2]
 8002faa:	4770      	bx	lr
 8002fac:	e000e100 	.word	0xe000e100

08002fb0 <HAL_SYSTICK_Config>:
 8002fb0:	3801      	subs	r0, #1
 8002fb2:	f1b0 7f80 	cmp.w	r0, #16777216	; 0x1000000
 8002fb6:	d20b      	bcs.n	8002fd0 <HAL_SYSTICK_Config+0x20>
 8002fb8:	f04f 23e0 	mov.w	r3, #3758153728	; 0xe000e000
 8002fbc:	4a05      	ldr	r2, [pc, #20]	; (8002fd4 <HAL_SYSTICK_Config+0x24>)
 8002fbe:	6158      	str	r0, [r3, #20]
 8002fc0:	21f0      	movs	r1, #240	; 0xf0
 8002fc2:	f882 1023 	strb.w	r1, [r2, #35]	; 0x23
 8002fc6:	2000      	movs	r0, #0
 8002fc8:	2207      	movs	r2, #7
 8002fca:	6198      	str	r0, [r3, #24]
 8002fcc:	611a      	str	r2, [r3, #16]
 8002fce:	4770      	bx	lr
 8002fd0:	2001      	movs	r0, #1
 8002fd2:	4770      	bx	lr
 8002fd4:	e000ed00 	.word	0xe000ed00

08002fd8 <HAL_DMA_Abort>:
 8002fd8:	b570      	push	{r4, r5, r6, lr}
 8002fda:	4604      	mov	r4, r0
 8002fdc:	6d86      	ldr	r6, [r0, #88]	; 0x58
 8002fde:	f7ff ff7b 	bl	8002ed8 <HAL_GetTick>
 8002fe2:	f894 3035 	ldrb.w	r3, [r4, #53]	; 0x35
 8002fe6:	2b02      	cmp	r3, #2
 8002fe8:	4605      	mov	r5, r0
 8002fea:	d006      	beq.n	8002ffa <HAL_DMA_Abort+0x22>
 8002fec:	2380      	movs	r3, #128	; 0x80
 8002fee:	6563      	str	r3, [r4, #84]	; 0x54
 8002ff0:	2300      	movs	r3, #0
 8002ff2:	f884 3034 	strb.w	r3, [r4, #52]	; 0x34
 8002ff6:	2001      	movs	r0, #1
 8002ff8:	bd70      	pop	{r4, r5, r6, pc}
 8002ffa:	6823      	ldr	r3, [r4, #0]
 8002ffc:	681a      	ldr	r2, [r3, #0]
 8002ffe:	f022 0216 	bic.w	r2, r2, #22
 8003002:	601a      	str	r2, [r3, #0]
 8003004:	695a      	ldr	r2, [r3, #20]
 8003006:	f022 0280 	bic.w	r2, r2, #128	; 0x80
 800300a:	615a      	str	r2, [r3, #20]
 800300c:	6c22      	ldr	r2, [r4, #64]	; 0x40
 800300e:	b90a      	cbnz	r2, 8003014 <HAL_DMA_Abort+0x3c>
 8003010:	6ca2      	ldr	r2, [r4, #72]	; 0x48
 8003012:	b11a      	cbz	r2, 800301c <HAL_DMA_Abort+0x44>
 8003014:	681a      	ldr	r2, [r3, #0]
 8003016:	f022 0208 	bic.w	r2, r2, #8
 800301a:	601a      	str	r2, [r3, #0]
 800301c:	681a      	ldr	r2, [r3, #0]
 800301e:	f022 0201 	bic.w	r2, r2, #1
 8003022:	601a      	str	r2, [r3, #0]
 8003024:	6823      	ldr	r3, [r4, #0]
 8003026:	681b      	ldr	r3, [r3, #0]
 8003028:	f013 0301 	ands.w	r3, r3, #1
 800302c:	d10a      	bne.n	8003044 <HAL_DMA_Abort+0x6c>
 800302e:	6de1      	ldr	r1, [r4, #92]	; 0x5c
 8003030:	223f      	movs	r2, #63	; 0x3f
 8003032:	408a      	lsls	r2, r1
 8003034:	60b2      	str	r2, [r6, #8]
 8003036:	2201      	movs	r2, #1
 8003038:	f884 2035 	strb.w	r2, [r4, #53]	; 0x35
 800303c:	f884 3034 	strb.w	r3, [r4, #52]	; 0x34
 8003040:	4618      	mov	r0, r3
 8003042:	e7d9      	b.n	8002ff8 <HAL_DMA_Abort+0x20>
 8003044:	f7ff ff48 	bl	8002ed8 <HAL_GetTick>
 8003048:	1b40      	subs	r0, r0, r5
 800304a:	2805      	cmp	r0, #5
 800304c:	d9ea      	bls.n	8003024 <HAL_DMA_Abort+0x4c>
 800304e:	2320      	movs	r3, #32
 8003050:	6563      	str	r3, [r4, #84]	; 0x54
 8003052:	2003      	movs	r0, #3
 8003054:	2300      	movs	r3, #0
 8003056:	f884 0035 	strb.w	r0, [r4, #53]	; 0x35
 800305a:	f884 3034 	strb.w	r3, [r4, #52]	; 0x34
 800305e:	e7cb      	b.n	8002ff8 <HAL_DMA_Abort+0x20>

08003060 <HAL_DMA_Abort_IT>:
 8003060:	f890 3035 	ldrb.w	r3, [r0, #53]	; 0x35
 8003064:	2b02      	cmp	r3, #2
 8003066:	d003      	beq.n	8003070 <HAL_DMA_Abort_IT+0x10>
 8003068:	2380      	movs	r3, #128	; 0x80
 800306a:	6543      	str	r3, [r0, #84]	; 0x54
 800306c:	2001      	movs	r0, #1
 800306e:	4770      	bx	lr
 8003070:	6802      	ldr	r2, [r0, #0]
 8003072:	2305      	movs	r3, #5
 8003074:	f880 3035 	strb.w	r3, [r0, #53]	; 0x35
 8003078:	6813      	ldr	r3, [r2, #0]
 800307a:	f023 0301 	bic.w	r3, r3, #1
 800307e:	6013      	str	r3, [r2, #0]
 8003080:	2000      	movs	r0, #0
 8003082:	4770      	bx	lr

08003084 <HAL_GPIO_Init>:
 8003084:	e92d 4ff7 	stmdb	sp!, {r0, r1, r2, r4, r5, r6, r7, r8, r9, sl, fp, lr}
 8003088:	f8df 91a8 	ldr.w	r9, [pc, #424]	; 8003234 <HAL_GPIO_Init+0x1b0>
 800308c:	4a67      	ldr	r2, [pc, #412]	; (800322c <HAL_GPIO_Init+0x1a8>)
 800308e:	2300      	movs	r3, #0
 8003090:	680d      	ldr	r5, [r1, #0]
 8003092:	2401      	movs	r4, #1
 8003094:	409c      	lsls	r4, r3
 8003096:	ea04 0c05 	and.w	ip, r4, r5
 800309a:	43ac      	bics	r4, r5
 800309c:	f040 80b1 	bne.w	8003202 <HAL_GPIO_Init+0x17e>
 80030a0:	684d      	ldr	r5, [r1, #4]
 80030a2:	f005 0403 	and.w	r4, r5, #3
 80030a6:	ea4f 0843 	mov.w	r8, r3, lsl #1
 80030aa:	2603      	movs	r6, #3
 80030ac:	1e67      	subs	r7, r4, #1
 80030ae:	fa06 f608 	lsl.w	r6, r6, r8
 80030b2:	2f01      	cmp	r7, #1
 80030b4:	ea6f 0606 	mvn.w	r6, r6
 80030b8:	d834      	bhi.n	8003124 <HAL_GPIO_Init+0xa0>
 80030ba:	6887      	ldr	r7, [r0, #8]
 80030bc:	ea07 0e06 	and.w	lr, r7, r6
 80030c0:	68cf      	ldr	r7, [r1, #12]
 80030c2:	fa07 f708 	lsl.w	r7, r7, r8
 80030c6:	ea47 070e 	orr.w	r7, r7, lr
 80030ca:	6087      	str	r7, [r0, #8]
 80030cc:	6847      	ldr	r7, [r0, #4]
 80030ce:	ea27 0e0c 	bic.w	lr, r7, ip
 80030d2:	f3c5 1700 	ubfx	r7, r5, #4, #1
 80030d6:	409f      	lsls	r7, r3
 80030d8:	ea47 070e 	orr.w	r7, r7, lr
 80030dc:	6047      	str	r7, [r0, #4]
 80030de:	68c7      	ldr	r7, [r0, #12]
 80030e0:	ea07 0e06 	and.w	lr, r7, r6
 80030e4:	688f      	ldr	r7, [r1, #8]
 80030e6:	fa07 f708 	lsl.w	r7, r7, r8
 80030ea:	ea47 070e 	orr.w	r7, r7, lr
 80030ee:	2c02      	cmp	r4, #2
 80030f0:	60c7      	str	r7, [r0, #12]
 80030f2:	d119      	bne.n	8003128 <HAL_GPIO_Init+0xa4>
 80030f4:	ea4f 0ad3 	mov.w	sl, r3, lsr #3
 80030f8:	eb00 0a8a 	add.w	sl, r0, sl, lsl #2
 80030fc:	f003 0b07 	and.w	fp, r3, #7
 8003100:	f8da 7020 	ldr.w	r7, [sl, #32]
 8003104:	ea4f 0b8b 	mov.w	fp, fp, lsl #2
 8003108:	f04f 0e0f 	mov.w	lr, #15
 800310c:	fa0e fe0b 	lsl.w	lr, lr, fp
 8003110:	ea27 0e0e 	bic.w	lr, r7, lr
 8003114:	690f      	ldr	r7, [r1, #16]
 8003116:	fa07 f70b 	lsl.w	r7, r7, fp
 800311a:	ea47 070e 	orr.w	r7, r7, lr
 800311e:	f8ca 7020 	str.w	r7, [sl, #32]
 8003122:	e001      	b.n	8003128 <HAL_GPIO_Init+0xa4>
 8003124:	2c03      	cmp	r4, #3
 8003126:	d1da      	bne.n	80030de <HAL_GPIO_Init+0x5a>
 8003128:	6807      	ldr	r7, [r0, #0]
 800312a:	fa04 f408 	lsl.w	r4, r4, r8
 800312e:	403e      	ands	r6, r7
 8003130:	4326      	orrs	r6, r4
 8003132:	f415 3f40 	tst.w	r5, #196608	; 0x30000
 8003136:	6006      	str	r6, [r0, #0]
 8003138:	d063      	beq.n	8003202 <HAL_GPIO_Init+0x17e>
 800313a:	f04f 0a00 	mov.w	sl, #0
 800313e:	f8cd a004 	str.w	sl, [sp, #4]
 8003142:	f8d9 6044 	ldr.w	r6, [r9, #68]	; 0x44
 8003146:	4c3a      	ldr	r4, [pc, #232]	; (8003230 <HAL_GPIO_Init+0x1ac>)
 8003148:	f446 4680 	orr.w	r6, r6, #16384	; 0x4000
 800314c:	f8c9 6044 	str.w	r6, [r9, #68]	; 0x44
 8003150:	f8d9 6044 	ldr.w	r6, [r9, #68]	; 0x44
 8003154:	f406 4680 	and.w	r6, r6, #16384	; 0x4000
 8003158:	9601      	str	r6, [sp, #4]
 800315a:	9e01      	ldr	r6, [sp, #4]
 800315c:	f023 0603 	bic.w	r6, r3, #3
 8003160:	f106 4680 	add.w	r6, r6, #1073741824	; 0x40000000
 8003164:	f506 369c 	add.w	r6, r6, #79872	; 0x13800
 8003168:	f003 0e03 	and.w	lr, r3, #3
 800316c:	f8d6 8008 	ldr.w	r8, [r6, #8]
 8003170:	ea4f 0e8e 	mov.w	lr, lr, lsl #2
 8003174:	270f      	movs	r7, #15
 8003176:	fa07 f70e 	lsl.w	r7, r7, lr
 800317a:	42a0      	cmp	r0, r4
 800317c:	ea28 0707 	bic.w	r7, r8, r7
 8003180:	d046      	beq.n	8003210 <HAL_GPIO_Init+0x18c>
 8003182:	f504 6480 	add.w	r4, r4, #1024	; 0x400
 8003186:	42a0      	cmp	r0, r4
 8003188:	d044      	beq.n	8003214 <HAL_GPIO_Init+0x190>
 800318a:	f504 6480 	add.w	r4, r4, #1024	; 0x400
 800318e:	42a0      	cmp	r0, r4
 8003190:	d042      	beq.n	8003218 <HAL_GPIO_Init+0x194>
 8003192:	f504 6480 	add.w	r4, r4, #1024	; 0x400
 8003196:	42a0      	cmp	r0, r4
 8003198:	d040      	beq.n	800321c <HAL_GPIO_Init+0x198>
 800319a:	f504 6480 	add.w	r4, r4, #1024	; 0x400
 800319e:	42a0      	cmp	r0, r4
 80031a0:	d03e      	beq.n	8003220 <HAL_GPIO_Init+0x19c>
 80031a2:	f504 6480 	add.w	r4, r4, #1024	; 0x400
 80031a6:	42a0      	cmp	r0, r4
 80031a8:	d03c      	beq.n	8003224 <HAL_GPIO_Init+0x1a0>
 80031aa:	f504 6480 	add.w	r4, r4, #1024	; 0x400
 80031ae:	42a0      	cmp	r0, r4
 80031b0:	d03a      	beq.n	8003228 <HAL_GPIO_Init+0x1a4>
 80031b2:	f504 6480 	add.w	r4, r4, #1024	; 0x400
 80031b6:	42a0      	cmp	r0, r4
 80031b8:	bf0c      	ite	eq
 80031ba:	2407      	moveq	r4, #7
 80031bc:	2408      	movne	r4, #8
 80031be:	fa04 f40e 	lsl.w	r4, r4, lr
 80031c2:	433c      	orrs	r4, r7
 80031c4:	60b4      	str	r4, [r6, #8]
 80031c6:	6894      	ldr	r4, [r2, #8]
 80031c8:	ea6f 060c 	mvn.w	r6, ip
 80031cc:	02ef      	lsls	r7, r5, #11
 80031ce:	bf54      	ite	pl
 80031d0:	4034      	andpl	r4, r6
 80031d2:	ea4c 0404 	orrmi.w	r4, ip, r4
 80031d6:	6094      	str	r4, [r2, #8]
 80031d8:	68d4      	ldr	r4, [r2, #12]
 80031da:	02af      	lsls	r7, r5, #10
 80031dc:	bf54      	ite	pl
 80031de:	4034      	andpl	r4, r6
 80031e0:	ea4c 0404 	orrmi.w	r4, ip, r4
 80031e4:	60d4      	str	r4, [r2, #12]
 80031e6:	6854      	ldr	r4, [r2, #4]
 80031e8:	03af      	lsls	r7, r5, #14
 80031ea:	bf54      	ite	pl
 80031ec:	4034      	andpl	r4, r6
 80031ee:	ea4c 0404 	orrmi.w	r4, ip, r4
 80031f2:	6054      	str	r4, [r2, #4]
 80031f4:	6814      	ldr	r4, [r2, #0]
 80031f6:	03ed      	lsls	r5, r5, #15
 80031f8:	bf54      	ite	pl
 80031fa:	4034      	andpl	r4, r6
 80031fc:	ea4c 0404 	orrmi.w	r4, ip, r4
 8003200:	6014      	str	r4, [r2, #0]
 8003202:	3301      	adds	r3, #1
 8003204:	2b10      	cmp	r3, #16
 8003206:	f47f af43 	bne.w	8003090 <HAL_GPIO_Init+0xc>
 800320a:	b003      	add	sp, #12
 800320c:	e8bd 8ff0 	ldmia.w	sp!, {r4, r5, r6, r7, r8, r9, sl, fp, pc}
 8003210:	4654      	mov	r4, sl
 8003212:	e7d4      	b.n	80031be <HAL_GPIO_Init+0x13a>
 8003214:	2401      	movs	r4, #1
 8003216:	e7d2      	b.n	80031be <HAL_GPIO_Init+0x13a>
 8003218:	2402      	movs	r4, #2
 800321a:	e7d0      	b.n	80031be <HAL_GPIO_Init+0x13a>
 800321c:	2403      	movs	r4, #3
 800321e:	e7ce      	b.n	80031be <HAL_GPIO_Init+0x13a>
 8003220:	2404      	movs	r4, #4
 8003222:	e7cc      	b.n	80031be <HAL_GPIO_Init+0x13a>
 8003224:	2405      	movs	r4, #5
 8003226:	e7ca      	b.n	80031be <HAL_GPIO_Init+0x13a>
 8003228:	2406      	movs	r4, #6
 800322a:	e7c8      	b.n	80031be <HAL_GPIO_Init+0x13a>
 800322c:	40013c00 	.word	0x40013c00
 8003230:	40020000 	.word	0x40020000
 8003234:	40023800 	.word	0x40023800

08003238 <HAL_GPIO_WritePin>:
 8003238:	b10a      	cbz	r2, 800323e <HAL_GPIO_WritePin+0x6>
 800323a:	6181      	str	r1, [r0, #24]
 800323c:	4770      	bx	lr
 800323e:	0409      	lsls	r1, r1, #16
 8003240:	e7fb      	b.n	800323a <HAL_GPIO_WritePin+0x2>

08003242 <I2C_IsAcknowledgeFailed>:
 8003242:	6801      	ldr	r1, [r0, #0]
 8003244:	694b      	ldr	r3, [r1, #20]
 8003246:	f413 6380 	ands.w	r3, r3, #1024	; 0x400
 800324a:	f04f 0200 	mov.w	r2, #0
 800324e:	d010      	beq.n	8003272 <I2C_IsAcknowledgeFailed+0x30>
 8003250:	f46f 6380 	mvn.w	r3, #1024	; 0x400
 8003254:	614b      	str	r3, [r1, #20]
 8003256:	2320      	movs	r3, #32
 8003258:	6302      	str	r2, [r0, #48]	; 0x30
 800325a:	f880 303d 	strb.w	r3, [r0, #61]	; 0x3d
 800325e:	f880 203e 	strb.w	r2, [r0, #62]	; 0x3e
 8003262:	6c03      	ldr	r3, [r0, #64]	; 0x40
 8003264:	f880 203c 	strb.w	r2, [r0, #60]	; 0x3c
 8003268:	f043 0304 	orr.w	r3, r3, #4
 800326c:	6403      	str	r3, [r0, #64]	; 0x40
 800326e:	2001      	movs	r0, #1
 8003270:	4770      	bx	lr
 8003272:	4618      	mov	r0, r3
 8003274:	4770      	bx	lr

08003276 <I2C_WaitOnFlagUntilTimeout>:
 8003276:	e92d 46f8 	stmdb	sp!, {r3, r4, r5, r6, r7, r9, sl, lr}
 800327a:	4606      	mov	r6, r0
 800327c:	460f      	mov	r7, r1
 800327e:	4691      	mov	r9, r2
 8003280:	461d      	mov	r5, r3
 8003282:	ea4f 4a11 	mov.w	sl, r1, lsr #16
 8003286:	6833      	ldr	r3, [r6, #0]
 8003288:	f1ba 0f01 	cmp.w	sl, #1
 800328c:	bf0c      	ite	eq
 800328e:	695c      	ldreq	r4, [r3, #20]
 8003290:	699c      	ldrne	r4, [r3, #24]
 8003292:	ea27 0404 	bic.w	r4, r7, r4
 8003296:	b2a4      	uxth	r4, r4
 8003298:	fab4 f484 	clz	r4, r4
 800329c:	0964      	lsrs	r4, r4, #5
 800329e:	45a1      	cmp	r9, r4
 80032a0:	d001      	beq.n	80032a6 <I2C_WaitOnFlagUntilTimeout+0x30>
 80032a2:	2000      	movs	r0, #0
 80032a4:	e017      	b.n	80032d6 <I2C_WaitOnFlagUntilTimeout+0x60>
 80032a6:	1c6a      	adds	r2, r5, #1
 80032a8:	d0ee      	beq.n	8003288 <I2C_WaitOnFlagUntilTimeout+0x12>
 80032aa:	f7ff fe15 	bl	8002ed8 <HAL_GetTick>
 80032ae:	9b08      	ldr	r3, [sp, #32]
 80032b0:	1ac0      	subs	r0, r0, r3
 80032b2:	42a8      	cmp	r0, r5
 80032b4:	d801      	bhi.n	80032ba <I2C_WaitOnFlagUntilTimeout+0x44>
 80032b6:	2d00      	cmp	r5, #0
 80032b8:	d1e5      	bne.n	8003286 <I2C_WaitOnFlagUntilTimeout+0x10>
 80032ba:	2300      	movs	r3, #0
 80032bc:	2220      	movs	r2, #32
 80032be:	6333      	str	r3, [r6, #48]	; 0x30
 80032c0:	f886 203d 	strb.w	r2, [r6, #61]	; 0x3d
 80032c4:	f886 303e 	strb.w	r3, [r6, #62]	; 0x3e
 80032c8:	6c32      	ldr	r2, [r6, #64]	; 0x40
 80032ca:	f886 303c 	strb.w	r3, [r6, #60]	; 0x3c
 80032ce:	f042 0220 	orr.w	r2, r2, #32
 80032d2:	6432      	str	r2, [r6, #64]	; 0x40
 80032d4:	2001      	movs	r0, #1
 80032d6:	e8bd 86f8 	ldmia.w	sp!, {r3, r4, r5, r6, r7, r9, sl, pc}

080032da <I2C_WaitOnMasterAddressFlagUntilTimeout>:
 80032da:	e92d 41f0 	stmdb	sp!, {r4, r5, r6, r7, r8, lr}
 80032de:	4604      	mov	r4, r0
 80032e0:	460f      	mov	r7, r1
 80032e2:	4616      	mov	r6, r2
 80032e4:	4698      	mov	r8, r3
 80032e6:	6825      	ldr	r5, [r4, #0]
 80032e8:	6968      	ldr	r0, [r5, #20]
 80032ea:	ea27 0000 	bic.w	r0, r7, r0
 80032ee:	b280      	uxth	r0, r0
 80032f0:	b1b8      	cbz	r0, 8003322 <I2C_WaitOnMasterAddressFlagUntilTimeout+0x48>
 80032f2:	696b      	ldr	r3, [r5, #20]
 80032f4:	055a      	lsls	r2, r3, #21
 80032f6:	d516      	bpl.n	8003326 <I2C_WaitOnMasterAddressFlagUntilTimeout+0x4c>
 80032f8:	682b      	ldr	r3, [r5, #0]
 80032fa:	f443 7300 	orr.w	r3, r3, #512	; 0x200
 80032fe:	602b      	str	r3, [r5, #0]
 8003300:	f46f 6380 	mvn.w	r3, #1024	; 0x400
 8003304:	616b      	str	r3, [r5, #20]
 8003306:	2220      	movs	r2, #32
 8003308:	2300      	movs	r3, #0
 800330a:	6323      	str	r3, [r4, #48]	; 0x30
 800330c:	f884 203d 	strb.w	r2, [r4, #61]	; 0x3d
 8003310:	f884 303e 	strb.w	r3, [r4, #62]	; 0x3e
 8003314:	6c22      	ldr	r2, [r4, #64]	; 0x40
 8003316:	f042 0204 	orr.w	r2, r2, #4
 800331a:	6422      	str	r2, [r4, #64]	; 0x40
 800331c:	f884 303c 	strb.w	r3, [r4, #60]	; 0x3c
 8003320:	2001      	movs	r0, #1
 8003322:	e8bd 81f0 	ldmia.w	sp!, {r4, r5, r6, r7, r8, pc}
 8003326:	1c73      	adds	r3, r6, #1
 8003328:	d0de      	beq.n	80032e8 <I2C_WaitOnMasterAddressFlagUntilTimeout+0xe>
 800332a:	f7ff fdd5 	bl	8002ed8 <HAL_GetTick>
 800332e:	eba0 0008 	sub.w	r0, r0, r8
 8003332:	42b0      	cmp	r0, r6
 8003334:	d801      	bhi.n	800333a <I2C_WaitOnMasterAddressFlagUntilTimeout+0x60>
 8003336:	2e00      	cmp	r6, #0
 8003338:	d1d5      	bne.n	80032e6 <I2C_WaitOnMasterAddressFlagUntilTimeout+0xc>
 800333a:	2300      	movs	r3, #0
 800333c:	2220      	movs	r2, #32
 800333e:	6323      	str	r3, [r4, #48]	; 0x30
 8003340:	f884 203d 	strb.w	r2, [r4, #61]	; 0x3d
 8003344:	f884 303e 	strb.w	r3, [r4, #62]	; 0x3e
 8003348:	6c22      	ldr	r2, [r4, #64]	; 0x40
 800334a:	f042 0220 	orr.w	r2, r2, #32
 800334e:	e7e4      	b.n	800331a <I2C_WaitOnMasterAddressFlagUntilTimeout+0x40>

08003350 <I2C_WaitOnRXNEFlagUntilTimeout>:
 8003350:	b570      	push	{r4, r5, r6, lr}
 8003352:	4604      	mov	r4, r0
 8003354:	460d      	mov	r5, r1
 8003356:	4616      	mov	r6, r2
 8003358:	6821      	ldr	r1, [r4, #0]
 800335a:	694b      	ldr	r3, [r1, #20]
 800335c:	f013 0340 	ands.w	r3, r3, #64	; 0x40
 8003360:	d001      	beq.n	8003366 <I2C_WaitOnRXNEFlagUntilTimeout+0x16>
 8003362:	2000      	movs	r0, #0
 8003364:	e010      	b.n	8003388 <I2C_WaitOnRXNEFlagUntilTimeout+0x38>
 8003366:	694a      	ldr	r2, [r1, #20]
 8003368:	06d2      	lsls	r2, r2, #27
 800336a:	d50e      	bpl.n	800338a <I2C_WaitOnRXNEFlagUntilTimeout+0x3a>
 800336c:	f06f 0210 	mvn.w	r2, #16
 8003370:	614a      	str	r2, [r1, #20]
 8003372:	2220      	movs	r2, #32
 8003374:	6323      	str	r3, [r4, #48]	; 0x30
 8003376:	f884 203d 	strb.w	r2, [r4, #61]	; 0x3d
 800337a:	f884 303e 	strb.w	r3, [r4, #62]	; 0x3e
 800337e:	6c22      	ldr	r2, [r4, #64]	; 0x40
 8003380:	6422      	str	r2, [r4, #64]	; 0x40
 8003382:	f884 303c 	strb.w	r3, [r4, #60]	; 0x3c
 8003386:	2001      	movs	r0, #1
 8003388:	bd70      	pop	{r4, r5, r6, pc}
 800338a:	f7ff fda5 	bl	8002ed8 <HAL_GetTick>
 800338e:	1b80      	subs	r0, r0, r6
 8003390:	42a8      	cmp	r0, r5
 8003392:	d801      	bhi.n	8003398 <I2C_WaitOnRXNEFlagUntilTimeout+0x48>
 8003394:	2d00      	cmp	r5, #0
 8003396:	d1df      	bne.n	8003358 <I2C_WaitOnRXNEFlagUntilTimeout+0x8>
 8003398:	2300      	movs	r3, #0
 800339a:	2220      	movs	r2, #32
 800339c:	6323      	str	r3, [r4, #48]	; 0x30
 800339e:	f884 203d 	strb.w	r2, [r4, #61]	; 0x3d
 80033a2:	f884 303e 	strb.w	r3, [r4, #62]	; 0x3e
 80033a6:	6c22      	ldr	r2, [r4, #64]	; 0x40
 80033a8:	f042 0220 	orr.w	r2, r2, #32
 80033ac:	e7e8      	b.n	8003380 <I2C_WaitOnRXNEFlagUntilTimeout+0x30>

080033ae <I2C_WaitOnBTFFlagUntilTimeout>:
 80033ae:	b570      	push	{r4, r5, r6, lr}
 80033b0:	4604      	mov	r4, r0
 80033b2:	460d      	mov	r5, r1
 80033b4:	4616      	mov	r6, r2
 80033b6:	6823      	ldr	r3, [r4, #0]
 80033b8:	695b      	ldr	r3, [r3, #20]
 80033ba:	075b      	lsls	r3, r3, #29
 80033bc:	d501      	bpl.n	80033c2 <I2C_WaitOnBTFFlagUntilTimeout+0x14>
 80033be:	2000      	movs	r0, #0
 80033c0:	bd70      	pop	{r4, r5, r6, pc}
 80033c2:	4620      	mov	r0, r4
 80033c4:	f7ff ff3d 	bl	8003242 <I2C_IsAcknowledgeFailed>
 80033c8:	b9a8      	cbnz	r0, 80033f6 <I2C_WaitOnBTFFlagUntilTimeout+0x48>
 80033ca:	1c6a      	adds	r2, r5, #1
 80033cc:	d0f3      	beq.n	80033b6 <I2C_WaitOnBTFFlagUntilTimeout+0x8>
 80033ce:	f7ff fd83 	bl	8002ed8 <HAL_GetTick>
 80033d2:	1b80      	subs	r0, r0, r6
 80033d4:	42a8      	cmp	r0, r5
 80033d6:	d801      	bhi.n	80033dc <I2C_WaitOnBTFFlagUntilTimeout+0x2e>
 80033d8:	2d00      	cmp	r5, #0
 80033da:	d1ec      	bne.n	80033b6 <I2C_WaitOnBTFFlagUntilTimeout+0x8>
 80033dc:	2300      	movs	r3, #0
 80033de:	2220      	movs	r2, #32
 80033e0:	6323      	str	r3, [r4, #48]	; 0x30
 80033e2:	f884 203d 	strb.w	r2, [r4, #61]	; 0x3d
 80033e6:	f884 303e 	strb.w	r3, [r4, #62]	; 0x3e
 80033ea:	6c22      	ldr	r2, [r4, #64]	; 0x40
 80033ec:	f884 303c 	strb.w	r3, [r4, #60]	; 0x3c
 80033f0:	f042 0220 	orr.w	r2, r2, #32
 80033f4:	6422      	str	r2, [r4, #64]	; 0x40
 80033f6:	2001      	movs	r0, #1
 80033f8:	e7e2      	b.n	80033c0 <I2C_WaitOnBTFFlagUntilTimeout+0x12>

080033fa <I2C_WaitOnTXEFlagUntilTimeout>:
 80033fa:	b570      	push	{r4, r5, r6, lr}
 80033fc:	4604      	mov	r4, r0
 80033fe:	460d      	mov	r5, r1
 8003400:	4616      	mov	r6, r2
 8003402:	6823      	ldr	r3, [r4, #0]
 8003404:	695b      	ldr	r3, [r3, #20]
 8003406:	061b      	lsls	r3, r3, #24
 8003408:	d501      	bpl.n	800340e <I2C_WaitOnTXEFlagUntilTimeout+0x14>
 800340a:	2000      	movs	r0, #0
 800340c:	bd70      	pop	{r4, r5, r6, pc}
 800340e:	4620      	mov	r0, r4
 8003410:	f7ff ff17 	bl	8003242 <I2C_IsAcknowledgeFailed>
 8003414:	b9a8      	cbnz	r0, 8003442 <I2C_WaitOnTXEFlagUntilTimeout+0x48>
 8003416:	1c6a      	adds	r2, r5, #1
 8003418:	d0f3      	beq.n	8003402 <I2C_WaitOnTXEFlagUntilTimeout+0x8>
 800341a:	f7ff fd5d 	bl	8002ed8 <HAL_GetTick>
 800341e:	1b80      	subs	r0, r0, r6
 8003420:	42a8      	cmp	r0, r5
 8003422:	d801      	bhi.n	8003428 <I2C_WaitOnTXEFlagUntilTimeout+0x2e>
 8003424:	2d00      	cmp	r5, #0
 8003426:	d1ec      	bne.n	8003402 <I2C_WaitOnTXEFlagUntilTimeout+0x8>
 8003428:	2300      	movs	r3, #0
 800342a:	2220      	movs	r2, #32
 800342c:	6323      	str	r3, [r4, #48]	; 0x30
 800342e:	f884 203d 	strb.w	r2, [r4, #61]	; 0x3d
 8003432:	f884 303e 	strb.w	r3, [r4, #62]	; 0x3e
 8003436:	6c22      	ldr	r2, [r4, #64]	; 0x40
 8003438:	f884 303c 	strb.w	r3, [r4, #60]	; 0x3c
 800343c:	f042 0220 	orr.w	r2, r2, #32
 8003440:	6422      	str	r2, [r4, #64]	; 0x40
 8003442:	2001      	movs	r0, #1
 8003444:	e7e2      	b.n	800340c <I2C_WaitOnTXEFlagUntilTimeout+0x12>
	...

08003448 <HAL_I2C_Init>:
 8003448:	b570      	push	{r4, r5, r6, lr}
 800344a:	4604      	mov	r4, r0
 800344c:	b908      	cbnz	r0, 8003452 <HAL_I2C_Init+0xa>
 800344e:	2001      	movs	r0, #1
 8003450:	bd70      	pop	{r4, r5, r6, pc}
 8003452:	f890 303d 	ldrb.w	r3, [r0, #61]	; 0x3d
 8003456:	f003 02ff 	and.w	r2, r3, #255	; 0xff
 800345a:	b91b      	cbnz	r3, 8003464 <HAL_I2C_Init+0x1c>
 800345c:	f880 203c 	strb.w	r2, [r0, #60]	; 0x3c
 8003460:	f7ff faae 	bl	80029c0 <HAL_I2C_MspInit>
 8003464:	2324      	movs	r3, #36	; 0x24
 8003466:	f884 303d 	strb.w	r3, [r4, #61]	; 0x3d
 800346a:	6823      	ldr	r3, [r4, #0]
 800346c:	681a      	ldr	r2, [r3, #0]
 800346e:	f022 0201 	bic.w	r2, r2, #1
 8003472:	601a      	str	r2, [r3, #0]
 8003474:	681a      	ldr	r2, [r3, #0]
 8003476:	f442 4200 	orr.w	r2, r2, #32768	; 0x8000
 800347a:	601a      	str	r2, [r3, #0]
 800347c:	681a      	ldr	r2, [r3, #0]
 800347e:	f422 4200 	bic.w	r2, r2, #32768	; 0x8000
 8003482:	601a      	str	r2, [r3, #0]
 8003484:	f000 fd66 	bl	8003f54 <HAL_RCC_GetPCLK1Freq>
 8003488:	4b3f      	ldr	r3, [pc, #252]	; (8003588 <HAL_I2C_Init+0x140>)
 800348a:	6865      	ldr	r5, [r4, #4]
 800348c:	429d      	cmp	r5, r3
 800348e:	bf94      	ite	ls
 8003490:	4b3e      	ldrls	r3, [pc, #248]	; (800358c <HAL_I2C_Init+0x144>)
 8003492:	4b3f      	ldrhi	r3, [pc, #252]	; (8003590 <HAL_I2C_Init+0x148>)
 8003494:	4298      	cmp	r0, r3
 8003496:	bf8c      	ite	hi
 8003498:	2300      	movhi	r3, #0
 800349a:	2301      	movls	r3, #1
 800349c:	2b00      	cmp	r3, #0
 800349e:	d1d6      	bne.n	800344e <HAL_I2C_Init+0x6>
 80034a0:	6822      	ldr	r2, [r4, #0]
 80034a2:	4e39      	ldr	r6, [pc, #228]	; (8003588 <HAL_I2C_Init+0x140>)
 80034a4:	6853      	ldr	r3, [r2, #4]
 80034a6:	493b      	ldr	r1, [pc, #236]	; (8003594 <HAL_I2C_Init+0x14c>)
 80034a8:	fbb0 f1f1 	udiv	r1, r0, r1
 80034ac:	f023 033f 	bic.w	r3, r3, #63	; 0x3f
 80034b0:	430b      	orrs	r3, r1
 80034b2:	42b5      	cmp	r5, r6
 80034b4:	6053      	str	r3, [r2, #4]
 80034b6:	bf88      	it	hi
 80034b8:	f44f 7696 	movhi.w	r6, #300	; 0x12c
 80034bc:	6a13      	ldr	r3, [r2, #32]
 80034be:	bf88      	it	hi
 80034c0:	4371      	mulhi	r1, r6
 80034c2:	f023 033f 	bic.w	r3, r3, #63	; 0x3f
 80034c6:	bf84      	itt	hi
 80034c8:	f44f 767a 	movhi.w	r6, #1000	; 0x3e8
 80034cc:	fbb1 f1f6 	udivhi	r1, r1, r6
 80034d0:	3101      	adds	r1, #1
 80034d2:	4319      	orrs	r1, r3
 80034d4:	6211      	str	r1, [r2, #32]
 80034d6:	69d1      	ldr	r1, [r2, #28]
 80034d8:	1e43      	subs	r3, r0, #1
 80034da:	482b      	ldr	r0, [pc, #172]	; (8003588 <HAL_I2C_Init+0x140>)
 80034dc:	f421 414f 	bic.w	r1, r1, #52992	; 0xcf00
 80034e0:	4285      	cmp	r5, r0
 80034e2:	f021 01ff 	bic.w	r1, r1, #255	; 0xff
 80034e6:	d832      	bhi.n	800354e <HAL_I2C_Init+0x106>
 80034e8:	006d      	lsls	r5, r5, #1
 80034ea:	f640 70fc 	movw	r0, #4092	; 0xffc
 80034ee:	fbb3 f3f5 	udiv	r3, r3, r5
 80034f2:	3301      	adds	r3, #1
 80034f4:	4203      	tst	r3, r0
 80034f6:	d042      	beq.n	800357e <HAL_I2C_Init+0x136>
 80034f8:	f3c3 030b 	ubfx	r3, r3, #0, #12
 80034fc:	430b      	orrs	r3, r1
 80034fe:	61d3      	str	r3, [r2, #28]
 8003500:	e9d4 3007 	ldrd	r3, r0, [r4, #28]
 8003504:	6811      	ldr	r1, [r2, #0]
 8003506:	4303      	orrs	r3, r0
 8003508:	f021 01c0 	bic.w	r1, r1, #192	; 0xc0
 800350c:	430b      	orrs	r3, r1
 800350e:	6013      	str	r3, [r2, #0]
 8003510:	6891      	ldr	r1, [r2, #8]
 8003512:	e9d4 0303 	ldrd	r0, r3, [r4, #12]
 8003516:	f421 4103 	bic.w	r1, r1, #33536	; 0x8300
 800351a:	4303      	orrs	r3, r0
 800351c:	f021 01ff 	bic.w	r1, r1, #255	; 0xff
 8003520:	430b      	orrs	r3, r1
 8003522:	6093      	str	r3, [r2, #8]
 8003524:	e9d4 3005 	ldrd	r3, r0, [r4, #20]
 8003528:	68d1      	ldr	r1, [r2, #12]
 800352a:	4303      	orrs	r3, r0
 800352c:	f021 01ff 	bic.w	r1, r1, #255	; 0xff
 8003530:	430b      	orrs	r3, r1
 8003532:	60d3      	str	r3, [r2, #12]
 8003534:	6813      	ldr	r3, [r2, #0]
 8003536:	f043 0301 	orr.w	r3, r3, #1
 800353a:	6013      	str	r3, [r2, #0]
 800353c:	2000      	movs	r0, #0
 800353e:	2320      	movs	r3, #32
 8003540:	6420      	str	r0, [r4, #64]	; 0x40
 8003542:	f884 303d 	strb.w	r3, [r4, #61]	; 0x3d
 8003546:	6320      	str	r0, [r4, #48]	; 0x30
 8003548:	f884 003e 	strb.w	r0, [r4, #62]	; 0x3e
 800354c:	e780      	b.n	8003450 <HAL_I2C_Init+0x8>
 800354e:	68a0      	ldr	r0, [r4, #8]
 8003550:	b950      	cbnz	r0, 8003568 <HAL_I2C_Init+0x120>
 8003552:	eb05 0545 	add.w	r5, r5, r5, lsl #1
 8003556:	fbb3 f3f5 	udiv	r3, r3, r5
 800355a:	3301      	adds	r3, #1
 800355c:	f3c3 030b 	ubfx	r3, r3, #0, #12
 8003560:	b17b      	cbz	r3, 8003582 <HAL_I2C_Init+0x13a>
 8003562:	f443 4300 	orr.w	r3, r3, #32768	; 0x8000
 8003566:	e7c9      	b.n	80034fc <HAL_I2C_Init+0xb4>
 8003568:	2019      	movs	r0, #25
 800356a:	4345      	muls	r5, r0
 800356c:	fbb3 f3f5 	udiv	r3, r3, r5
 8003570:	3301      	adds	r3, #1
 8003572:	f3c3 030b 	ubfx	r3, r3, #0, #12
 8003576:	b123      	cbz	r3, 8003582 <HAL_I2C_Init+0x13a>
 8003578:	f443 4340 	orr.w	r3, r3, #49152	; 0xc000
 800357c:	e7be      	b.n	80034fc <HAL_I2C_Init+0xb4>
 800357e:	2304      	movs	r3, #4
 8003580:	e7bc      	b.n	80034fc <HAL_I2C_Init+0xb4>
 8003582:	2301      	movs	r3, #1
 8003584:	e7ba      	b.n	80034fc <HAL_I2C_Init+0xb4>
 8003586:	bf00      	nop
 8003588:	000186a0 	.word	0x000186a0
 800358c:	001e847f 	.word	0x001e847f
 8003590:	003d08ff 	.word	0x003d08ff
 8003594:	000f4240 	.word	0x000f4240

08003598 <HAL_I2C_Master_Transmit>:
 8003598:	e92d 43f0 	stmdb	sp!, {r4, r5, r6, r7, r8, r9, lr}
 800359c:	4604      	mov	r4, r0
 800359e:	b085      	sub	sp, #20
 80035a0:	4698      	mov	r8, r3
 80035a2:	9f0c      	ldr	r7, [sp, #48]	; 0x30
 80035a4:	460d      	mov	r5, r1
 80035a6:	4691      	mov	r9, r2
 80035a8:	f7ff fc96 	bl	8002ed8 <HAL_GetTick>
 80035ac:	f894 303d 	ldrb.w	r3, [r4, #61]	; 0x3d
 80035b0:	2b20      	cmp	r3, #32
 80035b2:	4606      	mov	r6, r0
 80035b4:	d004      	beq.n	80035c0 <HAL_I2C_Master_Transmit+0x28>
 80035b6:	2502      	movs	r5, #2
 80035b8:	4628      	mov	r0, r5
 80035ba:	b005      	add	sp, #20
 80035bc:	e8bd 83f0 	ldmia.w	sp!, {r4, r5, r6, r7, r8, r9, pc}
 80035c0:	9000      	str	r0, [sp, #0]
 80035c2:	495d      	ldr	r1, [pc, #372]	; (8003738 <HAL_I2C_Master_Transmit+0x1a0>)
 80035c4:	2319      	movs	r3, #25
 80035c6:	2201      	movs	r2, #1
 80035c8:	4620      	mov	r0, r4
 80035ca:	f7ff fe54 	bl	8003276 <I2C_WaitOnFlagUntilTimeout>
 80035ce:	2800      	cmp	r0, #0
 80035d0:	d1f1      	bne.n	80035b6 <HAL_I2C_Master_Transmit+0x1e>
 80035d2:	f894 303c 	ldrb.w	r3, [r4, #60]	; 0x3c
 80035d6:	2b01      	cmp	r3, #1
 80035d8:	d0ed      	beq.n	80035b6 <HAL_I2C_Master_Transmit+0x1e>
 80035da:	6821      	ldr	r1, [r4, #0]
 80035dc:	2301      	movs	r3, #1
 80035de:	f884 303c 	strb.w	r3, [r4, #60]	; 0x3c
 80035e2:	680b      	ldr	r3, [r1, #0]
 80035e4:	07da      	lsls	r2, r3, #31
 80035e6:	bf5e      	ittt	pl
 80035e8:	680b      	ldrpl	r3, [r1, #0]
 80035ea:	f043 0301 	orrpl.w	r3, r3, #1
 80035ee:	600b      	strpl	r3, [r1, #0]
 80035f0:	680b      	ldr	r3, [r1, #0]
 80035f2:	f423 6300 	bic.w	r3, r3, #2048	; 0x800
 80035f6:	600b      	str	r3, [r1, #0]
 80035f8:	2321      	movs	r3, #33	; 0x21
 80035fa:	f884 303d 	strb.w	r3, [r4, #61]	; 0x3d
 80035fe:	2310      	movs	r3, #16
 8003600:	f884 303e 	strb.w	r3, [r4, #62]	; 0x3e
 8003604:	2300      	movs	r3, #0
 8003606:	6423      	str	r3, [r4, #64]	; 0x40
 8003608:	f8a4 802a 	strh.w	r8, [r4, #42]	; 0x2a
 800360c:	8d63      	ldrh	r3, [r4, #42]	; 0x2a
 800360e:	8523      	strh	r3, [r4, #40]	; 0x28
 8003610:	4b4a      	ldr	r3, [pc, #296]	; (800373c <HAL_I2C_Master_Transmit+0x1a4>)
 8003612:	62e3      	str	r3, [r4, #44]	; 0x2c
 8003614:	6ae3      	ldr	r3, [r4, #44]	; 0x2c
 8003616:	f8c4 9024 	str.w	r9, [r4, #36]	; 0x24
 800361a:	2b08      	cmp	r3, #8
 800361c:	d004      	beq.n	8003628 <HAL_I2C_Master_Transmit+0x90>
 800361e:	2b01      	cmp	r3, #1
 8003620:	d002      	beq.n	8003628 <HAL_I2C_Master_Transmit+0x90>
 8003622:	f513 3f80 	cmn.w	r3, #65536	; 0x10000
 8003626:	d104      	bne.n	8003632 <HAL_I2C_Master_Transmit+0x9a>
 8003628:	680b      	ldr	r3, [r1, #0]
 800362a:	f443 7380 	orr.w	r3, r3, #256	; 0x100
 800362e:	600b      	str	r3, [r1, #0]
 8003630:	e002      	b.n	8003638 <HAL_I2C_Master_Transmit+0xa0>
 8003632:	6b23      	ldr	r3, [r4, #48]	; 0x30
 8003634:	2b12      	cmp	r3, #18
 8003636:	d0f7      	beq.n	8003628 <HAL_I2C_Master_Transmit+0x90>
 8003638:	2200      	movs	r2, #0
 800363a:	9600      	str	r6, [sp, #0]
 800363c:	463b      	mov	r3, r7
 800363e:	f04f 1101 	mov.w	r1, #65537	; 0x10001
 8003642:	4620      	mov	r0, r4
 8003644:	f7ff fe17 	bl	8003276 <I2C_WaitOnFlagUntilTimeout>
 8003648:	6822      	ldr	r2, [r4, #0]
 800364a:	b138      	cbz	r0, 800365c <HAL_I2C_Master_Transmit+0xc4>
 800364c:	6813      	ldr	r3, [r2, #0]
 800364e:	05db      	lsls	r3, r3, #23
 8003650:	bf44      	itt	mi
 8003652:	f44f 7300 	movmi.w	r3, #512	; 0x200
 8003656:	6423      	strmi	r3, [r4, #64]	; 0x40
 8003658:	2501      	movs	r5, #1
 800365a:	e7ad      	b.n	80035b8 <HAL_I2C_Master_Transmit+0x20>
 800365c:	6923      	ldr	r3, [r4, #16]
 800365e:	f5b3 4f80 	cmp.w	r3, #16384	; 0x4000
 8003662:	d121      	bne.n	80036a8 <HAL_I2C_Master_Transmit+0x110>
 8003664:	f005 05fe 	and.w	r5, r5, #254	; 0xfe
 8003668:	6115      	str	r5, [r2, #16]
 800366a:	4935      	ldr	r1, [pc, #212]	; (8003740 <HAL_I2C_Master_Transmit+0x1a8>)
 800366c:	4633      	mov	r3, r6
 800366e:	463a      	mov	r2, r7
 8003670:	4620      	mov	r0, r4
 8003672:	f7ff fe32 	bl	80032da <I2C_WaitOnMasterAddressFlagUntilTimeout>
 8003676:	4605      	mov	r5, r0
 8003678:	2800      	cmp	r0, #0
 800367a:	d1ed      	bne.n	8003658 <HAL_I2C_Master_Transmit+0xc0>
 800367c:	6823      	ldr	r3, [r4, #0]
 800367e:	9003      	str	r0, [sp, #12]
 8003680:	695a      	ldr	r2, [r3, #20]
 8003682:	9203      	str	r2, [sp, #12]
 8003684:	699b      	ldr	r3, [r3, #24]
 8003686:	9303      	str	r3, [sp, #12]
 8003688:	9b03      	ldr	r3, [sp, #12]
 800368a:	8d23      	ldrh	r3, [r4, #40]	; 0x28
 800368c:	b9f3      	cbnz	r3, 80036cc <HAL_I2C_Master_Transmit+0x134>
 800368e:	6821      	ldr	r1, [r4, #0]
 8003690:	680a      	ldr	r2, [r1, #0]
 8003692:	f442 7200 	orr.w	r2, r2, #512	; 0x200
 8003696:	600a      	str	r2, [r1, #0]
 8003698:	2220      	movs	r2, #32
 800369a:	f884 203d 	strb.w	r2, [r4, #61]	; 0x3d
 800369e:	f884 303c 	strb.w	r3, [r4, #60]	; 0x3c
 80036a2:	f884 303e 	strb.w	r3, [r4, #62]	; 0x3e
 80036a6:	e787      	b.n	80035b8 <HAL_I2C_Master_Transmit+0x20>
 80036a8:	11eb      	asrs	r3, r5, #7
 80036aa:	f003 0306 	and.w	r3, r3, #6
 80036ae:	f043 03f0 	orr.w	r3, r3, #240	; 0xf0
 80036b2:	6113      	str	r3, [r2, #16]
 80036b4:	4923      	ldr	r1, [pc, #140]	; (8003744 <HAL_I2C_Master_Transmit+0x1ac>)
 80036b6:	4633      	mov	r3, r6
 80036b8:	463a      	mov	r2, r7
 80036ba:	4620      	mov	r0, r4
 80036bc:	f7ff fe0d 	bl	80032da <I2C_WaitOnMasterAddressFlagUntilTimeout>
 80036c0:	2800      	cmp	r0, #0
 80036c2:	d1c9      	bne.n	8003658 <HAL_I2C_Master_Transmit+0xc0>
 80036c4:	6823      	ldr	r3, [r4, #0]
 80036c6:	b2ed      	uxtb	r5, r5
 80036c8:	611d      	str	r5, [r3, #16]
 80036ca:	e7ce      	b.n	800366a <HAL_I2C_Master_Transmit+0xd2>
 80036cc:	4632      	mov	r2, r6
 80036ce:	4639      	mov	r1, r7
 80036d0:	4620      	mov	r0, r4
 80036d2:	f7ff fe92 	bl	80033fa <I2C_WaitOnTXEFlagUntilTimeout>
 80036d6:	b140      	cbz	r0, 80036ea <HAL_I2C_Master_Transmit+0x152>
 80036d8:	6c23      	ldr	r3, [r4, #64]	; 0x40
 80036da:	2b04      	cmp	r3, #4
 80036dc:	d1bc      	bne.n	8003658 <HAL_I2C_Master_Transmit+0xc0>
 80036de:	6822      	ldr	r2, [r4, #0]
 80036e0:	6813      	ldr	r3, [r2, #0]
 80036e2:	f443 7300 	orr.w	r3, r3, #512	; 0x200
 80036e6:	6013      	str	r3, [r2, #0]
 80036e8:	e7b6      	b.n	8003658 <HAL_I2C_Master_Transmit+0xc0>
 80036ea:	6a63      	ldr	r3, [r4, #36]	; 0x24
 80036ec:	6820      	ldr	r0, [r4, #0]
 80036ee:	461a      	mov	r2, r3
 80036f0:	f812 1b01 	ldrb.w	r1, [r2], #1
 80036f4:	6101      	str	r1, [r0, #16]
 80036f6:	6262      	str	r2, [r4, #36]	; 0x24
 80036f8:	8d62      	ldrh	r2, [r4, #42]	; 0x2a
 80036fa:	3a01      	subs	r2, #1
 80036fc:	b292      	uxth	r2, r2
 80036fe:	8562      	strh	r2, [r4, #42]	; 0x2a
 8003700:	8d22      	ldrh	r2, [r4, #40]	; 0x28
 8003702:	f8d0 c014 	ldr.w	ip, [r0, #20]
 8003706:	1e51      	subs	r1, r2, #1
 8003708:	b289      	uxth	r1, r1
 800370a:	f01c 0f04 	tst.w	ip, #4
 800370e:	8521      	strh	r1, [r4, #40]	; 0x28
 8003710:	d00a      	beq.n	8003728 <HAL_I2C_Master_Transmit+0x190>
 8003712:	b149      	cbz	r1, 8003728 <HAL_I2C_Master_Transmit+0x190>
 8003714:	7859      	ldrb	r1, [r3, #1]
 8003716:	6101      	str	r1, [r0, #16]
 8003718:	3302      	adds	r3, #2
 800371a:	6263      	str	r3, [r4, #36]	; 0x24
 800371c:	8d63      	ldrh	r3, [r4, #42]	; 0x2a
 800371e:	3b01      	subs	r3, #1
 8003720:	b29b      	uxth	r3, r3
 8003722:	3a02      	subs	r2, #2
 8003724:	8563      	strh	r3, [r4, #42]	; 0x2a
 8003726:	8522      	strh	r2, [r4, #40]	; 0x28
 8003728:	4632      	mov	r2, r6
 800372a:	4639      	mov	r1, r7
 800372c:	4620      	mov	r0, r4
 800372e:	f7ff fe3e 	bl	80033ae <I2C_WaitOnBTFFlagUntilTimeout>
 8003732:	2800      	cmp	r0, #0
 8003734:	d0a9      	beq.n	800368a <HAL_I2C_Master_Transmit+0xf2>
 8003736:	e7cf      	b.n	80036d8 <HAL_I2C_Master_Transmit+0x140>
 8003738:	00100002 	.word	0x00100002
 800373c:	ffff0000 	.word	0xffff0000
 8003740:	00010002 	.word	0x00010002
 8003744:	00010008 	.word	0x00010008

08003748 <HAL_I2C_Master_Receive>:
 8003748:	e92d 43f0 	stmdb	sp!, {r4, r5, r6, r7, r8, r9, lr}
 800374c:	4604      	mov	r4, r0
 800374e:	b089      	sub	sp, #36	; 0x24
 8003750:	4698      	mov	r8, r3
 8003752:	9f10      	ldr	r7, [sp, #64]	; 0x40
 8003754:	460e      	mov	r6, r1
 8003756:	4691      	mov	r9, r2
 8003758:	f7ff fbbe 	bl	8002ed8 <HAL_GetTick>
 800375c:	f894 303d 	ldrb.w	r3, [r4, #61]	; 0x3d
 8003760:	2b20      	cmp	r3, #32
 8003762:	4605      	mov	r5, r0
 8003764:	d004      	beq.n	8003770 <HAL_I2C_Master_Receive+0x28>
 8003766:	2602      	movs	r6, #2
 8003768:	4630      	mov	r0, r6
 800376a:	b009      	add	sp, #36	; 0x24
 800376c:	e8bd 83f0 	ldmia.w	sp!, {r4, r5, r6, r7, r8, r9, pc}
 8003770:	9000      	str	r0, [sp, #0]
 8003772:	499a      	ldr	r1, [pc, #616]	; (80039dc <HAL_I2C_Master_Receive+0x294>)
 8003774:	2319      	movs	r3, #25
 8003776:	2201      	movs	r2, #1
 8003778:	4620      	mov	r0, r4
 800377a:	f7ff fd7c 	bl	8003276 <I2C_WaitOnFlagUntilTimeout>
 800377e:	2800      	cmp	r0, #0
 8003780:	d1f1      	bne.n	8003766 <HAL_I2C_Master_Receive+0x1e>
 8003782:	f894 303c 	ldrb.w	r3, [r4, #60]	; 0x3c
 8003786:	2b01      	cmp	r3, #1
 8003788:	d0ed      	beq.n	8003766 <HAL_I2C_Master_Receive+0x1e>
 800378a:	6821      	ldr	r1, [r4, #0]
 800378c:	2301      	movs	r3, #1
 800378e:	f884 303c 	strb.w	r3, [r4, #60]	; 0x3c
 8003792:	680b      	ldr	r3, [r1, #0]
 8003794:	07db      	lsls	r3, r3, #31
 8003796:	bf5e      	ittt	pl
 8003798:	680b      	ldrpl	r3, [r1, #0]
 800379a:	f043 0301 	orrpl.w	r3, r3, #1
 800379e:	600b      	strpl	r3, [r1, #0]
 80037a0:	680b      	ldr	r3, [r1, #0]
 80037a2:	f423 6300 	bic.w	r3, r3, #2048	; 0x800
 80037a6:	600b      	str	r3, [r1, #0]
 80037a8:	2322      	movs	r3, #34	; 0x22
 80037aa:	f884 303d 	strb.w	r3, [r4, #61]	; 0x3d
 80037ae:	2310      	movs	r3, #16
 80037b0:	f884 303e 	strb.w	r3, [r4, #62]	; 0x3e
 80037b4:	2300      	movs	r3, #0
 80037b6:	6423      	str	r3, [r4, #64]	; 0x40
 80037b8:	f8a4 802a 	strh.w	r8, [r4, #42]	; 0x2a
 80037bc:	8d63      	ldrh	r3, [r4, #42]	; 0x2a
 80037be:	8523      	strh	r3, [r4, #40]	; 0x28
 80037c0:	4b87      	ldr	r3, [pc, #540]	; (80039e0 <HAL_I2C_Master_Receive+0x298>)
 80037c2:	62e3      	str	r3, [r4, #44]	; 0x2c
 80037c4:	6ae3      	ldr	r3, [r4, #44]	; 0x2c
 80037c6:	680a      	ldr	r2, [r1, #0]
 80037c8:	f8c4 9024 	str.w	r9, [r4, #36]	; 0x24
 80037cc:	f442 6280 	orr.w	r2, r2, #1024	; 0x400
 80037d0:	2b08      	cmp	r3, #8
 80037d2:	600a      	str	r2, [r1, #0]
 80037d4:	d004      	beq.n	80037e0 <HAL_I2C_Master_Receive+0x98>
 80037d6:	2b01      	cmp	r3, #1
 80037d8:	d002      	beq.n	80037e0 <HAL_I2C_Master_Receive+0x98>
 80037da:	f513 3f80 	cmn.w	r3, #65536	; 0x10000
 80037de:	d104      	bne.n	80037ea <HAL_I2C_Master_Receive+0xa2>
 80037e0:	680b      	ldr	r3, [r1, #0]
 80037e2:	f443 7380 	orr.w	r3, r3, #256	; 0x100
 80037e6:	600b      	str	r3, [r1, #0]
 80037e8:	e002      	b.n	80037f0 <HAL_I2C_Master_Receive+0xa8>
 80037ea:	6b23      	ldr	r3, [r4, #48]	; 0x30
 80037ec:	2b11      	cmp	r3, #17
 80037ee:	d0f7      	beq.n	80037e0 <HAL_I2C_Master_Receive+0x98>
 80037f0:	463b      	mov	r3, r7
 80037f2:	9500      	str	r5, [sp, #0]
 80037f4:	2200      	movs	r2, #0
 80037f6:	f04f 1101 	mov.w	r1, #65537	; 0x10001
 80037fa:	4620      	mov	r0, r4
 80037fc:	f7ff fd3b 	bl	8003276 <I2C_WaitOnFlagUntilTimeout>
 8003800:	6823      	ldr	r3, [r4, #0]
 8003802:	b138      	cbz	r0, 8003814 <HAL_I2C_Master_Receive+0xcc>
 8003804:	681b      	ldr	r3, [r3, #0]
 8003806:	05d8      	lsls	r0, r3, #23
 8003808:	d502      	bpl.n	8003810 <HAL_I2C_Master_Receive+0xc8>
 800380a:	f44f 7300 	mov.w	r3, #512	; 0x200
 800380e:	6423      	str	r3, [r4, #64]	; 0x40
 8003810:	2601      	movs	r6, #1
 8003812:	e7a9      	b.n	8003768 <HAL_I2C_Master_Receive+0x20>
 8003814:	6922      	ldr	r2, [r4, #16]
 8003816:	f5b2 4f80 	cmp.w	r2, #16384	; 0x4000
 800381a:	d127      	bne.n	800386c <HAL_I2C_Master_Receive+0x124>
 800381c:	f046 0601 	orr.w	r6, r6, #1
 8003820:	b2f6      	uxtb	r6, r6
 8003822:	611e      	str	r6, [r3, #16]
 8003824:	496f      	ldr	r1, [pc, #444]	; (80039e4 <HAL_I2C_Master_Receive+0x29c>)
 8003826:	462b      	mov	r3, r5
 8003828:	463a      	mov	r2, r7
 800382a:	4620      	mov	r0, r4
 800382c:	f7ff fd55 	bl	80032da <I2C_WaitOnMasterAddressFlagUntilTimeout>
 8003830:	4606      	mov	r6, r0
 8003832:	2800      	cmp	r0, #0
 8003834:	d1ec      	bne.n	8003810 <HAL_I2C_Master_Receive+0xc8>
 8003836:	8d23      	ldrh	r3, [r4, #40]	; 0x28
 8003838:	6821      	ldr	r1, [r4, #0]
 800383a:	2b00      	cmp	r3, #0
 800383c:	d14b      	bne.n	80038d6 <HAL_I2C_Master_Receive+0x18e>
 800383e:	9003      	str	r0, [sp, #12]
 8003840:	694b      	ldr	r3, [r1, #20]
 8003842:	9303      	str	r3, [sp, #12]
 8003844:	698b      	ldr	r3, [r1, #24]
 8003846:	9303      	str	r3, [sp, #12]
 8003848:	9b03      	ldr	r3, [sp, #12]
 800384a:	680b      	ldr	r3, [r1, #0]
 800384c:	f443 7300 	orr.w	r3, r3, #512	; 0x200
 8003850:	600b      	str	r3, [r1, #0]
 8003852:	f8df 8198 	ldr.w	r8, [pc, #408]	; 80039ec <HAL_I2C_Master_Receive+0x2a4>
 8003856:	8d23      	ldrh	r3, [r4, #40]	; 0x28
 8003858:	2b00      	cmp	r3, #0
 800385a:	d164      	bne.n	8003926 <HAL_I2C_Master_Receive+0x1de>
 800385c:	2220      	movs	r2, #32
 800385e:	f884 203d 	strb.w	r2, [r4, #61]	; 0x3d
 8003862:	f884 303c 	strb.w	r3, [r4, #60]	; 0x3c
 8003866:	f884 303e 	strb.w	r3, [r4, #62]	; 0x3e
 800386a:	e77d      	b.n	8003768 <HAL_I2C_Master_Receive+0x20>
 800386c:	ea4f 18e6 	mov.w	r8, r6, asr #7
 8003870:	f008 0806 	and.w	r8, r8, #6
 8003874:	f048 02f0 	orr.w	r2, r8, #240	; 0xf0
 8003878:	611a      	str	r2, [r3, #16]
 800387a:	495b      	ldr	r1, [pc, #364]	; (80039e8 <HAL_I2C_Master_Receive+0x2a0>)
 800387c:	462b      	mov	r3, r5
 800387e:	463a      	mov	r2, r7
 8003880:	4620      	mov	r0, r4
 8003882:	f7ff fd2a 	bl	80032da <I2C_WaitOnMasterAddressFlagUntilTimeout>
 8003886:	2800      	cmp	r0, #0
 8003888:	d1c2      	bne.n	8003810 <HAL_I2C_Master_Receive+0xc8>
 800388a:	6823      	ldr	r3, [r4, #0]
 800388c:	4955      	ldr	r1, [pc, #340]	; (80039e4 <HAL_I2C_Master_Receive+0x29c>)
 800388e:	b2f6      	uxtb	r6, r6
 8003890:	611e      	str	r6, [r3, #16]
 8003892:	463a      	mov	r2, r7
 8003894:	462b      	mov	r3, r5
 8003896:	4620      	mov	r0, r4
 8003898:	f7ff fd1f 	bl	80032da <I2C_WaitOnMasterAddressFlagUntilTimeout>
 800389c:	2800      	cmp	r0, #0
 800389e:	d1b7      	bne.n	8003810 <HAL_I2C_Master_Receive+0xc8>
 80038a0:	6823      	ldr	r3, [r4, #0]
 80038a2:	9007      	str	r0, [sp, #28]
 80038a4:	695a      	ldr	r2, [r3, #20]
 80038a6:	9207      	str	r2, [sp, #28]
 80038a8:	699a      	ldr	r2, [r3, #24]
 80038aa:	9207      	str	r2, [sp, #28]
 80038ac:	9a07      	ldr	r2, [sp, #28]
 80038ae:	681a      	ldr	r2, [r3, #0]
 80038b0:	f442 7280 	orr.w	r2, r2, #256	; 0x100
 80038b4:	601a      	str	r2, [r3, #0]
 80038b6:	f04f 1101 	mov.w	r1, #65537	; 0x10001
 80038ba:	4602      	mov	r2, r0
 80038bc:	9500      	str	r5, [sp, #0]
 80038be:	463b      	mov	r3, r7
 80038c0:	4620      	mov	r0, r4
 80038c2:	f7ff fcd8 	bl	8003276 <I2C_WaitOnFlagUntilTimeout>
 80038c6:	6822      	ldr	r2, [r4, #0]
 80038c8:	b108      	cbz	r0, 80038ce <HAL_I2C_Master_Receive+0x186>
 80038ca:	6813      	ldr	r3, [r2, #0]
 80038cc:	e79b      	b.n	8003806 <HAL_I2C_Master_Receive+0xbe>
 80038ce:	f048 03f1 	orr.w	r3, r8, #241	; 0xf1
 80038d2:	6113      	str	r3, [r2, #16]
 80038d4:	e7a6      	b.n	8003824 <HAL_I2C_Master_Receive+0xdc>
 80038d6:	2b01      	cmp	r3, #1
 80038d8:	d10a      	bne.n	80038f0 <HAL_I2C_Master_Receive+0x1a8>
 80038da:	680b      	ldr	r3, [r1, #0]
 80038dc:	f423 6380 	bic.w	r3, r3, #1024	; 0x400
 80038e0:	600b      	str	r3, [r1, #0]
 80038e2:	9004      	str	r0, [sp, #16]
 80038e4:	694b      	ldr	r3, [r1, #20]
 80038e6:	9304      	str	r3, [sp, #16]
 80038e8:	698b      	ldr	r3, [r1, #24]
 80038ea:	9304      	str	r3, [sp, #16]
 80038ec:	9b04      	ldr	r3, [sp, #16]
 80038ee:	e7ac      	b.n	800384a <HAL_I2C_Master_Receive+0x102>
 80038f0:	2b02      	cmp	r3, #2
 80038f2:	680b      	ldr	r3, [r1, #0]
 80038f4:	d10d      	bne.n	8003912 <HAL_I2C_Master_Receive+0x1ca>
 80038f6:	f423 6380 	bic.w	r3, r3, #1024	; 0x400
 80038fa:	600b      	str	r3, [r1, #0]
 80038fc:	680b      	ldr	r3, [r1, #0]
 80038fe:	f443 6300 	orr.w	r3, r3, #2048	; 0x800
 8003902:	600b      	str	r3, [r1, #0]
 8003904:	9005      	str	r0, [sp, #20]
 8003906:	694b      	ldr	r3, [r1, #20]
 8003908:	9305      	str	r3, [sp, #20]
 800390a:	698b      	ldr	r3, [r1, #24]
 800390c:	9305      	str	r3, [sp, #20]
 800390e:	9b05      	ldr	r3, [sp, #20]
 8003910:	e79f      	b.n	8003852 <HAL_I2C_Master_Receive+0x10a>
 8003912:	f443 6380 	orr.w	r3, r3, #1024	; 0x400
 8003916:	600b      	str	r3, [r1, #0]
 8003918:	9006      	str	r0, [sp, #24]
 800391a:	694b      	ldr	r3, [r1, #20]
 800391c:	9306      	str	r3, [sp, #24]
 800391e:	698b      	ldr	r3, [r1, #24]
 8003920:	9306      	str	r3, [sp, #24]
 8003922:	9b06      	ldr	r3, [sp, #24]
 8003924:	e795      	b.n	8003852 <HAL_I2C_Master_Receive+0x10a>
 8003926:	2b03      	cmp	r3, #3
 8003928:	d862      	bhi.n	80039f0 <HAL_I2C_Master_Receive+0x2a8>
 800392a:	2b01      	cmp	r3, #1
 800392c:	d116      	bne.n	800395c <HAL_I2C_Master_Receive+0x214>
 800392e:	462a      	mov	r2, r5
 8003930:	4639      	mov	r1, r7
 8003932:	4620      	mov	r0, r4
 8003934:	f7ff fd0c 	bl	8003350 <I2C_WaitOnRXNEFlagUntilTimeout>
 8003938:	2800      	cmp	r0, #0
 800393a:	f47f af69 	bne.w	8003810 <HAL_I2C_Master_Receive+0xc8>
 800393e:	6823      	ldr	r3, [r4, #0]
 8003940:	691a      	ldr	r2, [r3, #16]
 8003942:	6a63      	ldr	r3, [r4, #36]	; 0x24
 8003944:	701a      	strb	r2, [r3, #0]
 8003946:	6a63      	ldr	r3, [r4, #36]	; 0x24
 8003948:	3301      	adds	r3, #1
 800394a:	6263      	str	r3, [r4, #36]	; 0x24
 800394c:	8d23      	ldrh	r3, [r4, #40]	; 0x28
 800394e:	3b01      	subs	r3, #1
 8003950:	8523      	strh	r3, [r4, #40]	; 0x28
 8003952:	8d63      	ldrh	r3, [r4, #42]	; 0x2a
 8003954:	3b01      	subs	r3, #1
 8003956:	b29b      	uxth	r3, r3
 8003958:	8563      	strh	r3, [r4, #42]	; 0x2a
 800395a:	e77c      	b.n	8003856 <HAL_I2C_Master_Receive+0x10e>
 800395c:	2b02      	cmp	r3, #2
 800395e:	9500      	str	r5, [sp, #0]
 8003960:	463b      	mov	r3, r7
 8003962:	f04f 0200 	mov.w	r2, #0
 8003966:	4641      	mov	r1, r8
 8003968:	4620      	mov	r0, r4
 800396a:	d11a      	bne.n	80039a2 <HAL_I2C_Master_Receive+0x25a>
 800396c:	f7ff fc83 	bl	8003276 <I2C_WaitOnFlagUntilTimeout>
 8003970:	2800      	cmp	r0, #0
 8003972:	f47f af4d 	bne.w	8003810 <HAL_I2C_Master_Receive+0xc8>
 8003976:	6823      	ldr	r3, [r4, #0]
 8003978:	681a      	ldr	r2, [r3, #0]
 800397a:	f442 7200 	orr.w	r2, r2, #512	; 0x200
 800397e:	601a      	str	r2, [r3, #0]
 8003980:	691a      	ldr	r2, [r3, #16]
 8003982:	6a63      	ldr	r3, [r4, #36]	; 0x24
 8003984:	701a      	strb	r2, [r3, #0]
 8003986:	6a62      	ldr	r2, [r4, #36]	; 0x24
 8003988:	1c53      	adds	r3, r2, #1
 800398a:	6263      	str	r3, [r4, #36]	; 0x24
 800398c:	8d23      	ldrh	r3, [r4, #40]	; 0x28
 800398e:	3b01      	subs	r3, #1
 8003990:	8523      	strh	r3, [r4, #40]	; 0x28
 8003992:	8d63      	ldrh	r3, [r4, #42]	; 0x2a
 8003994:	3b01      	subs	r3, #1
 8003996:	b29b      	uxth	r3, r3
 8003998:	8563      	strh	r3, [r4, #42]	; 0x2a
 800399a:	6823      	ldr	r3, [r4, #0]
 800399c:	691b      	ldr	r3, [r3, #16]
 800399e:	7053      	strb	r3, [r2, #1]
 80039a0:	e7d1      	b.n	8003946 <HAL_I2C_Master_Receive+0x1fe>
 80039a2:	f7ff fc68 	bl	8003276 <I2C_WaitOnFlagUntilTimeout>
 80039a6:	2800      	cmp	r0, #0
 80039a8:	f47f af32 	bne.w	8003810 <HAL_I2C_Master_Receive+0xc8>
 80039ac:	6823      	ldr	r3, [r4, #0]
 80039ae:	681a      	ldr	r2, [r3, #0]
 80039b0:	f422 6280 	bic.w	r2, r2, #1024	; 0x400
 80039b4:	601a      	str	r2, [r3, #0]
 80039b6:	691a      	ldr	r2, [r3, #16]
 80039b8:	6a63      	ldr	r3, [r4, #36]	; 0x24
 80039ba:	701a      	strb	r2, [r3, #0]
 80039bc:	6a63      	ldr	r3, [r4, #36]	; 0x24
 80039be:	9500      	str	r5, [sp, #0]
 80039c0:	3301      	adds	r3, #1
 80039c2:	6263      	str	r3, [r4, #36]	; 0x24
 80039c4:	8d23      	ldrh	r3, [r4, #40]	; 0x28
 80039c6:	3b01      	subs	r3, #1
 80039c8:	8523      	strh	r3, [r4, #40]	; 0x28
 80039ca:	8d63      	ldrh	r3, [r4, #42]	; 0x2a
 80039cc:	3b01      	subs	r3, #1
 80039ce:	b29b      	uxth	r3, r3
 80039d0:	8563      	strh	r3, [r4, #42]	; 0x2a
 80039d2:	4602      	mov	r2, r0
 80039d4:	463b      	mov	r3, r7
 80039d6:	4641      	mov	r1, r8
 80039d8:	4620      	mov	r0, r4
 80039da:	e7c7      	b.n	800396c <HAL_I2C_Master_Receive+0x224>
 80039dc:	00100002 	.word	0x00100002
 80039e0:	ffff0000 	.word	0xffff0000
 80039e4:	00010002 	.word	0x00010002
 80039e8:	00010008 	.word	0x00010008
 80039ec:	00010004 	.word	0x00010004
 80039f0:	462a      	mov	r2, r5
 80039f2:	4639      	mov	r1, r7
 80039f4:	4620      	mov	r0, r4
 80039f6:	f7ff fcab 	bl	8003350 <I2C_WaitOnRXNEFlagUntilTimeout>
 80039fa:	2800      	cmp	r0, #0
 80039fc:	f47f af08 	bne.w	8003810 <HAL_I2C_Master_Receive+0xc8>
 8003a00:	6823      	ldr	r3, [r4, #0]
 8003a02:	691a      	ldr	r2, [r3, #16]
 8003a04:	6a63      	ldr	r3, [r4, #36]	; 0x24
 8003a06:	701a      	strb	r2, [r3, #0]
 8003a08:	6a62      	ldr	r2, [r4, #36]	; 0x24
 8003a0a:	1c53      	adds	r3, r2, #1
 8003a0c:	6263      	str	r3, [r4, #36]	; 0x24
 8003a0e:	8d23      	ldrh	r3, [r4, #40]	; 0x28
 8003a10:	3b01      	subs	r3, #1
 8003a12:	8523      	strh	r3, [r4, #40]	; 0x28
 8003a14:	8d63      	ldrh	r3, [r4, #42]	; 0x2a
 8003a16:	3b01      	subs	r3, #1
 8003a18:	b29b      	uxth	r3, r3
 8003a1a:	8563      	strh	r3, [r4, #42]	; 0x2a
 8003a1c:	6823      	ldr	r3, [r4, #0]
 8003a1e:	6959      	ldr	r1, [r3, #20]
 8003a20:	0749      	lsls	r1, r1, #29
 8003a22:	f57f af18 	bpl.w	8003856 <HAL_I2C_Master_Receive+0x10e>
 8003a26:	e7b9      	b.n	800399c <HAL_I2C_Master_Receive+0x254>

08003a28 <HAL_PWR_EnableBkUpAccess>:
 8003a28:	4b04      	ldr	r3, [pc, #16]	; (8003a3c <HAL_PWR_EnableBkUpAccess+0x14>)
 8003a2a:	2201      	movs	r2, #1
 8003a2c:	621a      	str	r2, [r3, #32]
 8003a2e:	4b04      	ldr	r3, [pc, #16]	; (8003a40 <HAL_PWR_EnableBkUpAccess+0x18>)
 8003a30:	b082      	sub	sp, #8
 8003a32:	681b      	ldr	r3, [r3, #0]
 8003a34:	9301      	str	r3, [sp, #4]
 8003a36:	9b01      	ldr	r3, [sp, #4]
 8003a38:	b002      	add	sp, #8
 8003a3a:	4770      	bx	lr
 8003a3c:	420e0000 	.word	0x420e0000
 8003a40:	40007000 	.word	0x40007000

08003a44 <HAL_PWR_DisableBkUpAccess>:
 8003a44:	4b04      	ldr	r3, [pc, #16]	; (8003a58 <HAL_PWR_DisableBkUpAccess+0x14>)
 8003a46:	2200      	movs	r2, #0
 8003a48:	621a      	str	r2, [r3, #32]
 8003a4a:	4b04      	ldr	r3, [pc, #16]	; (8003a5c <HAL_PWR_DisableBkUpAccess+0x18>)
 8003a4c:	b082      	sub	sp, #8
 8003a4e:	681b      	ldr	r3, [r3, #0]
 8003a50:	9301      	str	r3, [sp, #4]
 8003a52:	9b01      	ldr	r3, [sp, #4]
 8003a54:	b002      	add	sp, #8
 8003a56:	4770      	bx	lr
 8003a58:	420e0000 	.word	0x420e0000
 8003a5c:	40007000 	.word	0x40007000

08003a60 <HAL_RCC_OscConfig>:
 8003a60:	e92d 41f3 	stmdb	sp!, {r0, r1, r4, r5, r6, r7, r8, lr}
 8003a64:	4604      	mov	r4, r0
 8003a66:	b340      	cbz	r0, 8003aba <HAL_RCC_OscConfig+0x5a>
 8003a68:	6803      	ldr	r3, [r0, #0]
 8003a6a:	07dd      	lsls	r5, r3, #31
 8003a6c:	d410      	bmi.n	8003a90 <HAL_RCC_OscConfig+0x30>
 8003a6e:	6823      	ldr	r3, [r4, #0]
 8003a70:	0798      	lsls	r0, r3, #30
 8003a72:	d45e      	bmi.n	8003b32 <HAL_RCC_OscConfig+0xd2>
 8003a74:	6823      	ldr	r3, [r4, #0]
 8003a76:	071a      	lsls	r2, r3, #28
 8003a78:	f100 80a0 	bmi.w	8003bbc <HAL_RCC_OscConfig+0x15c>
 8003a7c:	6823      	ldr	r3, [r4, #0]
 8003a7e:	075b      	lsls	r3, r3, #29
 8003a80:	f100 80c0 	bmi.w	8003c04 <HAL_RCC_OscConfig+0x1a4>
 8003a84:	69a0      	ldr	r0, [r4, #24]
 8003a86:	2800      	cmp	r0, #0
 8003a88:	f040 8128 	bne.w	8003cdc <HAL_RCC_OscConfig+0x27c>
 8003a8c:	2000      	movs	r0, #0
 8003a8e:	e02b      	b.n	8003ae8 <HAL_RCC_OscConfig+0x88>
 8003a90:	4b8f      	ldr	r3, [pc, #572]	; (8003cd0 <HAL_RCC_OscConfig+0x270>)
 8003a92:	689a      	ldr	r2, [r3, #8]
 8003a94:	f002 020c 	and.w	r2, r2, #12
 8003a98:	2a04      	cmp	r2, #4
 8003a9a:	d007      	beq.n	8003aac <HAL_RCC_OscConfig+0x4c>
 8003a9c:	689a      	ldr	r2, [r3, #8]
 8003a9e:	f002 020c 	and.w	r2, r2, #12
 8003aa2:	2a08      	cmp	r2, #8
 8003aa4:	d10b      	bne.n	8003abe <HAL_RCC_OscConfig+0x5e>
 8003aa6:	685a      	ldr	r2, [r3, #4]
 8003aa8:	0251      	lsls	r1, r2, #9
 8003aaa:	d508      	bpl.n	8003abe <HAL_RCC_OscConfig+0x5e>
 8003aac:	4b88      	ldr	r3, [pc, #544]	; (8003cd0 <HAL_RCC_OscConfig+0x270>)
 8003aae:	681b      	ldr	r3, [r3, #0]
 8003ab0:	039a      	lsls	r2, r3, #14
 8003ab2:	d5dc      	bpl.n	8003a6e <HAL_RCC_OscConfig+0xe>
 8003ab4:	6863      	ldr	r3, [r4, #4]
 8003ab6:	2b00      	cmp	r3, #0
 8003ab8:	d1d9      	bne.n	8003a6e <HAL_RCC_OscConfig+0xe>
 8003aba:	2001      	movs	r0, #1
 8003abc:	e014      	b.n	8003ae8 <HAL_RCC_OscConfig+0x88>
 8003abe:	6862      	ldr	r2, [r4, #4]
 8003ac0:	f5b2 3f80 	cmp.w	r2, #65536	; 0x10000
 8003ac4:	d113      	bne.n	8003aee <HAL_RCC_OscConfig+0x8e>
 8003ac6:	681a      	ldr	r2, [r3, #0]
 8003ac8:	f442 3280 	orr.w	r2, r2, #65536	; 0x10000
 8003acc:	601a      	str	r2, [r3, #0]
 8003ace:	f7ff fa03 	bl	8002ed8 <HAL_GetTick>
 8003ad2:	4e7f      	ldr	r6, [pc, #508]	; (8003cd0 <HAL_RCC_OscConfig+0x270>)
 8003ad4:	4605      	mov	r5, r0
 8003ad6:	6833      	ldr	r3, [r6, #0]
 8003ad8:	039b      	lsls	r3, r3, #14
 8003ada:	d4c8      	bmi.n	8003a6e <HAL_RCC_OscConfig+0xe>
 8003adc:	f7ff f9fc 	bl	8002ed8 <HAL_GetTick>
 8003ae0:	1b40      	subs	r0, r0, r5
 8003ae2:	2864      	cmp	r0, #100	; 0x64
 8003ae4:	d9f7      	bls.n	8003ad6 <HAL_RCC_OscConfig+0x76>
 8003ae6:	2003      	movs	r0, #3
 8003ae8:	b002      	add	sp, #8
 8003aea:	e8bd 81f0 	ldmia.w	sp!, {r4, r5, r6, r7, r8, pc}
 8003aee:	4d78      	ldr	r5, [pc, #480]	; (8003cd0 <HAL_RCC_OscConfig+0x270>)
 8003af0:	f5b2 2fa0 	cmp.w	r2, #327680	; 0x50000
 8003af4:	682b      	ldr	r3, [r5, #0]
 8003af6:	d107      	bne.n	8003b08 <HAL_RCC_OscConfig+0xa8>
 8003af8:	f443 2380 	orr.w	r3, r3, #262144	; 0x40000
 8003afc:	602b      	str	r3, [r5, #0]
 8003afe:	682b      	ldr	r3, [r5, #0]
 8003b00:	f443 3380 	orr.w	r3, r3, #65536	; 0x10000
 8003b04:	602b      	str	r3, [r5, #0]
 8003b06:	e7e2      	b.n	8003ace <HAL_RCC_OscConfig+0x6e>
 8003b08:	f423 3380 	bic.w	r3, r3, #65536	; 0x10000
 8003b0c:	602b      	str	r3, [r5, #0]
 8003b0e:	682b      	ldr	r3, [r5, #0]
 8003b10:	f423 2380 	bic.w	r3, r3, #262144	; 0x40000
 8003b14:	602b      	str	r3, [r5, #0]
 8003b16:	2a00      	cmp	r2, #0
 8003b18:	d1d9      	bne.n	8003ace <HAL_RCC_OscConfig+0x6e>
 8003b1a:	f7ff f9dd 	bl	8002ed8 <HAL_GetTick>
 8003b1e:	4606      	mov	r6, r0
 8003b20:	682b      	ldr	r3, [r5, #0]
 8003b22:	039f      	lsls	r7, r3, #14
 8003b24:	d5a3      	bpl.n	8003a6e <HAL_RCC_OscConfig+0xe>
 8003b26:	f7ff f9d7 	bl	8002ed8 <HAL_GetTick>
 8003b2a:	1b80      	subs	r0, r0, r6
 8003b2c:	2864      	cmp	r0, #100	; 0x64
 8003b2e:	d9f7      	bls.n	8003b20 <HAL_RCC_OscConfig+0xc0>
 8003b30:	e7d9      	b.n	8003ae6 <HAL_RCC_OscConfig+0x86>
 8003b32:	4b67      	ldr	r3, [pc, #412]	; (8003cd0 <HAL_RCC_OscConfig+0x270>)
 8003b34:	689a      	ldr	r2, [r3, #8]
 8003b36:	f012 0f0c 	tst.w	r2, #12
 8003b3a:	d007      	beq.n	8003b4c <HAL_RCC_OscConfig+0xec>
 8003b3c:	689a      	ldr	r2, [r3, #8]
 8003b3e:	f002 020c 	and.w	r2, r2, #12
 8003b42:	2a08      	cmp	r2, #8
 8003b44:	d111      	bne.n	8003b6a <HAL_RCC_OscConfig+0x10a>
 8003b46:	685b      	ldr	r3, [r3, #4]
 8003b48:	025e      	lsls	r6, r3, #9
 8003b4a:	d40e      	bmi.n	8003b6a <HAL_RCC_OscConfig+0x10a>
 8003b4c:	4a60      	ldr	r2, [pc, #384]	; (8003cd0 <HAL_RCC_OscConfig+0x270>)
 8003b4e:	6813      	ldr	r3, [r2, #0]
 8003b50:	079d      	lsls	r5, r3, #30
 8003b52:	d502      	bpl.n	8003b5a <HAL_RCC_OscConfig+0xfa>
 8003b54:	68e3      	ldr	r3, [r4, #12]
 8003b56:	2b01      	cmp	r3, #1
 8003b58:	d1af      	bne.n	8003aba <HAL_RCC_OscConfig+0x5a>
 8003b5a:	6813      	ldr	r3, [r2, #0]
 8003b5c:	6921      	ldr	r1, [r4, #16]
 8003b5e:	f023 03f8 	bic.w	r3, r3, #248	; 0xf8
 8003b62:	ea43 03c1 	orr.w	r3, r3, r1, lsl #3
 8003b66:	6013      	str	r3, [r2, #0]
 8003b68:	e784      	b.n	8003a74 <HAL_RCC_OscConfig+0x14>
 8003b6a:	68e2      	ldr	r2, [r4, #12]
 8003b6c:	4b59      	ldr	r3, [pc, #356]	; (8003cd4 <HAL_RCC_OscConfig+0x274>)
 8003b6e:	b1b2      	cbz	r2, 8003b9e <HAL_RCC_OscConfig+0x13e>
 8003b70:	2201      	movs	r2, #1
 8003b72:	601a      	str	r2, [r3, #0]
 8003b74:	f7ff f9b0 	bl	8002ed8 <HAL_GetTick>
 8003b78:	4d55      	ldr	r5, [pc, #340]	; (8003cd0 <HAL_RCC_OscConfig+0x270>)
 8003b7a:	4606      	mov	r6, r0
 8003b7c:	682b      	ldr	r3, [r5, #0]
 8003b7e:	0798      	lsls	r0, r3, #30
 8003b80:	d507      	bpl.n	8003b92 <HAL_RCC_OscConfig+0x132>
 8003b82:	682b      	ldr	r3, [r5, #0]
 8003b84:	6922      	ldr	r2, [r4, #16]
 8003b86:	f023 03f8 	bic.w	r3, r3, #248	; 0xf8
 8003b8a:	ea43 03c2 	orr.w	r3, r3, r2, lsl #3
 8003b8e:	602b      	str	r3, [r5, #0]
 8003b90:	e770      	b.n	8003a74 <HAL_RCC_OscConfig+0x14>
 8003b92:	f7ff f9a1 	bl	8002ed8 <HAL_GetTick>
 8003b96:	1b80      	subs	r0, r0, r6
 8003b98:	2802      	cmp	r0, #2
 8003b9a:	d9ef      	bls.n	8003b7c <HAL_RCC_OscConfig+0x11c>
 8003b9c:	e7a3      	b.n	8003ae6 <HAL_RCC_OscConfig+0x86>
 8003b9e:	601a      	str	r2, [r3, #0]
 8003ba0:	f7ff f99a 	bl	8002ed8 <HAL_GetTick>
 8003ba4:	4e4a      	ldr	r6, [pc, #296]	; (8003cd0 <HAL_RCC_OscConfig+0x270>)
 8003ba6:	4605      	mov	r5, r0
 8003ba8:	6833      	ldr	r3, [r6, #0]
 8003baa:	0799      	lsls	r1, r3, #30
 8003bac:	f57f af62 	bpl.w	8003a74 <HAL_RCC_OscConfig+0x14>
 8003bb0:	f7ff f992 	bl	8002ed8 <HAL_GetTick>
 8003bb4:	1b40      	subs	r0, r0, r5
 8003bb6:	2802      	cmp	r0, #2
 8003bb8:	d9f6      	bls.n	8003ba8 <HAL_RCC_OscConfig+0x148>
 8003bba:	e794      	b.n	8003ae6 <HAL_RCC_OscConfig+0x86>
 8003bbc:	6962      	ldr	r2, [r4, #20]
 8003bbe:	4b45      	ldr	r3, [pc, #276]	; (8003cd4 <HAL_RCC_OscConfig+0x274>)
 8003bc0:	b182      	cbz	r2, 8003be4 <HAL_RCC_OscConfig+0x184>
 8003bc2:	2201      	movs	r2, #1
 8003bc4:	f8c3 2e80 	str.w	r2, [r3, #3712]	; 0xe80
 8003bc8:	f7ff f986 	bl	8002ed8 <HAL_GetTick>
 8003bcc:	4e40      	ldr	r6, [pc, #256]	; (8003cd0 <HAL_RCC_OscConfig+0x270>)
 8003bce:	4605      	mov	r5, r0
 8003bd0:	6f73      	ldr	r3, [r6, #116]	; 0x74
 8003bd2:	079f      	lsls	r7, r3, #30
 8003bd4:	f53f af52 	bmi.w	8003a7c <HAL_RCC_OscConfig+0x1c>
 8003bd8:	f7ff f97e 	bl	8002ed8 <HAL_GetTick>
 8003bdc:	1b40      	subs	r0, r0, r5
 8003bde:	2802      	cmp	r0, #2
 8003be0:	d9f6      	bls.n	8003bd0 <HAL_RCC_OscConfig+0x170>
 8003be2:	e780      	b.n	8003ae6 <HAL_RCC_OscConfig+0x86>
 8003be4:	f8c3 2e80 	str.w	r2, [r3, #3712]	; 0xe80
 8003be8:	f7ff f976 	bl	8002ed8 <HAL_GetTick>
 8003bec:	4e38      	ldr	r6, [pc, #224]	; (8003cd0 <HAL_RCC_OscConfig+0x270>)
 8003bee:	4605      	mov	r5, r0
 8003bf0:	6f73      	ldr	r3, [r6, #116]	; 0x74
 8003bf2:	0798      	lsls	r0, r3, #30
 8003bf4:	f57f af42 	bpl.w	8003a7c <HAL_RCC_OscConfig+0x1c>
 8003bf8:	f7ff f96e 	bl	8002ed8 <HAL_GetTick>
 8003bfc:	1b40      	subs	r0, r0, r5
 8003bfe:	2802      	cmp	r0, #2
 8003c00:	d9f6      	bls.n	8003bf0 <HAL_RCC_OscConfig+0x190>
 8003c02:	e770      	b.n	8003ae6 <HAL_RCC_OscConfig+0x86>
 8003c04:	4b32      	ldr	r3, [pc, #200]	; (8003cd0 <HAL_RCC_OscConfig+0x270>)
 8003c06:	6c1a      	ldr	r2, [r3, #64]	; 0x40
 8003c08:	f012 5280 	ands.w	r2, r2, #268435456	; 0x10000000
 8003c0c:	d128      	bne.n	8003c60 <HAL_RCC_OscConfig+0x200>
 8003c0e:	9201      	str	r2, [sp, #4]
 8003c10:	6c1a      	ldr	r2, [r3, #64]	; 0x40
 8003c12:	f042 5280 	orr.w	r2, r2, #268435456	; 0x10000000
 8003c16:	641a      	str	r2, [r3, #64]	; 0x40
 8003c18:	6c1b      	ldr	r3, [r3, #64]	; 0x40
 8003c1a:	f003 5380 	and.w	r3, r3, #268435456	; 0x10000000
 8003c1e:	9301      	str	r3, [sp, #4]
 8003c20:	9b01      	ldr	r3, [sp, #4]
 8003c22:	2701      	movs	r7, #1
 8003c24:	4d2c      	ldr	r5, [pc, #176]	; (8003cd8 <HAL_RCC_OscConfig+0x278>)
 8003c26:	682b      	ldr	r3, [r5, #0]
 8003c28:	05d9      	lsls	r1, r3, #23
 8003c2a:	d51b      	bpl.n	8003c64 <HAL_RCC_OscConfig+0x204>
 8003c2c:	68a3      	ldr	r3, [r4, #8]
 8003c2e:	4d28      	ldr	r5, [pc, #160]	; (8003cd0 <HAL_RCC_OscConfig+0x270>)
 8003c30:	2b01      	cmp	r3, #1
 8003c32:	d127      	bne.n	8003c84 <HAL_RCC_OscConfig+0x224>
 8003c34:	6f2b      	ldr	r3, [r5, #112]	; 0x70
 8003c36:	f043 0301 	orr.w	r3, r3, #1
 8003c3a:	672b      	str	r3, [r5, #112]	; 0x70
 8003c3c:	f7ff f94c 	bl	8002ed8 <HAL_GetTick>
 8003c40:	4e23      	ldr	r6, [pc, #140]	; (8003cd0 <HAL_RCC_OscConfig+0x270>)
 8003c42:	4605      	mov	r5, r0
 8003c44:	f241 3888 	movw	r8, #5000	; 0x1388
 8003c48:	6f33      	ldr	r3, [r6, #112]	; 0x70
 8003c4a:	079b      	lsls	r3, r3, #30
 8003c4c:	d539      	bpl.n	8003cc2 <HAL_RCC_OscConfig+0x262>
 8003c4e:	2f00      	cmp	r7, #0
 8003c50:	f43f af18 	beq.w	8003a84 <HAL_RCC_OscConfig+0x24>
 8003c54:	4a1e      	ldr	r2, [pc, #120]	; (8003cd0 <HAL_RCC_OscConfig+0x270>)
 8003c56:	6c13      	ldr	r3, [r2, #64]	; 0x40
 8003c58:	f023 5380 	bic.w	r3, r3, #268435456	; 0x10000000
 8003c5c:	6413      	str	r3, [r2, #64]	; 0x40
 8003c5e:	e711      	b.n	8003a84 <HAL_RCC_OscConfig+0x24>
 8003c60:	2700      	movs	r7, #0
 8003c62:	e7df      	b.n	8003c24 <HAL_RCC_OscConfig+0x1c4>
 8003c64:	682b      	ldr	r3, [r5, #0]
 8003c66:	f443 7380 	orr.w	r3, r3, #256	; 0x100
 8003c6a:	602b      	str	r3, [r5, #0]
 8003c6c:	f7ff f934 	bl	8002ed8 <HAL_GetTick>
 8003c70:	4606      	mov	r6, r0
 8003c72:	682b      	ldr	r3, [r5, #0]
 8003c74:	05da      	lsls	r2, r3, #23
 8003c76:	d4d9      	bmi.n	8003c2c <HAL_RCC_OscConfig+0x1cc>
 8003c78:	f7ff f92e 	bl	8002ed8 <HAL_GetTick>
 8003c7c:	1b80      	subs	r0, r0, r6
 8003c7e:	2802      	cmp	r0, #2
 8003c80:	d9f7      	bls.n	8003c72 <HAL_RCC_OscConfig+0x212>
 8003c82:	e730      	b.n	8003ae6 <HAL_RCC_OscConfig+0x86>
 8003c84:	2b05      	cmp	r3, #5
 8003c86:	d104      	bne.n	8003c92 <HAL_RCC_OscConfig+0x232>
 8003c88:	6f2b      	ldr	r3, [r5, #112]	; 0x70
 8003c8a:	f043 0304 	orr.w	r3, r3, #4
 8003c8e:	672b      	str	r3, [r5, #112]	; 0x70
 8003c90:	e7d0      	b.n	8003c34 <HAL_RCC_OscConfig+0x1d4>
 8003c92:	6f2a      	ldr	r2, [r5, #112]	; 0x70
 8003c94:	f022 0201 	bic.w	r2, r2, #1
 8003c98:	672a      	str	r2, [r5, #112]	; 0x70
 8003c9a:	6f2a      	ldr	r2, [r5, #112]	; 0x70
 8003c9c:	f022 0204 	bic.w	r2, r2, #4
 8003ca0:	672a      	str	r2, [r5, #112]	; 0x70
 8003ca2:	2b00      	cmp	r3, #0
 8003ca4:	d1ca      	bne.n	8003c3c <HAL_RCC_OscConfig+0x1dc>
 8003ca6:	f7ff f917 	bl	8002ed8 <HAL_GetTick>
 8003caa:	f241 3888 	movw	r8, #5000	; 0x1388
 8003cae:	4606      	mov	r6, r0
 8003cb0:	6f2b      	ldr	r3, [r5, #112]	; 0x70
 8003cb2:	0798      	lsls	r0, r3, #30
 8003cb4:	d5cb      	bpl.n	8003c4e <HAL_RCC_OscConfig+0x1ee>
 8003cb6:	f7ff f90f 	bl	8002ed8 <HAL_GetTick>
 8003cba:	1b80      	subs	r0, r0, r6
 8003cbc:	4540      	cmp	r0, r8
 8003cbe:	d9f7      	bls.n	8003cb0 <HAL_RCC_OscConfig+0x250>
 8003cc0:	e711      	b.n	8003ae6 <HAL_RCC_OscConfig+0x86>
 8003cc2:	f7ff f909 	bl	8002ed8 <HAL_GetTick>
 8003cc6:	1b40      	subs	r0, r0, r5
 8003cc8:	4540      	cmp	r0, r8
 8003cca:	d9bd      	bls.n	8003c48 <HAL_RCC_OscConfig+0x1e8>
 8003ccc:	e70b      	b.n	8003ae6 <HAL_RCC_OscConfig+0x86>
 8003cce:	bf00      	nop
 8003cd0:	40023800 	.word	0x40023800
 8003cd4:	42470000 	.word	0x42470000
 8003cd8:	40007000 	.word	0x40007000
 8003cdc:	4d36      	ldr	r5, [pc, #216]	; (8003db8 <HAL_RCC_OscConfig+0x358>)
 8003cde:	68ab      	ldr	r3, [r5, #8]
 8003ce0:	f003 030c 	and.w	r3, r3, #12
 8003ce4:	2b08      	cmp	r3, #8
 8003ce6:	d03d      	beq.n	8003d64 <HAL_RCC_OscConfig+0x304>
 8003ce8:	4b34      	ldr	r3, [pc, #208]	; (8003dbc <HAL_RCC_OscConfig+0x35c>)
 8003cea:	2200      	movs	r2, #0
 8003cec:	2802      	cmp	r0, #2
 8003cee:	661a      	str	r2, [r3, #96]	; 0x60
 8003cf0:	d12b      	bne.n	8003d4a <HAL_RCC_OscConfig+0x2ea>
 8003cf2:	f7ff f8f1 	bl	8002ed8 <HAL_GetTick>
 8003cf6:	4606      	mov	r6, r0
 8003cf8:	682b      	ldr	r3, [r5, #0]
 8003cfa:	0199      	lsls	r1, r3, #6
 8003cfc:	d41f      	bmi.n	8003d3e <HAL_RCC_OscConfig+0x2de>
 8003cfe:	e9d4 3207 	ldrd	r3, r2, [r4, #28]
 8003d02:	4313      	orrs	r3, r2
 8003d04:	6a62      	ldr	r2, [r4, #36]	; 0x24
 8003d06:	ea43 1382 	orr.w	r3, r3, r2, lsl #6
 8003d0a:	6ae2      	ldr	r2, [r4, #44]	; 0x2c
 8003d0c:	ea43 6302 	orr.w	r3, r3, r2, lsl #24
 8003d10:	6aa2      	ldr	r2, [r4, #40]	; 0x28
 8003d12:	0852      	lsrs	r2, r2, #1
 8003d14:	3a01      	subs	r2, #1
 8003d16:	ea43 4302 	orr.w	r3, r3, r2, lsl #16
 8003d1a:	606b      	str	r3, [r5, #4]
 8003d1c:	4b27      	ldr	r3, [pc, #156]	; (8003dbc <HAL_RCC_OscConfig+0x35c>)
 8003d1e:	4d26      	ldr	r5, [pc, #152]	; (8003db8 <HAL_RCC_OscConfig+0x358>)
 8003d20:	2201      	movs	r2, #1
 8003d22:	661a      	str	r2, [r3, #96]	; 0x60
 8003d24:	f7ff f8d8 	bl	8002ed8 <HAL_GetTick>
 8003d28:	4604      	mov	r4, r0
 8003d2a:	682b      	ldr	r3, [r5, #0]
 8003d2c:	019a      	lsls	r2, r3, #6
 8003d2e:	f53f aead 	bmi.w	8003a8c <HAL_RCC_OscConfig+0x2c>
 8003d32:	f7ff f8d1 	bl	8002ed8 <HAL_GetTick>
 8003d36:	1b00      	subs	r0, r0, r4
 8003d38:	2802      	cmp	r0, #2
 8003d3a:	d9f6      	bls.n	8003d2a <HAL_RCC_OscConfig+0x2ca>
 8003d3c:	e6d3      	b.n	8003ae6 <HAL_RCC_OscConfig+0x86>
 8003d3e:	f7ff f8cb 	bl	8002ed8 <HAL_GetTick>
 8003d42:	1b80      	subs	r0, r0, r6
 8003d44:	2802      	cmp	r0, #2
 8003d46:	d9d7      	bls.n	8003cf8 <HAL_RCC_OscConfig+0x298>
 8003d48:	e6cd      	b.n	8003ae6 <HAL_RCC_OscConfig+0x86>
 8003d4a:	f7ff f8c5 	bl	8002ed8 <HAL_GetTick>
 8003d4e:	4604      	mov	r4, r0
 8003d50:	682b      	ldr	r3, [r5, #0]
 8003d52:	019b      	lsls	r3, r3, #6
 8003d54:	f57f ae9a 	bpl.w	8003a8c <HAL_RCC_OscConfig+0x2c>
 8003d58:	f7ff f8be 	bl	8002ed8 <HAL_GetTick>
 8003d5c:	1b00      	subs	r0, r0, r4
 8003d5e:	2802      	cmp	r0, #2
 8003d60:	d9f6      	bls.n	8003d50 <HAL_RCC_OscConfig+0x2f0>
 8003d62:	e6c0      	b.n	8003ae6 <HAL_RCC_OscConfig+0x86>
 8003d64:	2801      	cmp	r0, #1
 8003d66:	f43f aebf 	beq.w	8003ae8 <HAL_RCC_OscConfig+0x88>
 8003d6a:	686b      	ldr	r3, [r5, #4]
 8003d6c:	69e2      	ldr	r2, [r4, #28]
 8003d6e:	f403 0180 	and.w	r1, r3, #4194304	; 0x400000
 8003d72:	4291      	cmp	r1, r2
 8003d74:	f47f aea1 	bne.w	8003aba <HAL_RCC_OscConfig+0x5a>
 8003d78:	6a21      	ldr	r1, [r4, #32]
 8003d7a:	f003 023f 	and.w	r2, r3, #63	; 0x3f
 8003d7e:	428a      	cmp	r2, r1
 8003d80:	f47f ae9b 	bne.w	8003aba <HAL_RCC_OscConfig+0x5a>
 8003d84:	6a61      	ldr	r1, [r4, #36]	; 0x24
 8003d86:	f647 72c0 	movw	r2, #32704	; 0x7fc0
 8003d8a:	401a      	ands	r2, r3
 8003d8c:	ebb2 1f81 	cmp.w	r2, r1, lsl #6
 8003d90:	f47f ae93 	bne.w	8003aba <HAL_RCC_OscConfig+0x5a>
 8003d94:	6aa2      	ldr	r2, [r4, #40]	; 0x28
 8003d96:	0852      	lsrs	r2, r2, #1
 8003d98:	f403 3140 	and.w	r1, r3, #196608	; 0x30000
 8003d9c:	3a01      	subs	r2, #1
 8003d9e:	ebb1 4f02 	cmp.w	r1, r2, lsl #16
 8003da2:	f47f ae8a 	bne.w	8003aba <HAL_RCC_OscConfig+0x5a>
 8003da6:	6ae2      	ldr	r2, [r4, #44]	; 0x2c
 8003da8:	f003 6370 	and.w	r3, r3, #251658240	; 0xf000000
 8003dac:	ebb3 6f02 	cmp.w	r3, r2, lsl #24
 8003db0:	f43f ae6c 	beq.w	8003a8c <HAL_RCC_OscConfig+0x2c>
 8003db4:	e681      	b.n	8003aba <HAL_RCC_OscConfig+0x5a>
 8003db6:	bf00      	nop
 8003db8:	40023800 	.word	0x40023800
 8003dbc:	42470000 	.word	0x42470000

08003dc0 <HAL_RCC_GetSysClockFreq>:
 8003dc0:	4913      	ldr	r1, [pc, #76]	; (8003e10 <HAL_RCC_GetSysClockFreq+0x50>)
 8003dc2:	b508      	push	{r3, lr}
 8003dc4:	688b      	ldr	r3, [r1, #8]
 8003dc6:	f003 030c 	and.w	r3, r3, #12
 8003dca:	2b04      	cmp	r3, #4
 8003dcc:	d01c      	beq.n	8003e08 <HAL_RCC_GetSysClockFreq+0x48>
 8003dce:	2b08      	cmp	r3, #8
 8003dd0:	d11c      	bne.n	8003e0c <HAL_RCC_GetSysClockFreq+0x4c>
 8003dd2:	684a      	ldr	r2, [r1, #4]
 8003dd4:	684b      	ldr	r3, [r1, #4]
 8003dd6:	6849      	ldr	r1, [r1, #4]
 8003dd8:	f413 0380 	ands.w	r3, r3, #4194304	; 0x400000
 8003ddc:	bf14      	ite	ne
 8003dde:	480d      	ldrne	r0, [pc, #52]	; (8003e14 <HAL_RCC_GetSysClockFreq+0x54>)
 8003de0:	480d      	ldreq	r0, [pc, #52]	; (8003e18 <HAL_RCC_GetSysClockFreq+0x58>)
 8003de2:	f3c1 1188 	ubfx	r1, r1, #6, #9
 8003de6:	bf18      	it	ne
 8003de8:	2300      	movne	r3, #0
 8003dea:	f002 023f 	and.w	r2, r2, #63	; 0x3f
 8003dee:	fba1 0100 	umull	r0, r1, r1, r0
 8003df2:	f7fc ff49 	bl	8000c88 <__aeabi_uldivmod>
 8003df6:	4b06      	ldr	r3, [pc, #24]	; (8003e10 <HAL_RCC_GetSysClockFreq+0x50>)
 8003df8:	685b      	ldr	r3, [r3, #4]
 8003dfa:	f3c3 4301 	ubfx	r3, r3, #16, #2
 8003dfe:	3301      	adds	r3, #1
 8003e00:	005b      	lsls	r3, r3, #1
 8003e02:	fbb0 f0f3 	udiv	r0, r0, r3
 8003e06:	bd08      	pop	{r3, pc}
 8003e08:	4802      	ldr	r0, [pc, #8]	; (8003e14 <HAL_RCC_GetSysClockFreq+0x54>)
 8003e0a:	e7fc      	b.n	8003e06 <HAL_RCC_GetSysClockFreq+0x46>
 8003e0c:	4802      	ldr	r0, [pc, #8]	; (8003e18 <HAL_RCC_GetSysClockFreq+0x58>)
 8003e0e:	e7fa      	b.n	8003e06 <HAL_RCC_GetSysClockFreq+0x46>
 8003e10:	40023800 	.word	0x40023800
 8003e14:	017d7840 	.word	0x017d7840
 8003e18:	00f42400 	.word	0x00f42400

08003e1c <HAL_RCC_ClockConfig>:
 8003e1c:	e92d 41f0 	stmdb	sp!, {r4, r5, r6, r7, r8, lr}
 8003e20:	460d      	mov	r5, r1
 8003e22:	4604      	mov	r4, r0
 8003e24:	b910      	cbnz	r0, 8003e2c <HAL_RCC_ClockConfig+0x10>
 8003e26:	2001      	movs	r0, #1
 8003e28:	e8bd 81f0 	ldmia.w	sp!, {r4, r5, r6, r7, r8, pc}
 8003e2c:	4b44      	ldr	r3, [pc, #272]	; (8003f40 <HAL_RCC_ClockConfig+0x124>)
 8003e2e:	681a      	ldr	r2, [r3, #0]
 8003e30:	f002 0207 	and.w	r2, r2, #7
 8003e34:	428a      	cmp	r2, r1
 8003e36:	d328      	bcc.n	8003e8a <HAL_RCC_ClockConfig+0x6e>
 8003e38:	6822      	ldr	r2, [r4, #0]
 8003e3a:	0797      	lsls	r7, r2, #30
 8003e3c:	d42d      	bmi.n	8003e9a <HAL_RCC_ClockConfig+0x7e>
 8003e3e:	07d0      	lsls	r0, r2, #31
 8003e40:	d441      	bmi.n	8003ec6 <HAL_RCC_ClockConfig+0xaa>
 8003e42:	4b3f      	ldr	r3, [pc, #252]	; (8003f40 <HAL_RCC_ClockConfig+0x124>)
 8003e44:	681a      	ldr	r2, [r3, #0]
 8003e46:	f002 0207 	and.w	r2, r2, #7
 8003e4a:	42aa      	cmp	r2, r5
 8003e4c:	d866      	bhi.n	8003f1c <HAL_RCC_ClockConfig+0x100>
 8003e4e:	6822      	ldr	r2, [r4, #0]
 8003e50:	0751      	lsls	r1, r2, #29
 8003e52:	d46c      	bmi.n	8003f2e <HAL_RCC_ClockConfig+0x112>
 8003e54:	0713      	lsls	r3, r2, #28
 8003e56:	d507      	bpl.n	8003e68 <HAL_RCC_ClockConfig+0x4c>
 8003e58:	4a3a      	ldr	r2, [pc, #232]	; (8003f44 <HAL_RCC_ClockConfig+0x128>)
 8003e5a:	6921      	ldr	r1, [r4, #16]
 8003e5c:	6893      	ldr	r3, [r2, #8]
 8003e5e:	f423 4360 	bic.w	r3, r3, #57344	; 0xe000
 8003e62:	ea43 03c1 	orr.w	r3, r3, r1, lsl #3
 8003e66:	6093      	str	r3, [r2, #8]
 8003e68:	f7ff ffaa 	bl	8003dc0 <HAL_RCC_GetSysClockFreq>
 8003e6c:	4b35      	ldr	r3, [pc, #212]	; (8003f44 <HAL_RCC_ClockConfig+0x128>)
 8003e6e:	4a36      	ldr	r2, [pc, #216]	; (8003f48 <HAL_RCC_ClockConfig+0x12c>)
 8003e70:	689b      	ldr	r3, [r3, #8]
 8003e72:	f3c3 1303 	ubfx	r3, r3, #4, #4
 8003e76:	5cd3      	ldrb	r3, [r2, r3]
 8003e78:	40d8      	lsrs	r0, r3
 8003e7a:	4b34      	ldr	r3, [pc, #208]	; (8003f4c <HAL_RCC_ClockConfig+0x130>)
 8003e7c:	6018      	str	r0, [r3, #0]
 8003e7e:	4b34      	ldr	r3, [pc, #208]	; (8003f50 <HAL_RCC_ClockConfig+0x134>)
 8003e80:	6818      	ldr	r0, [r3, #0]
 8003e82:	f7fe ffdf 	bl	8002e44 <HAL_InitTick>
 8003e86:	2000      	movs	r0, #0
 8003e88:	e7ce      	b.n	8003e28 <HAL_RCC_ClockConfig+0xc>
 8003e8a:	b2ca      	uxtb	r2, r1
 8003e8c:	701a      	strb	r2, [r3, #0]
 8003e8e:	681b      	ldr	r3, [r3, #0]
 8003e90:	f003 0307 	and.w	r3, r3, #7
 8003e94:	428b      	cmp	r3, r1
 8003e96:	d1c6      	bne.n	8003e26 <HAL_RCC_ClockConfig+0xa>
 8003e98:	e7ce      	b.n	8003e38 <HAL_RCC_ClockConfig+0x1c>
 8003e9a:	4b2a      	ldr	r3, [pc, #168]	; (8003f44 <HAL_RCC_ClockConfig+0x128>)
 8003e9c:	f012 0f04 	tst.w	r2, #4
 8003ea0:	bf1e      	ittt	ne
 8003ea2:	6899      	ldrne	r1, [r3, #8]
 8003ea4:	f441 51e0 	orrne.w	r1, r1, #7168	; 0x1c00
 8003ea8:	6099      	strne	r1, [r3, #8]
 8003eaa:	0716      	lsls	r6, r2, #28
 8003eac:	bf42      	ittt	mi
 8003eae:	6899      	ldrmi	r1, [r3, #8]
 8003eb0:	f441 4160 	orrmi.w	r1, r1, #57344	; 0xe000
 8003eb4:	6099      	strmi	r1, [r3, #8]
 8003eb6:	4923      	ldr	r1, [pc, #140]	; (8003f44 <HAL_RCC_ClockConfig+0x128>)
 8003eb8:	68a0      	ldr	r0, [r4, #8]
 8003eba:	688b      	ldr	r3, [r1, #8]
 8003ebc:	f023 03f0 	bic.w	r3, r3, #240	; 0xf0
 8003ec0:	4303      	orrs	r3, r0
 8003ec2:	608b      	str	r3, [r1, #8]
 8003ec4:	e7bb      	b.n	8003e3e <HAL_RCC_ClockConfig+0x22>
 8003ec6:	6862      	ldr	r2, [r4, #4]
 8003ec8:	4b1e      	ldr	r3, [pc, #120]	; (8003f44 <HAL_RCC_ClockConfig+0x128>)
 8003eca:	2a01      	cmp	r2, #1
 8003ecc:	d11c      	bne.n	8003f08 <HAL_RCC_ClockConfig+0xec>
 8003ece:	681b      	ldr	r3, [r3, #0]
 8003ed0:	f413 3f00 	tst.w	r3, #131072	; 0x20000
 8003ed4:	d0a7      	beq.n	8003e26 <HAL_RCC_ClockConfig+0xa>
 8003ed6:	4e1b      	ldr	r6, [pc, #108]	; (8003f44 <HAL_RCC_ClockConfig+0x128>)
 8003ed8:	68b3      	ldr	r3, [r6, #8]
 8003eda:	f023 0303 	bic.w	r3, r3, #3
 8003ede:	4313      	orrs	r3, r2
 8003ee0:	60b3      	str	r3, [r6, #8]
 8003ee2:	f7fe fff9 	bl	8002ed8 <HAL_GetTick>
 8003ee6:	f241 3888 	movw	r8, #5000	; 0x1388
 8003eea:	4607      	mov	r7, r0
 8003eec:	68b3      	ldr	r3, [r6, #8]
 8003eee:	6862      	ldr	r2, [r4, #4]
 8003ef0:	f003 030c 	and.w	r3, r3, #12
 8003ef4:	ebb3 0f82 	cmp.w	r3, r2, lsl #2
 8003ef8:	d0a3      	beq.n	8003e42 <HAL_RCC_ClockConfig+0x26>
 8003efa:	f7fe ffed 	bl	8002ed8 <HAL_GetTick>
 8003efe:	1bc0      	subs	r0, r0, r7
 8003f00:	4540      	cmp	r0, r8
 8003f02:	d9f3      	bls.n	8003eec <HAL_RCC_ClockConfig+0xd0>
 8003f04:	2003      	movs	r0, #3
 8003f06:	e78f      	b.n	8003e28 <HAL_RCC_ClockConfig+0xc>
 8003f08:	1e91      	subs	r1, r2, #2
 8003f0a:	2901      	cmp	r1, #1
 8003f0c:	681b      	ldr	r3, [r3, #0]
 8003f0e:	d802      	bhi.n	8003f16 <HAL_RCC_ClockConfig+0xfa>
 8003f10:	f013 7f00 	tst.w	r3, #33554432	; 0x2000000
 8003f14:	e7de      	b.n	8003ed4 <HAL_RCC_ClockConfig+0xb8>
 8003f16:	f013 0f02 	tst.w	r3, #2
 8003f1a:	e7db      	b.n	8003ed4 <HAL_RCC_ClockConfig+0xb8>
 8003f1c:	b2ea      	uxtb	r2, r5
 8003f1e:	701a      	strb	r2, [r3, #0]
 8003f20:	681b      	ldr	r3, [r3, #0]
 8003f22:	f003 0307 	and.w	r3, r3, #7
 8003f26:	42ab      	cmp	r3, r5
 8003f28:	f47f af7d 	bne.w	8003e26 <HAL_RCC_ClockConfig+0xa>
 8003f2c:	e78f      	b.n	8003e4e <HAL_RCC_ClockConfig+0x32>
 8003f2e:	4905      	ldr	r1, [pc, #20]	; (8003f44 <HAL_RCC_ClockConfig+0x128>)
 8003f30:	68e0      	ldr	r0, [r4, #12]
 8003f32:	688b      	ldr	r3, [r1, #8]
 8003f34:	f423 53e0 	bic.w	r3, r3, #7168	; 0x1c00
 8003f38:	4303      	orrs	r3, r0
 8003f3a:	608b      	str	r3, [r1, #8]
 8003f3c:	e78a      	b.n	8003e54 <HAL_RCC_ClockConfig+0x38>
 8003f3e:	bf00      	nop
 8003f40:	40023c00 	.word	0x40023c00
 8003f44:	40023800 	.word	0x40023800
 8003f48:	0800a9d4 	.word	0x0800a9d4
 8003f4c:	2000002c 	.word	0x2000002c
 8003f50:	20000034 	.word	0x20000034

08003f54 <HAL_RCC_GetPCLK1Freq>:
 8003f54:	4b04      	ldr	r3, [pc, #16]	; (8003f68 <HAL_RCC_GetPCLK1Freq+0x14>)
 8003f56:	4a05      	ldr	r2, [pc, #20]	; (8003f6c <HAL_RCC_GetPCLK1Freq+0x18>)
 8003f58:	689b      	ldr	r3, [r3, #8]
 8003f5a:	f3c3 2382 	ubfx	r3, r3, #10, #3
 8003f5e:	5cd3      	ldrb	r3, [r2, r3]
 8003f60:	4a03      	ldr	r2, [pc, #12]	; (8003f70 <HAL_RCC_GetPCLK1Freq+0x1c>)
 8003f62:	6810      	ldr	r0, [r2, #0]
 8003f64:	40d8      	lsrs	r0, r3
 8003f66:	4770      	bx	lr
 8003f68:	40023800 	.word	0x40023800
 8003f6c:	0800a9e4 	.word	0x0800a9e4
 8003f70:	2000002c 	.word	0x2000002c

08003f74 <HAL_RCC_GetPCLK2Freq>:
 8003f74:	4b04      	ldr	r3, [pc, #16]	; (8003f88 <HAL_RCC_GetPCLK2Freq+0x14>)
 8003f76:	4a05      	ldr	r2, [pc, #20]	; (8003f8c <HAL_RCC_GetPCLK2Freq+0x18>)
 8003f78:	689b      	ldr	r3, [r3, #8]
 8003f7a:	f3c3 3342 	ubfx	r3, r3, #13, #3
 8003f7e:	5cd3      	ldrb	r3, [r2, r3]
 8003f80:	4a03      	ldr	r2, [pc, #12]	; (8003f90 <HAL_RCC_GetPCLK2Freq+0x1c>)
 8003f82:	6810      	ldr	r0, [r2, #0]
 8003f84:	40d8      	lsrs	r0, r3
 8003f86:	4770      	bx	lr
 8003f88:	40023800 	.word	0x40023800
 8003f8c:	0800a9e4 	.word	0x0800a9e4
 8003f90:	2000002c 	.word	0x2000002c

08003f94 <TIM_OC1_SetConfig>:
 8003f94:	6a03      	ldr	r3, [r0, #32]
 8003f96:	f023 0301 	bic.w	r3, r3, #1
 8003f9a:	6203      	str	r3, [r0, #32]
 8003f9c:	6a03      	ldr	r3, [r0, #32]
 8003f9e:	b570      	push	{r4, r5, r6, lr}
 8003fa0:	6844      	ldr	r4, [r0, #4]
 8003fa2:	6982      	ldr	r2, [r0, #24]
 8003fa4:	680d      	ldr	r5, [r1, #0]
 8003fa6:	f022 0273 	bic.w	r2, r2, #115	; 0x73
 8003faa:	432a      	orrs	r2, r5
 8003fac:	688d      	ldr	r5, [r1, #8]
 8003fae:	f023 0302 	bic.w	r3, r3, #2
 8003fb2:	432b      	orrs	r3, r5
 8003fb4:	4d0e      	ldr	r5, [pc, #56]	; (8003ff0 <TIM_OC1_SetConfig+0x5c>)
 8003fb6:	42a8      	cmp	r0, r5
 8003fb8:	d002      	beq.n	8003fc0 <TIM_OC1_SetConfig+0x2c>
 8003fba:	4e0e      	ldr	r6, [pc, #56]	; (8003ff4 <TIM_OC1_SetConfig+0x60>)
 8003fbc:	42b0      	cmp	r0, r6
 8003fbe:	d110      	bne.n	8003fe2 <TIM_OC1_SetConfig+0x4e>
 8003fc0:	68ce      	ldr	r6, [r1, #12]
 8003fc2:	f023 0308 	bic.w	r3, r3, #8
 8003fc6:	4333      	orrs	r3, r6
 8003fc8:	42a8      	cmp	r0, r5
 8003fca:	f023 0304 	bic.w	r3, r3, #4
 8003fce:	d002      	beq.n	8003fd6 <TIM_OC1_SetConfig+0x42>
 8003fd0:	4d08      	ldr	r5, [pc, #32]	; (8003ff4 <TIM_OC1_SetConfig+0x60>)
 8003fd2:	42a8      	cmp	r0, r5
 8003fd4:	d105      	bne.n	8003fe2 <TIM_OC1_SetConfig+0x4e>
 8003fd6:	e9d1 5605 	ldrd	r5, r6, [r1, #20]
 8003fda:	f424 7440 	bic.w	r4, r4, #768	; 0x300
 8003fde:	4335      	orrs	r5, r6
 8003fe0:	432c      	orrs	r4, r5
 8003fe2:	6044      	str	r4, [r0, #4]
 8003fe4:	6182      	str	r2, [r0, #24]
 8003fe6:	684a      	ldr	r2, [r1, #4]
 8003fe8:	6342      	str	r2, [r0, #52]	; 0x34
 8003fea:	6203      	str	r3, [r0, #32]
 8003fec:	bd70      	pop	{r4, r5, r6, pc}
 8003fee:	bf00      	nop
 8003ff0:	40010000 	.word	0x40010000
 8003ff4:	40010400 	.word	0x40010400

08003ff8 <TIM_OC3_SetConfig>:
 8003ff8:	6a03      	ldr	r3, [r0, #32]
 8003ffa:	f423 7380 	bic.w	r3, r3, #256	; 0x100
 8003ffe:	6203      	str	r3, [r0, #32]
 8004000:	6a03      	ldr	r3, [r0, #32]
 8004002:	b570      	push	{r4, r5, r6, lr}
 8004004:	6844      	ldr	r4, [r0, #4]
 8004006:	69c2      	ldr	r2, [r0, #28]
 8004008:	680d      	ldr	r5, [r1, #0]
 800400a:	f022 0273 	bic.w	r2, r2, #115	; 0x73
 800400e:	432a      	orrs	r2, r5
 8004010:	688d      	ldr	r5, [r1, #8]
 8004012:	f423 7300 	bic.w	r3, r3, #512	; 0x200
 8004016:	ea43 2305 	orr.w	r3, r3, r5, lsl #8
 800401a:	4d11      	ldr	r5, [pc, #68]	; (8004060 <TIM_OC3_SetConfig+0x68>)
 800401c:	42a8      	cmp	r0, r5
 800401e:	d003      	beq.n	8004028 <TIM_OC3_SetConfig+0x30>
 8004020:	f505 6580 	add.w	r5, r5, #1024	; 0x400
 8004024:	42a8      	cmp	r0, r5
 8004026:	d114      	bne.n	8004052 <TIM_OC3_SetConfig+0x5a>
 8004028:	68cd      	ldr	r5, [r1, #12]
 800402a:	f423 6300 	bic.w	r3, r3, #2048	; 0x800
 800402e:	ea43 2305 	orr.w	r3, r3, r5, lsl #8
 8004032:	4d0b      	ldr	r5, [pc, #44]	; (8004060 <TIM_OC3_SetConfig+0x68>)
 8004034:	42a8      	cmp	r0, r5
 8004036:	f423 6380 	bic.w	r3, r3, #1024	; 0x400
 800403a:	d003      	beq.n	8004044 <TIM_OC3_SetConfig+0x4c>
 800403c:	f505 6580 	add.w	r5, r5, #1024	; 0x400
 8004040:	42a8      	cmp	r0, r5
 8004042:	d106      	bne.n	8004052 <TIM_OC3_SetConfig+0x5a>
 8004044:	e9d1 5605 	ldrd	r5, r6, [r1, #20]
 8004048:	f424 5440 	bic.w	r4, r4, #12288	; 0x3000
 800404c:	4335      	orrs	r5, r6
 800404e:	ea44 1405 	orr.w	r4, r4, r5, lsl #4
 8004052:	6044      	str	r4, [r0, #4]
 8004054:	61c2      	str	r2, [r0, #28]
 8004056:	684a      	ldr	r2, [r1, #4]
 8004058:	63c2      	str	r2, [r0, #60]	; 0x3c
 800405a:	6203      	str	r3, [r0, #32]
 800405c:	bd70      	pop	{r4, r5, r6, pc}
 800405e:	bf00      	nop
 8004060:	40010000 	.word	0x40010000

08004064 <TIM_OC4_SetConfig>:
 8004064:	6a03      	ldr	r3, [r0, #32]
 8004066:	f423 5380 	bic.w	r3, r3, #4096	; 0x1000
 800406a:	6203      	str	r3, [r0, #32]
 800406c:	6a03      	ldr	r3, [r0, #32]
 800406e:	b530      	push	{r4, r5, lr}
 8004070:	6844      	ldr	r4, [r0, #4]
 8004072:	69c2      	ldr	r2, [r0, #28]
 8004074:	680d      	ldr	r5, [r1, #0]
 8004076:	f422 42e6 	bic.w	r2, r2, #29440	; 0x7300
 800407a:	ea42 2205 	orr.w	r2, r2, r5, lsl #8
 800407e:	688d      	ldr	r5, [r1, #8]
 8004080:	f423 5300 	bic.w	r3, r3, #8192	; 0x2000
 8004084:	ea43 3305 	orr.w	r3, r3, r5, lsl #12
 8004088:	4d08      	ldr	r5, [pc, #32]	; (80040ac <TIM_OC4_SetConfig+0x48>)
 800408a:	42a8      	cmp	r0, r5
 800408c:	d003      	beq.n	8004096 <TIM_OC4_SetConfig+0x32>
 800408e:	f505 6580 	add.w	r5, r5, #1024	; 0x400
 8004092:	42a8      	cmp	r0, r5
 8004094:	d104      	bne.n	80040a0 <TIM_OC4_SetConfig+0x3c>
 8004096:	694d      	ldr	r5, [r1, #20]
 8004098:	f424 4480 	bic.w	r4, r4, #16384	; 0x4000
 800409c:	ea44 1485 	orr.w	r4, r4, r5, lsl #6
 80040a0:	6044      	str	r4, [r0, #4]
 80040a2:	61c2      	str	r2, [r0, #28]
 80040a4:	684a      	ldr	r2, [r1, #4]
 80040a6:	6402      	str	r2, [r0, #64]	; 0x40
 80040a8:	6203      	str	r3, [r0, #32]
 80040aa:	bd30      	pop	{r4, r5, pc}
 80040ac:	40010000 	.word	0x40010000

080040b0 <HAL_TIM_Base_Start>:
 80040b0:	f890 303d 	ldrb.w	r3, [r0, #61]	; 0x3d
 80040b4:	2b01      	cmp	r3, #1
 80040b6:	d12c      	bne.n	8004112 <HAL_TIM_Base_Start+0x62>
 80040b8:	2302      	movs	r3, #2
 80040ba:	4a17      	ldr	r2, [pc, #92]	; (8004118 <HAL_TIM_Base_Start+0x68>)
 80040bc:	f880 303d 	strb.w	r3, [r0, #61]	; 0x3d
 80040c0:	6803      	ldr	r3, [r0, #0]
 80040c2:	4293      	cmp	r3, r2
 80040c4:	d01a      	beq.n	80040fc <HAL_TIM_Base_Start+0x4c>
 80040c6:	f1b3 4f80 	cmp.w	r3, #1073741824	; 0x40000000
 80040ca:	d017      	beq.n	80040fc <HAL_TIM_Base_Start+0x4c>
 80040cc:	f5a2 427c 	sub.w	r2, r2, #64512	; 0xfc00
 80040d0:	4293      	cmp	r3, r2
 80040d2:	d013      	beq.n	80040fc <HAL_TIM_Base_Start+0x4c>
 80040d4:	f502 6280 	add.w	r2, r2, #1024	; 0x400
 80040d8:	4293      	cmp	r3, r2
 80040da:	d00f      	beq.n	80040fc <HAL_TIM_Base_Start+0x4c>
 80040dc:	f502 6280 	add.w	r2, r2, #1024	; 0x400
 80040e0:	4293      	cmp	r3, r2
 80040e2:	d00b      	beq.n	80040fc <HAL_TIM_Base_Start+0x4c>
 80040e4:	f502 4278 	add.w	r2, r2, #63488	; 0xf800
 80040e8:	4293      	cmp	r3, r2
 80040ea:	d007      	beq.n	80040fc <HAL_TIM_Base_Start+0x4c>
 80040ec:	f502 5270 	add.w	r2, r2, #15360	; 0x3c00
 80040f0:	4293      	cmp	r3, r2
 80040f2:	d003      	beq.n	80040fc <HAL_TIM_Base_Start+0x4c>
 80040f4:	f5a2 3294 	sub.w	r2, r2, #75776	; 0x12800
 80040f8:	4293      	cmp	r3, r2
 80040fa:	d104      	bne.n	8004106 <HAL_TIM_Base_Start+0x56>
 80040fc:	689a      	ldr	r2, [r3, #8]
 80040fe:	f002 0207 	and.w	r2, r2, #7
 8004102:	2a06      	cmp	r2, #6
 8004104:	d003      	beq.n	800410e <HAL_TIM_Base_Start+0x5e>
 8004106:	681a      	ldr	r2, [r3, #0]
 8004108:	f042 0201 	orr.w	r2, r2, #1
 800410c:	601a      	str	r2, [r3, #0]
 800410e:	2000      	movs	r0, #0
 8004110:	4770      	bx	lr
 8004112:	2001      	movs	r0, #1
 8004114:	4770      	bx	lr
 8004116:	bf00      	nop
 8004118:	40010000 	.word	0x40010000

0800411c <HAL_TIM_PWM_MspInit>:
 800411c:	4770      	bx	lr

0800411e <HAL_TIM_IC_MspInit>:
 800411e:	4770      	bx	lr

08004120 <HAL_TIM_Encoder_Start>:
 8004120:	b530      	push	{r4, r5, lr}
 8004122:	f890 203e 	ldrb.w	r2, [r0, #62]	; 0x3e
 8004126:	f890 303f 	ldrb.w	r3, [r0, #63]	; 0x3f
 800412a:	f890 5042 	ldrb.w	r5, [r0, #66]	; 0x42
 800412e:	f890 4043 	ldrb.w	r4, [r0, #67]	; 0x43
 8004132:	b2d2      	uxtb	r2, r2
 8004134:	b2db      	uxtb	r3, r3
 8004136:	b2ed      	uxtb	r5, r5
 8004138:	b2e4      	uxtb	r4, r4
 800413a:	b9c9      	cbnz	r1, 8004170 <HAL_TIM_Encoder_Start+0x50>
 800413c:	2a01      	cmp	r2, #1
 800413e:	d146      	bne.n	80041ce <HAL_TIM_Encoder_Start+0xae>
 8004140:	2d01      	cmp	r5, #1
 8004142:	d146      	bne.n	80041d2 <HAL_TIM_Encoder_Start+0xb2>
 8004144:	2302      	movs	r3, #2
 8004146:	f880 303e 	strb.w	r3, [r0, #62]	; 0x3e
 800414a:	f880 3042 	strb.w	r3, [r0, #66]	; 0x42
 800414e:	6803      	ldr	r3, [r0, #0]
 8004150:	6a1a      	ldr	r2, [r3, #32]
 8004152:	f022 0201 	bic.w	r2, r2, #1
 8004156:	621a      	str	r2, [r3, #32]
 8004158:	6a1a      	ldr	r2, [r3, #32]
 800415a:	f042 0201 	orr.w	r2, r2, #1
 800415e:	621a      	str	r2, [r3, #32]
 8004160:	6802      	ldr	r2, [r0, #0]
 8004162:	6813      	ldr	r3, [r2, #0]
 8004164:	f043 0301 	orr.w	r3, r3, #1
 8004168:	6013      	str	r3, [r2, #0]
 800416a:	2300      	movs	r3, #0
 800416c:	4618      	mov	r0, r3
 800416e:	bd30      	pop	{r4, r5, pc}
 8004170:	2904      	cmp	r1, #4
 8004172:	d111      	bne.n	8004198 <HAL_TIM_Encoder_Start+0x78>
 8004174:	2b01      	cmp	r3, #1
 8004176:	d12a      	bne.n	80041ce <HAL_TIM_Encoder_Start+0xae>
 8004178:	2c01      	cmp	r4, #1
 800417a:	d1f7      	bne.n	800416c <HAL_TIM_Encoder_Start+0x4c>
 800417c:	2302      	movs	r3, #2
 800417e:	f880 303f 	strb.w	r3, [r0, #63]	; 0x3f
 8004182:	f880 3043 	strb.w	r3, [r0, #67]	; 0x43
 8004186:	6803      	ldr	r3, [r0, #0]
 8004188:	6a1a      	ldr	r2, [r3, #32]
 800418a:	f022 0210 	bic.w	r2, r2, #16
 800418e:	621a      	str	r2, [r3, #32]
 8004190:	6a1a      	ldr	r2, [r3, #32]
 8004192:	f042 0210 	orr.w	r2, r2, #16
 8004196:	e7e2      	b.n	800415e <HAL_TIM_Encoder_Start+0x3e>
 8004198:	2a01      	cmp	r2, #1
 800419a:	d118      	bne.n	80041ce <HAL_TIM_Encoder_Start+0xae>
 800419c:	2b01      	cmp	r3, #1
 800419e:	d118      	bne.n	80041d2 <HAL_TIM_Encoder_Start+0xb2>
 80041a0:	2d01      	cmp	r5, #1
 80041a2:	d1e3      	bne.n	800416c <HAL_TIM_Encoder_Start+0x4c>
 80041a4:	2c01      	cmp	r4, #1
 80041a6:	d1e1      	bne.n	800416c <HAL_TIM_Encoder_Start+0x4c>
 80041a8:	2302      	movs	r3, #2
 80041aa:	f880 303e 	strb.w	r3, [r0, #62]	; 0x3e
 80041ae:	f880 303f 	strb.w	r3, [r0, #63]	; 0x3f
 80041b2:	f880 3042 	strb.w	r3, [r0, #66]	; 0x42
 80041b6:	f880 3043 	strb.w	r3, [r0, #67]	; 0x43
 80041ba:	6803      	ldr	r3, [r0, #0]
 80041bc:	6a1a      	ldr	r2, [r3, #32]
 80041be:	f022 0201 	bic.w	r2, r2, #1
 80041c2:	621a      	str	r2, [r3, #32]
 80041c4:	6a1a      	ldr	r2, [r3, #32]
 80041c6:	f042 0201 	orr.w	r2, r2, #1
 80041ca:	621a      	str	r2, [r3, #32]
 80041cc:	e7dc      	b.n	8004188 <HAL_TIM_Encoder_Start+0x68>
 80041ce:	2301      	movs	r3, #1
 80041d0:	e7cc      	b.n	800416c <HAL_TIM_Encoder_Start+0x4c>
 80041d2:	4613      	mov	r3, r2
 80041d4:	e7ca      	b.n	800416c <HAL_TIM_Encoder_Start+0x4c>

080041d6 <HAL_TIM_ReadCapturedValue>:
 80041d6:	2908      	cmp	r1, #8
 80041d8:	d010      	beq.n	80041fc <HAL_TIM_ReadCapturedValue+0x26>
 80041da:	d804      	bhi.n	80041e6 <HAL_TIM_ReadCapturedValue+0x10>
 80041dc:	b141      	cbz	r1, 80041f0 <HAL_TIM_ReadCapturedValue+0x1a>
 80041de:	2904      	cmp	r1, #4
 80041e0:	d009      	beq.n	80041f6 <HAL_TIM_ReadCapturedValue+0x20>
 80041e2:	2000      	movs	r0, #0
 80041e4:	4770      	bx	lr
 80041e6:	290c      	cmp	r1, #12
 80041e8:	d1fb      	bne.n	80041e2 <HAL_TIM_ReadCapturedValue+0xc>
 80041ea:	6803      	ldr	r3, [r0, #0]
 80041ec:	6c18      	ldr	r0, [r3, #64]	; 0x40
 80041ee:	4770      	bx	lr
 80041f0:	6803      	ldr	r3, [r0, #0]
 80041f2:	6b58      	ldr	r0, [r3, #52]	; 0x34
 80041f4:	4770      	bx	lr
 80041f6:	6803      	ldr	r3, [r0, #0]
 80041f8:	6b98      	ldr	r0, [r3, #56]	; 0x38
 80041fa:	4770      	bx	lr
 80041fc:	6803      	ldr	r3, [r0, #0]
 80041fe:	6bd8      	ldr	r0, [r3, #60]	; 0x3c
 8004200:	4770      	bx	lr

08004202 <HAL_TIM_PeriodElapsedCallback>:
 8004202:	4770      	bx	lr

08004204 <HAL_TIM_OC_DelayElapsedCallback>:
 8004204:	4770      	bx	lr

08004206 <HAL_TIM_PWM_PulseFinishedCallback>:
 8004206:	4770      	bx	lr

08004208 <HAL_TIM_TriggerCallback>:
 8004208:	4770      	bx	lr

0800420a <HAL_TIM_IRQHandler>:
 800420a:	6803      	ldr	r3, [r0, #0]
 800420c:	691a      	ldr	r2, [r3, #16]
 800420e:	0791      	lsls	r1, r2, #30
 8004210:	b510      	push	{r4, lr}
 8004212:	4604      	mov	r4, r0
 8004214:	d50e      	bpl.n	8004234 <HAL_TIM_IRQHandler+0x2a>
 8004216:	68da      	ldr	r2, [r3, #12]
 8004218:	0792      	lsls	r2, r2, #30
 800421a:	d50b      	bpl.n	8004234 <HAL_TIM_IRQHandler+0x2a>
 800421c:	f06f 0202 	mvn.w	r2, #2
 8004220:	611a      	str	r2, [r3, #16]
 8004222:	2201      	movs	r2, #1
 8004224:	7702      	strb	r2, [r0, #28]
 8004226:	699b      	ldr	r3, [r3, #24]
 8004228:	079b      	lsls	r3, r3, #30
 800422a:	d077      	beq.n	800431c <HAL_TIM_IRQHandler+0x112>
 800422c:	f7fe fb10 	bl	8002850 <HAL_TIM_IC_CaptureCallback>
 8004230:	2300      	movs	r3, #0
 8004232:	7723      	strb	r3, [r4, #28]
 8004234:	6823      	ldr	r3, [r4, #0]
 8004236:	691a      	ldr	r2, [r3, #16]
 8004238:	0750      	lsls	r0, r2, #29
 800423a:	d510      	bpl.n	800425e <HAL_TIM_IRQHandler+0x54>
 800423c:	68da      	ldr	r2, [r3, #12]
 800423e:	0751      	lsls	r1, r2, #29
 8004240:	d50d      	bpl.n	800425e <HAL_TIM_IRQHandler+0x54>
 8004242:	f06f 0204 	mvn.w	r2, #4
 8004246:	611a      	str	r2, [r3, #16]
 8004248:	2202      	movs	r2, #2
 800424a:	7722      	strb	r2, [r4, #28]
 800424c:	699b      	ldr	r3, [r3, #24]
 800424e:	f413 7f40 	tst.w	r3, #768	; 0x300
 8004252:	4620      	mov	r0, r4
 8004254:	d068      	beq.n	8004328 <HAL_TIM_IRQHandler+0x11e>
 8004256:	f7fe fafb 	bl	8002850 <HAL_TIM_IC_CaptureCallback>
 800425a:	2300      	movs	r3, #0
 800425c:	7723      	strb	r3, [r4, #28]
 800425e:	6823      	ldr	r3, [r4, #0]
 8004260:	691a      	ldr	r2, [r3, #16]
 8004262:	0712      	lsls	r2, r2, #28
 8004264:	d50f      	bpl.n	8004286 <HAL_TIM_IRQHandler+0x7c>
 8004266:	68da      	ldr	r2, [r3, #12]
 8004268:	0710      	lsls	r0, r2, #28
 800426a:	d50c      	bpl.n	8004286 <HAL_TIM_IRQHandler+0x7c>
 800426c:	f06f 0208 	mvn.w	r2, #8
 8004270:	611a      	str	r2, [r3, #16]
 8004272:	2204      	movs	r2, #4
 8004274:	7722      	strb	r2, [r4, #28]
 8004276:	69db      	ldr	r3, [r3, #28]
 8004278:	0799      	lsls	r1, r3, #30
 800427a:	4620      	mov	r0, r4
 800427c:	d05a      	beq.n	8004334 <HAL_TIM_IRQHandler+0x12a>
 800427e:	f7fe fae7 	bl	8002850 <HAL_TIM_IC_CaptureCallback>
 8004282:	2300      	movs	r3, #0
 8004284:	7723      	strb	r3, [r4, #28]
 8004286:	6823      	ldr	r3, [r4, #0]
 8004288:	691a      	ldr	r2, [r3, #16]
 800428a:	06d2      	lsls	r2, r2, #27
 800428c:	d510      	bpl.n	80042b0 <HAL_TIM_IRQHandler+0xa6>
 800428e:	68da      	ldr	r2, [r3, #12]
 8004290:	06d0      	lsls	r0, r2, #27
 8004292:	d50d      	bpl.n	80042b0 <HAL_TIM_IRQHandler+0xa6>
 8004294:	f06f 0210 	mvn.w	r2, #16
 8004298:	611a      	str	r2, [r3, #16]
 800429a:	2208      	movs	r2, #8
 800429c:	7722      	strb	r2, [r4, #28]
 800429e:	69db      	ldr	r3, [r3, #28]
 80042a0:	f413 7f40 	tst.w	r3, #768	; 0x300
 80042a4:	4620      	mov	r0, r4
 80042a6:	d04b      	beq.n	8004340 <HAL_TIM_IRQHandler+0x136>
 80042a8:	f7fe fad2 	bl	8002850 <HAL_TIM_IC_CaptureCallback>
 80042ac:	2300      	movs	r3, #0
 80042ae:	7723      	strb	r3, [r4, #28]
 80042b0:	6823      	ldr	r3, [r4, #0]
 80042b2:	691a      	ldr	r2, [r3, #16]
 80042b4:	07d1      	lsls	r1, r2, #31
 80042b6:	d508      	bpl.n	80042ca <HAL_TIM_IRQHandler+0xc0>
 80042b8:	68da      	ldr	r2, [r3, #12]
 80042ba:	07d2      	lsls	r2, r2, #31
 80042bc:	d505      	bpl.n	80042ca <HAL_TIM_IRQHandler+0xc0>
 80042be:	f06f 0201 	mvn.w	r2, #1
 80042c2:	611a      	str	r2, [r3, #16]
 80042c4:	4620      	mov	r0, r4
 80042c6:	f7ff ff9c 	bl	8004202 <HAL_TIM_PeriodElapsedCallback>
 80042ca:	6823      	ldr	r3, [r4, #0]
 80042cc:	691a      	ldr	r2, [r3, #16]
 80042ce:	0610      	lsls	r0, r2, #24
 80042d0:	d508      	bpl.n	80042e4 <HAL_TIM_IRQHandler+0xda>
 80042d2:	68da      	ldr	r2, [r3, #12]
 80042d4:	0611      	lsls	r1, r2, #24
 80042d6:	d505      	bpl.n	80042e4 <HAL_TIM_IRQHandler+0xda>
 80042d8:	f06f 0280 	mvn.w	r2, #128	; 0x80
 80042dc:	611a      	str	r2, [r3, #16]
 80042de:	4620      	mov	r0, r4
 80042e0:	f000 fcdd 	bl	8004c9e <HAL_TIMEx_BreakCallback>
 80042e4:	6823      	ldr	r3, [r4, #0]
 80042e6:	691a      	ldr	r2, [r3, #16]
 80042e8:	0652      	lsls	r2, r2, #25
 80042ea:	d508      	bpl.n	80042fe <HAL_TIM_IRQHandler+0xf4>
 80042ec:	68da      	ldr	r2, [r3, #12]
 80042ee:	0650      	lsls	r0, r2, #25
 80042f0:	d505      	bpl.n	80042fe <HAL_TIM_IRQHandler+0xf4>
 80042f2:	f06f 0240 	mvn.w	r2, #64	; 0x40
 80042f6:	611a      	str	r2, [r3, #16]
 80042f8:	4620      	mov	r0, r4
 80042fa:	f7ff ff85 	bl	8004208 <HAL_TIM_TriggerCallback>
 80042fe:	6823      	ldr	r3, [r4, #0]
 8004300:	691a      	ldr	r2, [r3, #16]
 8004302:	0691      	lsls	r1, r2, #26
 8004304:	d522      	bpl.n	800434c <HAL_TIM_IRQHandler+0x142>
 8004306:	68da      	ldr	r2, [r3, #12]
 8004308:	0692      	lsls	r2, r2, #26
 800430a:	d51f      	bpl.n	800434c <HAL_TIM_IRQHandler+0x142>
 800430c:	f06f 0220 	mvn.w	r2, #32
 8004310:	4620      	mov	r0, r4
 8004312:	611a      	str	r2, [r3, #16]
 8004314:	e8bd 4010 	ldmia.w	sp!, {r4, lr}
 8004318:	f000 bcc0 	b.w	8004c9c <HAL_TIMEx_CommutCallback>
 800431c:	f7ff ff72 	bl	8004204 <HAL_TIM_OC_DelayElapsedCallback>
 8004320:	4620      	mov	r0, r4
 8004322:	f7ff ff70 	bl	8004206 <HAL_TIM_PWM_PulseFinishedCallback>
 8004326:	e783      	b.n	8004230 <HAL_TIM_IRQHandler+0x26>
 8004328:	f7ff ff6c 	bl	8004204 <HAL_TIM_OC_DelayElapsedCallback>
 800432c:	4620      	mov	r0, r4
 800432e:	f7ff ff6a 	bl	8004206 <HAL_TIM_PWM_PulseFinishedCallback>
 8004332:	e792      	b.n	800425a <HAL_TIM_IRQHandler+0x50>
 8004334:	f7ff ff66 	bl	8004204 <HAL_TIM_OC_DelayElapsedCallback>
 8004338:	4620      	mov	r0, r4
 800433a:	f7ff ff64 	bl	8004206 <HAL_TIM_PWM_PulseFinishedCallback>
 800433e:	e7a0      	b.n	8004282 <HAL_TIM_IRQHandler+0x78>
 8004340:	f7ff ff60 	bl	8004204 <HAL_TIM_OC_DelayElapsedCallback>
 8004344:	4620      	mov	r0, r4
 8004346:	f7ff ff5e 	bl	8004206 <HAL_TIM_PWM_PulseFinishedCallback>
 800434a:	e7af      	b.n	80042ac <HAL_TIM_IRQHandler+0xa2>
 800434c:	bd10      	pop	{r4, pc}
	...

08004350 <TIM_Base_SetConfig>:
 8004350:	4a30      	ldr	r2, [pc, #192]	; (8004414 <TIM_Base_SetConfig+0xc4>)
 8004352:	6803      	ldr	r3, [r0, #0]
 8004354:	4290      	cmp	r0, r2
 8004356:	d012      	beq.n	800437e <TIM_Base_SetConfig+0x2e>
 8004358:	f1b0 4f80 	cmp.w	r0, #1073741824	; 0x40000000
 800435c:	d00f      	beq.n	800437e <TIM_Base_SetConfig+0x2e>
 800435e:	f5a2 427c 	sub.w	r2, r2, #64512	; 0xfc00
 8004362:	4290      	cmp	r0, r2
 8004364:	d00b      	beq.n	800437e <TIM_Base_SetConfig+0x2e>
 8004366:	f502 6280 	add.w	r2, r2, #1024	; 0x400
 800436a:	4290      	cmp	r0, r2
 800436c:	d007      	beq.n	800437e <TIM_Base_SetConfig+0x2e>
 800436e:	f502 6280 	add.w	r2, r2, #1024	; 0x400
 8004372:	4290      	cmp	r0, r2
 8004374:	d003      	beq.n	800437e <TIM_Base_SetConfig+0x2e>
 8004376:	f502 4278 	add.w	r2, r2, #63488	; 0xf800
 800437a:	4290      	cmp	r0, r2
 800437c:	d119      	bne.n	80043b2 <TIM_Base_SetConfig+0x62>
 800437e:	684a      	ldr	r2, [r1, #4]
 8004380:	f023 0370 	bic.w	r3, r3, #112	; 0x70
 8004384:	4313      	orrs	r3, r2
 8004386:	4a23      	ldr	r2, [pc, #140]	; (8004414 <TIM_Base_SetConfig+0xc4>)
 8004388:	4290      	cmp	r0, r2
 800438a:	d029      	beq.n	80043e0 <TIM_Base_SetConfig+0x90>
 800438c:	f1b0 4f80 	cmp.w	r0, #1073741824	; 0x40000000
 8004390:	d026      	beq.n	80043e0 <TIM_Base_SetConfig+0x90>
 8004392:	f5a2 427c 	sub.w	r2, r2, #64512	; 0xfc00
 8004396:	4290      	cmp	r0, r2
 8004398:	d022      	beq.n	80043e0 <TIM_Base_SetConfig+0x90>
 800439a:	f502 6280 	add.w	r2, r2, #1024	; 0x400
 800439e:	4290      	cmp	r0, r2
 80043a0:	d01e      	beq.n	80043e0 <TIM_Base_SetConfig+0x90>
 80043a2:	f502 6280 	add.w	r2, r2, #1024	; 0x400
 80043a6:	4290      	cmp	r0, r2
 80043a8:	d01a      	beq.n	80043e0 <TIM_Base_SetConfig+0x90>
 80043aa:	f502 4278 	add.w	r2, r2, #63488	; 0xf800
 80043ae:	4290      	cmp	r0, r2
 80043b0:	d016      	beq.n	80043e0 <TIM_Base_SetConfig+0x90>
 80043b2:	4a19      	ldr	r2, [pc, #100]	; (8004418 <TIM_Base_SetConfig+0xc8>)
 80043b4:	4290      	cmp	r0, r2
 80043b6:	d013      	beq.n	80043e0 <TIM_Base_SetConfig+0x90>
 80043b8:	f502 6280 	add.w	r2, r2, #1024	; 0x400
 80043bc:	4290      	cmp	r0, r2
 80043be:	d00f      	beq.n	80043e0 <TIM_Base_SetConfig+0x90>
 80043c0:	f502 6280 	add.w	r2, r2, #1024	; 0x400
 80043c4:	4290      	cmp	r0, r2
 80043c6:	d00b      	beq.n	80043e0 <TIM_Base_SetConfig+0x90>
 80043c8:	f5a2 3298 	sub.w	r2, r2, #77824	; 0x13000
 80043cc:	4290      	cmp	r0, r2
 80043ce:	d007      	beq.n	80043e0 <TIM_Base_SetConfig+0x90>
 80043d0:	f502 6280 	add.w	r2, r2, #1024	; 0x400
 80043d4:	4290      	cmp	r0, r2
 80043d6:	d003      	beq.n	80043e0 <TIM_Base_SetConfig+0x90>
 80043d8:	f502 6280 	add.w	r2, r2, #1024	; 0x400
 80043dc:	4290      	cmp	r0, r2
 80043de:	d103      	bne.n	80043e8 <TIM_Base_SetConfig+0x98>
 80043e0:	68ca      	ldr	r2, [r1, #12]
 80043e2:	f423 7340 	bic.w	r3, r3, #768	; 0x300
 80043e6:	4313      	orrs	r3, r2
 80043e8:	694a      	ldr	r2, [r1, #20]
 80043ea:	f023 0380 	bic.w	r3, r3, #128	; 0x80
 80043ee:	4313      	orrs	r3, r2
 80043f0:	6003      	str	r3, [r0, #0]
 80043f2:	688b      	ldr	r3, [r1, #8]
 80043f4:	62c3      	str	r3, [r0, #44]	; 0x2c
 80043f6:	680b      	ldr	r3, [r1, #0]
 80043f8:	6283      	str	r3, [r0, #40]	; 0x28
 80043fa:	4b06      	ldr	r3, [pc, #24]	; (8004414 <TIM_Base_SetConfig+0xc4>)
 80043fc:	4298      	cmp	r0, r3
 80043fe:	d003      	beq.n	8004408 <TIM_Base_SetConfig+0xb8>
 8004400:	f503 6380 	add.w	r3, r3, #1024	; 0x400
 8004404:	4298      	cmp	r0, r3
 8004406:	d101      	bne.n	800440c <TIM_Base_SetConfig+0xbc>
 8004408:	690b      	ldr	r3, [r1, #16]
 800440a:	6303      	str	r3, [r0, #48]	; 0x30
 800440c:	2301      	movs	r3, #1
 800440e:	6143      	str	r3, [r0, #20]
 8004410:	4770      	bx	lr
 8004412:	bf00      	nop
 8004414:	40010000 	.word	0x40010000
 8004418:	40014000 	.word	0x40014000

0800441c <HAL_TIM_Base_Init>:
 800441c:	b510      	push	{r4, lr}
 800441e:	4604      	mov	r4, r0
 8004420:	b330      	cbz	r0, 8004470 <HAL_TIM_Base_Init+0x54>
 8004422:	f890 303d 	ldrb.w	r3, [r0, #61]	; 0x3d
 8004426:	f003 02ff 	and.w	r2, r3, #255	; 0xff
 800442a:	b91b      	cbnz	r3, 8004434 <HAL_TIM_Base_Init+0x18>
 800442c:	f880 203c 	strb.w	r2, [r0, #60]	; 0x3c
 8004430:	f7fe fafe 	bl	8002a30 <HAL_TIM_Base_MspInit>
 8004434:	2302      	movs	r3, #2
 8004436:	6820      	ldr	r0, [r4, #0]
 8004438:	f884 303d 	strb.w	r3, [r4, #61]	; 0x3d
 800443c:	1d21      	adds	r1, r4, #4
 800443e:	f7ff ff87 	bl	8004350 <TIM_Base_SetConfig>
 8004442:	2301      	movs	r3, #1
 8004444:	f884 3046 	strb.w	r3, [r4, #70]	; 0x46
 8004448:	2000      	movs	r0, #0
 800444a:	f884 303e 	strb.w	r3, [r4, #62]	; 0x3e
 800444e:	f884 303f 	strb.w	r3, [r4, #63]	; 0x3f
 8004452:	f884 3040 	strb.w	r3, [r4, #64]	; 0x40
 8004456:	f884 3041 	strb.w	r3, [r4, #65]	; 0x41
 800445a:	f884 3042 	strb.w	r3, [r4, #66]	; 0x42
 800445e:	f884 3043 	strb.w	r3, [r4, #67]	; 0x43
 8004462:	f884 3044 	strb.w	r3, [r4, #68]	; 0x44
 8004466:	f884 3045 	strb.w	r3, [r4, #69]	; 0x45
 800446a:	f884 303d 	strb.w	r3, [r4, #61]	; 0x3d
 800446e:	bd10      	pop	{r4, pc}
 8004470:	2001      	movs	r0, #1
 8004472:	e7fc      	b.n	800446e <HAL_TIM_Base_Init+0x52>

08004474 <HAL_TIM_PWM_Init>:
 8004474:	b510      	push	{r4, lr}
 8004476:	4604      	mov	r4, r0
 8004478:	b330      	cbz	r0, 80044c8 <HAL_TIM_PWM_Init+0x54>
 800447a:	f890 303d 	ldrb.w	r3, [r0, #61]	; 0x3d
 800447e:	f003 02ff 	and.w	r2, r3, #255	; 0xff
 8004482:	b91b      	cbnz	r3, 800448c <HAL_TIM_PWM_Init+0x18>
 8004484:	f880 203c 	strb.w	r2, [r0, #60]	; 0x3c
 8004488:	f7ff fe48 	bl	800411c <HAL_TIM_PWM_MspInit>
 800448c:	2302      	movs	r3, #2
 800448e:	6820      	ldr	r0, [r4, #0]
 8004490:	f884 303d 	strb.w	r3, [r4, #61]	; 0x3d
 8004494:	1d21      	adds	r1, r4, #4
 8004496:	f7ff ff5b 	bl	8004350 <TIM_Base_SetConfig>
 800449a:	2301      	movs	r3, #1
 800449c:	f884 3046 	strb.w	r3, [r4, #70]	; 0x46
 80044a0:	2000      	movs	r0, #0
 80044a2:	f884 303e 	strb.w	r3, [r4, #62]	; 0x3e
 80044a6:	f884 303f 	strb.w	r3, [r4, #63]	; 0x3f
 80044aa:	f884 3040 	strb.w	r3, [r4, #64]	; 0x40
 80044ae:	f884 3041 	strb.w	r3, [r4, #65]	; 0x41
 80044b2:	f884 3042 	strb.w	r3, [r4, #66]	; 0x42
 80044b6:	f884 3043 	strb.w	r3, [r4, #67]	; 0x43
 80044ba:	f884 3044 	strb.w	r3, [r4, #68]	; 0x44
 80044be:	f884 3045 	strb.w	r3, [r4, #69]	; 0x45
 80044c2:	f884 303d 	strb.w	r3, [r4, #61]	; 0x3d
 80044c6:	bd10      	pop	{r4, pc}
 80044c8:	2001      	movs	r0, #1
 80044ca:	e7fc      	b.n	80044c6 <HAL_TIM_PWM_Init+0x52>

080044cc <HAL_TIM_IC_Init>:
 80044cc:	b510      	push	{r4, lr}
 80044ce:	4604      	mov	r4, r0
 80044d0:	b330      	cbz	r0, 8004520 <HAL_TIM_IC_Init+0x54>
 80044d2:	f890 303d 	ldrb.w	r3, [r0, #61]	; 0x3d
 80044d6:	f003 02ff 	and.w	r2, r3, #255	; 0xff
 80044da:	b91b      	cbnz	r3, 80044e4 <HAL_TIM_IC_Init+0x18>
 80044dc:	f880 203c 	strb.w	r2, [r0, #60]	; 0x3c
 80044e0:	f7ff fe1d 	bl	800411e <HAL_TIM_IC_MspInit>
 80044e4:	2302      	movs	r3, #2
 80044e6:	6820      	ldr	r0, [r4, #0]
 80044e8:	f884 303d 	strb.w	r3, [r4, #61]	; 0x3d
 80044ec:	1d21      	adds	r1, r4, #4
 80044ee:	f7ff ff2f 	bl	8004350 <TIM_Base_SetConfig>
 80044f2:	2301      	movs	r3, #1
 80044f4:	f884 3046 	strb.w	r3, [r4, #70]	; 0x46
 80044f8:	2000      	movs	r0, #0
 80044fa:	f884 303e 	strb.w	r3, [r4, #62]	; 0x3e
 80044fe:	f884 303f 	strb.w	r3, [r4, #63]	; 0x3f
 8004502:	f884 3040 	strb.w	r3, [r4, #64]	; 0x40
 8004506:	f884 3041 	strb.w	r3, [r4, #65]	; 0x41
 800450a:	f884 3042 	strb.w	r3, [r4, #66]	; 0x42
 800450e:	f884 3043 	strb.w	r3, [r4, #67]	; 0x43
 8004512:	f884 3044 	strb.w	r3, [r4, #68]	; 0x44
 8004516:	f884 3045 	strb.w	r3, [r4, #69]	; 0x45
 800451a:	f884 303d 	strb.w	r3, [r4, #61]	; 0x3d
 800451e:	bd10      	pop	{r4, pc}
 8004520:	2001      	movs	r0, #1
 8004522:	e7fc      	b.n	800451e <HAL_TIM_IC_Init+0x52>

08004524 <HAL_TIM_Encoder_Init>:
 8004524:	b5f8      	push	{r3, r4, r5, r6, r7, lr}
 8004526:	460d      	mov	r5, r1
 8004528:	4604      	mov	r4, r0
 800452a:	2800      	cmp	r0, #0
 800452c:	d04d      	beq.n	80045ca <HAL_TIM_Encoder_Init+0xa6>
 800452e:	f890 303d 	ldrb.w	r3, [r0, #61]	; 0x3d
 8004532:	f003 02ff 	and.w	r2, r3, #255	; 0xff
 8004536:	b91b      	cbnz	r3, 8004540 <HAL_TIM_Encoder_Init+0x1c>
 8004538:	f880 203c 	strb.w	r2, [r0, #60]	; 0x3c
 800453c:	f7fe faf0 	bl	8002b20 <HAL_TIM_Encoder_MspInit>
 8004540:	4621      	mov	r1, r4
 8004542:	2302      	movs	r3, #2
 8004544:	f884 303d 	strb.w	r3, [r4, #61]	; 0x3d
 8004548:	f851 0b04 	ldr.w	r0, [r1], #4
 800454c:	6883      	ldr	r3, [r0, #8]
 800454e:	f423 4380 	bic.w	r3, r3, #16384	; 0x4000
 8004552:	f023 0307 	bic.w	r3, r3, #7
 8004556:	6083      	str	r3, [r0, #8]
 8004558:	f7ff fefa 	bl	8004350 <TIM_Base_SetConfig>
 800455c:	6820      	ldr	r0, [r4, #0]
 800455e:	682a      	ldr	r2, [r5, #0]
 8004560:	6886      	ldr	r6, [r0, #8]
 8004562:	6983      	ldr	r3, [r0, #24]
 8004564:	68a9      	ldr	r1, [r5, #8]
 8004566:	6a07      	ldr	r7, [r0, #32]
 8004568:	4316      	orrs	r6, r2
 800456a:	69aa      	ldr	r2, [r5, #24]
 800456c:	f423 7340 	bic.w	r3, r3, #768	; 0x300
 8004570:	ea41 2102 	orr.w	r1, r1, r2, lsl #8
 8004574:	f023 0303 	bic.w	r3, r3, #3
 8004578:	430b      	orrs	r3, r1
 800457a:	f423 427c 	bic.w	r2, r3, #64512	; 0xfc00
 800457e:	692b      	ldr	r3, [r5, #16]
 8004580:	69e9      	ldr	r1, [r5, #28]
 8004582:	011b      	lsls	r3, r3, #4
 8004584:	ea43 2301 	orr.w	r3, r3, r1, lsl #8
 8004588:	68e9      	ldr	r1, [r5, #12]
 800458a:	430b      	orrs	r3, r1
 800458c:	6a29      	ldr	r1, [r5, #32]
 800458e:	f022 02fc 	bic.w	r2, r2, #252	; 0xfc
 8004592:	ea43 3301 	orr.w	r3, r3, r1, lsl #12
 8004596:	4313      	orrs	r3, r2
 8004598:	6969      	ldr	r1, [r5, #20]
 800459a:	f027 02aa 	bic.w	r2, r7, #170	; 0xaa
 800459e:	686f      	ldr	r7, [r5, #4]
 80045a0:	6086      	str	r6, [r0, #8]
 80045a2:	ea47 1701 	orr.w	r7, r7, r1, lsl #4
 80045a6:	6183      	str	r3, [r0, #24]
 80045a8:	4317      	orrs	r7, r2
 80045aa:	2301      	movs	r3, #1
 80045ac:	6207      	str	r7, [r0, #32]
 80045ae:	f884 3046 	strb.w	r3, [r4, #70]	; 0x46
 80045b2:	2000      	movs	r0, #0
 80045b4:	f884 303e 	strb.w	r3, [r4, #62]	; 0x3e
 80045b8:	f884 303f 	strb.w	r3, [r4, #63]	; 0x3f
 80045bc:	f884 3042 	strb.w	r3, [r4, #66]	; 0x42
 80045c0:	f884 3043 	strb.w	r3, [r4, #67]	; 0x43
 80045c4:	f884 303d 	strb.w	r3, [r4, #61]	; 0x3d
 80045c8:	bdf8      	pop	{r3, r4, r5, r6, r7, pc}
 80045ca:	2001      	movs	r0, #1
 80045cc:	e7fc      	b.n	80045c8 <HAL_TIM_Encoder_Init+0xa4>
	...

080045d0 <TIM_OC2_SetConfig>:
 80045d0:	6a03      	ldr	r3, [r0, #32]
 80045d2:	f023 0310 	bic.w	r3, r3, #16
 80045d6:	6203      	str	r3, [r0, #32]
 80045d8:	6a03      	ldr	r3, [r0, #32]
 80045da:	b570      	push	{r4, r5, r6, lr}
 80045dc:	6844      	ldr	r4, [r0, #4]
 80045de:	6982      	ldr	r2, [r0, #24]
 80045e0:	680d      	ldr	r5, [r1, #0]
 80045e2:	f422 42e6 	bic.w	r2, r2, #29440	; 0x7300
 80045e6:	ea42 2205 	orr.w	r2, r2, r5, lsl #8
 80045ea:	688d      	ldr	r5, [r1, #8]
 80045ec:	f023 0320 	bic.w	r3, r3, #32
 80045f0:	ea43 1305 	orr.w	r3, r3, r5, lsl #4
 80045f4:	4d10      	ldr	r5, [pc, #64]	; (8004638 <TIM_OC2_SetConfig+0x68>)
 80045f6:	42a8      	cmp	r0, r5
 80045f8:	d003      	beq.n	8004602 <TIM_OC2_SetConfig+0x32>
 80045fa:	f505 6580 	add.w	r5, r5, #1024	; 0x400
 80045fe:	42a8      	cmp	r0, r5
 8004600:	d114      	bne.n	800462c <TIM_OC2_SetConfig+0x5c>
 8004602:	68cd      	ldr	r5, [r1, #12]
 8004604:	f023 0380 	bic.w	r3, r3, #128	; 0x80
 8004608:	ea43 1305 	orr.w	r3, r3, r5, lsl #4
 800460c:	4d0a      	ldr	r5, [pc, #40]	; (8004638 <TIM_OC2_SetConfig+0x68>)
 800460e:	42a8      	cmp	r0, r5
 8004610:	f023 0340 	bic.w	r3, r3, #64	; 0x40
 8004614:	d003      	beq.n	800461e <TIM_OC2_SetConfig+0x4e>
 8004616:	f505 6580 	add.w	r5, r5, #1024	; 0x400
 800461a:	42a8      	cmp	r0, r5
 800461c:	d106      	bne.n	800462c <TIM_OC2_SetConfig+0x5c>
 800461e:	e9d1 5605 	ldrd	r5, r6, [r1, #20]
 8004622:	f424 6440 	bic.w	r4, r4, #3072	; 0xc00
 8004626:	4335      	orrs	r5, r6
 8004628:	ea44 0485 	orr.w	r4, r4, r5, lsl #2
 800462c:	6044      	str	r4, [r0, #4]
 800462e:	6182      	str	r2, [r0, #24]
 8004630:	684a      	ldr	r2, [r1, #4]
 8004632:	6382      	str	r2, [r0, #56]	; 0x38
 8004634:	6203      	str	r3, [r0, #32]
 8004636:	bd70      	pop	{r4, r5, r6, pc}
 8004638:	40010000 	.word	0x40010000

0800463c <HAL_TIM_PWM_ConfigChannel>:
 800463c:	b570      	push	{r4, r5, r6, lr}
 800463e:	f890 303c 	ldrb.w	r3, [r0, #60]	; 0x3c
 8004642:	2b01      	cmp	r3, #1
 8004644:	4605      	mov	r5, r0
 8004646:	d053      	beq.n	80046f0 <HAL_TIM_PWM_ConfigChannel+0xb4>
 8004648:	2001      	movs	r0, #1
 800464a:	2a08      	cmp	r2, #8
 800464c:	f885 003c 	strb.w	r0, [r5, #60]	; 0x3c
 8004650:	d03d      	beq.n	80046ce <HAL_TIM_PWM_ConfigChannel+0x92>
 8004652:	d806      	bhi.n	8004662 <HAL_TIM_PWM_ConfigChannel+0x26>
 8004654:	b1c2      	cbz	r2, 8004688 <HAL_TIM_PWM_ConfigChannel+0x4c>
 8004656:	2a04      	cmp	r2, #4
 8004658:	d028      	beq.n	80046ac <HAL_TIM_PWM_ConfigChannel+0x70>
 800465a:	2300      	movs	r3, #0
 800465c:	f885 303c 	strb.w	r3, [r5, #60]	; 0x3c
 8004660:	bd70      	pop	{r4, r5, r6, pc}
 8004662:	2a0c      	cmp	r2, #12
 8004664:	d1f9      	bne.n	800465a <HAL_TIM_PWM_ConfigChannel+0x1e>
 8004666:	6828      	ldr	r0, [r5, #0]
 8004668:	f7ff fcfc 	bl	8004064 <TIM_OC4_SetConfig>
 800466c:	682b      	ldr	r3, [r5, #0]
 800466e:	6909      	ldr	r1, [r1, #16]
 8004670:	69da      	ldr	r2, [r3, #28]
 8004672:	f442 6200 	orr.w	r2, r2, #2048	; 0x800
 8004676:	61da      	str	r2, [r3, #28]
 8004678:	69da      	ldr	r2, [r3, #28]
 800467a:	f422 6280 	bic.w	r2, r2, #1024	; 0x400
 800467e:	61da      	str	r2, [r3, #28]
 8004680:	69da      	ldr	r2, [r3, #28]
 8004682:	ea42 2201 	orr.w	r2, r2, r1, lsl #8
 8004686:	e031      	b.n	80046ec <HAL_TIM_PWM_ConfigChannel+0xb0>
 8004688:	6828      	ldr	r0, [r5, #0]
 800468a:	f7ff fc83 	bl	8003f94 <TIM_OC1_SetConfig>
 800468e:	682b      	ldr	r3, [r5, #0]
 8004690:	6909      	ldr	r1, [r1, #16]
 8004692:	699a      	ldr	r2, [r3, #24]
 8004694:	f042 0208 	orr.w	r2, r2, #8
 8004698:	619a      	str	r2, [r3, #24]
 800469a:	699a      	ldr	r2, [r3, #24]
 800469c:	f022 0204 	bic.w	r2, r2, #4
 80046a0:	619a      	str	r2, [r3, #24]
 80046a2:	699a      	ldr	r2, [r3, #24]
 80046a4:	430a      	orrs	r2, r1
 80046a6:	619a      	str	r2, [r3, #24]
 80046a8:	2000      	movs	r0, #0
 80046aa:	e7d6      	b.n	800465a <HAL_TIM_PWM_ConfigChannel+0x1e>
 80046ac:	6828      	ldr	r0, [r5, #0]
 80046ae:	f7ff ff8f 	bl	80045d0 <TIM_OC2_SetConfig>
 80046b2:	682b      	ldr	r3, [r5, #0]
 80046b4:	6909      	ldr	r1, [r1, #16]
 80046b6:	699a      	ldr	r2, [r3, #24]
 80046b8:	f442 6200 	orr.w	r2, r2, #2048	; 0x800
 80046bc:	619a      	str	r2, [r3, #24]
 80046be:	699a      	ldr	r2, [r3, #24]
 80046c0:	f422 6280 	bic.w	r2, r2, #1024	; 0x400
 80046c4:	619a      	str	r2, [r3, #24]
 80046c6:	699a      	ldr	r2, [r3, #24]
 80046c8:	ea42 2201 	orr.w	r2, r2, r1, lsl #8
 80046cc:	e7eb      	b.n	80046a6 <HAL_TIM_PWM_ConfigChannel+0x6a>
 80046ce:	6828      	ldr	r0, [r5, #0]
 80046d0:	f7ff fc92 	bl	8003ff8 <TIM_OC3_SetConfig>
 80046d4:	682b      	ldr	r3, [r5, #0]
 80046d6:	6909      	ldr	r1, [r1, #16]
 80046d8:	69da      	ldr	r2, [r3, #28]
 80046da:	f042 0208 	orr.w	r2, r2, #8
 80046de:	61da      	str	r2, [r3, #28]
 80046e0:	69da      	ldr	r2, [r3, #28]
 80046e2:	f022 0204 	bic.w	r2, r2, #4
 80046e6:	61da      	str	r2, [r3, #28]
 80046e8:	69da      	ldr	r2, [r3, #28]
 80046ea:	430a      	orrs	r2, r1
 80046ec:	61da      	str	r2, [r3, #28]
 80046ee:	e7db      	b.n	80046a8 <HAL_TIM_PWM_ConfigChannel+0x6c>
 80046f0:	2002      	movs	r0, #2
 80046f2:	e7b5      	b.n	8004660 <HAL_TIM_PWM_ConfigChannel+0x24>

080046f4 <TIM_TI1_SetConfig>:
 80046f4:	b570      	push	{r4, r5, r6, lr}
 80046f6:	6a04      	ldr	r4, [r0, #32]
 80046f8:	4e1a      	ldr	r6, [pc, #104]	; (8004764 <TIM_TI1_SetConfig+0x70>)
 80046fa:	f024 0401 	bic.w	r4, r4, #1
 80046fe:	6204      	str	r4, [r0, #32]
 8004700:	42b0      	cmp	r0, r6
 8004702:	6984      	ldr	r4, [r0, #24]
 8004704:	6a05      	ldr	r5, [r0, #32]
 8004706:	d029      	beq.n	800475c <TIM_TI1_SetConfig+0x68>
 8004708:	f1b0 4f80 	cmp.w	r0, #1073741824	; 0x40000000
 800470c:	d026      	beq.n	800475c <TIM_TI1_SetConfig+0x68>
 800470e:	f5a6 467c 	sub.w	r6, r6, #64512	; 0xfc00
 8004712:	42b0      	cmp	r0, r6
 8004714:	d022      	beq.n	800475c <TIM_TI1_SetConfig+0x68>
 8004716:	f506 6680 	add.w	r6, r6, #1024	; 0x400
 800471a:	42b0      	cmp	r0, r6
 800471c:	d01e      	beq.n	800475c <TIM_TI1_SetConfig+0x68>
 800471e:	f506 6680 	add.w	r6, r6, #1024	; 0x400
 8004722:	42b0      	cmp	r0, r6
 8004724:	d01a      	beq.n	800475c <TIM_TI1_SetConfig+0x68>
 8004726:	f506 4678 	add.w	r6, r6, #63488	; 0xf800
 800472a:	42b0      	cmp	r0, r6
 800472c:	d016      	beq.n	800475c <TIM_TI1_SetConfig+0x68>
 800472e:	f506 5670 	add.w	r6, r6, #15360	; 0x3c00
 8004732:	42b0      	cmp	r0, r6
 8004734:	d012      	beq.n	800475c <TIM_TI1_SetConfig+0x68>
 8004736:	f5a6 3694 	sub.w	r6, r6, #75776	; 0x12800
 800473a:	42b0      	cmp	r0, r6
 800473c:	d00e      	beq.n	800475c <TIM_TI1_SetConfig+0x68>
 800473e:	f044 0201 	orr.w	r2, r4, #1
 8004742:	011b      	lsls	r3, r3, #4
 8004744:	b2db      	uxtb	r3, r3
 8004746:	f022 02f0 	bic.w	r2, r2, #240	; 0xf0
 800474a:	431a      	orrs	r2, r3
 800474c:	f001 010a 	and.w	r1, r1, #10
 8004750:	f025 030a 	bic.w	r3, r5, #10
 8004754:	4319      	orrs	r1, r3
 8004756:	6182      	str	r2, [r0, #24]
 8004758:	6201      	str	r1, [r0, #32]
 800475a:	bd70      	pop	{r4, r5, r6, pc}
 800475c:	f024 0403 	bic.w	r4, r4, #3
 8004760:	4322      	orrs	r2, r4
 8004762:	e7ee      	b.n	8004742 <TIM_TI1_SetConfig+0x4e>
 8004764:	40010000 	.word	0x40010000

08004768 <HAL_TIM_IC_ConfigChannel>:
 8004768:	b5f8      	push	{r3, r4, r5, r6, r7, lr}
 800476a:	f890 303c 	ldrb.w	r3, [r0, #60]	; 0x3c
 800476e:	2b01      	cmp	r3, #1
 8004770:	4605      	mov	r5, r0
 8004772:	460c      	mov	r4, r1
 8004774:	f000 8089 	beq.w	800488a <HAL_TIM_IC_ConfigChannel+0x122>
 8004778:	2001      	movs	r0, #1
 800477a:	f885 003c 	strb.w	r0, [r5, #60]	; 0x3c
 800477e:	b99a      	cbnz	r2, 80047a8 <HAL_TIM_IC_ConfigChannel+0x40>
 8004780:	68cb      	ldr	r3, [r1, #12]
 8004782:	6828      	ldr	r0, [r5, #0]
 8004784:	e9d1 1200 	ldrd	r1, r2, [r1]
 8004788:	f7ff ffb4 	bl	80046f4 <TIM_TI1_SetConfig>
 800478c:	682b      	ldr	r3, [r5, #0]
 800478e:	68a1      	ldr	r1, [r4, #8]
 8004790:	699a      	ldr	r2, [r3, #24]
 8004792:	f022 020c 	bic.w	r2, r2, #12
 8004796:	619a      	str	r2, [r3, #24]
 8004798:	699a      	ldr	r2, [r3, #24]
 800479a:	430a      	orrs	r2, r1
 800479c:	619a      	str	r2, [r3, #24]
 800479e:	2000      	movs	r0, #0
 80047a0:	2300      	movs	r3, #0
 80047a2:	f885 303c 	strb.w	r3, [r5, #60]	; 0x3c
 80047a6:	bdf8      	pop	{r3, r4, r5, r6, r7, pc}
 80047a8:	2a04      	cmp	r2, #4
 80047aa:	d123      	bne.n	80047f4 <HAL_TIM_IC_ConfigChannel+0x8c>
 80047ac:	682b      	ldr	r3, [r5, #0]
 80047ae:	6a1e      	ldr	r6, [r3, #32]
 80047b0:	f026 0610 	bic.w	r6, r6, #16
 80047b4:	e9d1 2700 	ldrd	r2, r7, [r1]
 80047b8:	68c9      	ldr	r1, [r1, #12]
 80047ba:	621e      	str	r6, [r3, #32]
 80047bc:	6998      	ldr	r0, [r3, #24]
 80047be:	6a1e      	ldr	r6, [r3, #32]
 80047c0:	f420 7040 	bic.w	r0, r0, #768	; 0x300
 80047c4:	ea40 2007 	orr.w	r0, r0, r7, lsl #8
 80047c8:	0309      	lsls	r1, r1, #12
 80047ca:	f420 4070 	bic.w	r0, r0, #61440	; 0xf000
 80047ce:	b289      	uxth	r1, r1
 80047d0:	0112      	lsls	r2, r2, #4
 80047d2:	4301      	orrs	r1, r0
 80047d4:	f002 02a0 	and.w	r2, r2, #160	; 0xa0
 80047d8:	f026 00a0 	bic.w	r0, r6, #160	; 0xa0
 80047dc:	4302      	orrs	r2, r0
 80047de:	6199      	str	r1, [r3, #24]
 80047e0:	621a      	str	r2, [r3, #32]
 80047e2:	699a      	ldr	r2, [r3, #24]
 80047e4:	68a1      	ldr	r1, [r4, #8]
 80047e6:	f422 6240 	bic.w	r2, r2, #3072	; 0xc00
 80047ea:	619a      	str	r2, [r3, #24]
 80047ec:	699a      	ldr	r2, [r3, #24]
 80047ee:	ea42 2201 	orr.w	r2, r2, r1, lsl #8
 80047f2:	e7d3      	b.n	800479c <HAL_TIM_IC_ConfigChannel+0x34>
 80047f4:	2a08      	cmp	r2, #8
 80047f6:	d122      	bne.n	800483e <HAL_TIM_IC_ConfigChannel+0xd6>
 80047f8:	682b      	ldr	r3, [r5, #0]
 80047fa:	6a1e      	ldr	r6, [r3, #32]
 80047fc:	f426 7680 	bic.w	r6, r6, #256	; 0x100
 8004800:	e9d1 2000 	ldrd	r2, r0, [r1]
 8004804:	68c9      	ldr	r1, [r1, #12]
 8004806:	621e      	str	r6, [r3, #32]
 8004808:	69df      	ldr	r7, [r3, #28]
 800480a:	6a1e      	ldr	r6, [r3, #32]
 800480c:	f027 0703 	bic.w	r7, r7, #3
 8004810:	4338      	orrs	r0, r7
 8004812:	0109      	lsls	r1, r1, #4
 8004814:	f020 00f0 	bic.w	r0, r0, #240	; 0xf0
 8004818:	b2c9      	uxtb	r1, r1
 800481a:	0212      	lsls	r2, r2, #8
 800481c:	4301      	orrs	r1, r0
 800481e:	f402 6220 	and.w	r2, r2, #2560	; 0xa00
 8004822:	f426 6020 	bic.w	r0, r6, #2560	; 0xa00
 8004826:	4302      	orrs	r2, r0
 8004828:	61d9      	str	r1, [r3, #28]
 800482a:	621a      	str	r2, [r3, #32]
 800482c:	69da      	ldr	r2, [r3, #28]
 800482e:	68a1      	ldr	r1, [r4, #8]
 8004830:	f022 020c 	bic.w	r2, r2, #12
 8004834:	61da      	str	r2, [r3, #28]
 8004836:	69da      	ldr	r2, [r3, #28]
 8004838:	430a      	orrs	r2, r1
 800483a:	61da      	str	r2, [r3, #28]
 800483c:	e7af      	b.n	800479e <HAL_TIM_IC_ConfigChannel+0x36>
 800483e:	2a0c      	cmp	r2, #12
 8004840:	d1ae      	bne.n	80047a0 <HAL_TIM_IC_ConfigChannel+0x38>
 8004842:	682b      	ldr	r3, [r5, #0]
 8004844:	6a1e      	ldr	r6, [r3, #32]
 8004846:	f426 5680 	bic.w	r6, r6, #4096	; 0x1000
 800484a:	e9d1 2700 	ldrd	r2, r7, [r1]
 800484e:	68c9      	ldr	r1, [r1, #12]
 8004850:	621e      	str	r6, [r3, #32]
 8004852:	69d8      	ldr	r0, [r3, #28]
 8004854:	6a1e      	ldr	r6, [r3, #32]
 8004856:	f420 7040 	bic.w	r0, r0, #768	; 0x300
 800485a:	ea40 2007 	orr.w	r0, r0, r7, lsl #8
 800485e:	0309      	lsls	r1, r1, #12
 8004860:	f420 4070 	bic.w	r0, r0, #61440	; 0xf000
 8004864:	b289      	uxth	r1, r1
 8004866:	0312      	lsls	r2, r2, #12
 8004868:	4301      	orrs	r1, r0
 800486a:	f402 4220 	and.w	r2, r2, #40960	; 0xa000
 800486e:	f426 4020 	bic.w	r0, r6, #40960	; 0xa000
 8004872:	4302      	orrs	r2, r0
 8004874:	61d9      	str	r1, [r3, #28]
 8004876:	621a      	str	r2, [r3, #32]
 8004878:	69da      	ldr	r2, [r3, #28]
 800487a:	68a1      	ldr	r1, [r4, #8]
 800487c:	f422 6240 	bic.w	r2, r2, #3072	; 0xc00
 8004880:	61da      	str	r2, [r3, #28]
 8004882:	69da      	ldr	r2, [r3, #28]
 8004884:	ea42 2201 	orr.w	r2, r2, r1, lsl #8
 8004888:	e7d7      	b.n	800483a <HAL_TIM_IC_ConfigChannel+0xd2>
 800488a:	2002      	movs	r0, #2
 800488c:	e78b      	b.n	80047a6 <HAL_TIM_IC_ConfigChannel+0x3e>

0800488e <TIM_ETR_SetConfig>:
 800488e:	b510      	push	{r4, lr}
 8004890:	6884      	ldr	r4, [r0, #8]
 8004892:	4311      	orrs	r1, r2
 8004894:	f424 447f 	bic.w	r4, r4, #65280	; 0xff00
 8004898:	ea41 2303 	orr.w	r3, r1, r3, lsl #8
 800489c:	4323      	orrs	r3, r4
 800489e:	6083      	str	r3, [r0, #8]
 80048a0:	bd10      	pop	{r4, pc}

080048a2 <HAL_TIM_ConfigClockSource>:
 80048a2:	b570      	push	{r4, r5, r6, lr}
 80048a4:	f890 303c 	ldrb.w	r3, [r0, #60]	; 0x3c
 80048a8:	2b01      	cmp	r3, #1
 80048aa:	4604      	mov	r4, r0
 80048ac:	f04f 0302 	mov.w	r3, #2
 80048b0:	f000 8091 	beq.w	80049d6 <HAL_TIM_ConfigClockSource+0x134>
 80048b4:	2201      	movs	r2, #1
 80048b6:	f880 303d 	strb.w	r3, [r0, #61]	; 0x3d
 80048ba:	f880 203c 	strb.w	r2, [r0, #60]	; 0x3c
 80048be:	6800      	ldr	r0, [r0, #0]
 80048c0:	6883      	ldr	r3, [r0, #8]
 80048c2:	f423 437f 	bic.w	r3, r3, #65280	; 0xff00
 80048c6:	f023 0377 	bic.w	r3, r3, #119	; 0x77
 80048ca:	6083      	str	r3, [r0, #8]
 80048cc:	680b      	ldr	r3, [r1, #0]
 80048ce:	2b60      	cmp	r3, #96	; 0x60
 80048d0:	d052      	beq.n	8004978 <HAL_TIM_ConfigClockSource+0xd6>
 80048d2:	d833      	bhi.n	800493c <HAL_TIM_ConfigClockSource+0x9a>
 80048d4:	2b40      	cmp	r3, #64	; 0x40
 80048d6:	d067      	beq.n	80049a8 <HAL_TIM_ConfigClockSource+0x106>
 80048d8:	d816      	bhi.n	8004908 <HAL_TIM_ConfigClockSource+0x66>
 80048da:	2b20      	cmp	r3, #32
 80048dc:	d00d      	beq.n	80048fa <HAL_TIM_ConfigClockSource+0x58>
 80048de:	d80a      	bhi.n	80048f6 <HAL_TIM_ConfigClockSource+0x54>
 80048e0:	f033 0110 	bics.w	r1, r3, #16
 80048e4:	d009      	beq.n	80048fa <HAL_TIM_ConfigClockSource+0x58>
 80048e6:	2301      	movs	r3, #1
 80048e8:	f884 303d 	strb.w	r3, [r4, #61]	; 0x3d
 80048ec:	2300      	movs	r3, #0
 80048ee:	f884 303c 	strb.w	r3, [r4, #60]	; 0x3c
 80048f2:	4610      	mov	r0, r2
 80048f4:	bd70      	pop	{r4, r5, r6, pc}
 80048f6:	2b30      	cmp	r3, #48	; 0x30
 80048f8:	d1f5      	bne.n	80048e6 <HAL_TIM_ConfigClockSource+0x44>
 80048fa:	6882      	ldr	r2, [r0, #8]
 80048fc:	f022 0270 	bic.w	r2, r2, #112	; 0x70
 8004900:	4313      	orrs	r3, r2
 8004902:	f043 0307 	orr.w	r3, r3, #7
 8004906:	e017      	b.n	8004938 <HAL_TIM_ConfigClockSource+0x96>
 8004908:	2b50      	cmp	r3, #80	; 0x50
 800490a:	d1ec      	bne.n	80048e6 <HAL_TIM_ConfigClockSource+0x44>
 800490c:	684a      	ldr	r2, [r1, #4]
 800490e:	68ce      	ldr	r6, [r1, #12]
 8004910:	6a01      	ldr	r1, [r0, #32]
 8004912:	6a05      	ldr	r5, [r0, #32]
 8004914:	f025 0501 	bic.w	r5, r5, #1
 8004918:	6205      	str	r5, [r0, #32]
 800491a:	6983      	ldr	r3, [r0, #24]
 800491c:	f021 010a 	bic.w	r1, r1, #10
 8004920:	f023 03f0 	bic.w	r3, r3, #240	; 0xf0
 8004924:	ea43 1306 	orr.w	r3, r3, r6, lsl #4
 8004928:	430a      	orrs	r2, r1
 800492a:	6183      	str	r3, [r0, #24]
 800492c:	6202      	str	r2, [r0, #32]
 800492e:	6883      	ldr	r3, [r0, #8]
 8004930:	f023 0370 	bic.w	r3, r3, #112	; 0x70
 8004934:	f043 0357 	orr.w	r3, r3, #87	; 0x57
 8004938:	6083      	str	r3, [r0, #8]
 800493a:	e011      	b.n	8004960 <HAL_TIM_ConfigClockSource+0xbe>
 800493c:	f5b3 5f80 	cmp.w	r3, #4096	; 0x1000
 8004940:	d00e      	beq.n	8004960 <HAL_TIM_ConfigClockSource+0xbe>
 8004942:	f5b3 5f00 	cmp.w	r3, #8192	; 0x2000
 8004946:	d00d      	beq.n	8004964 <HAL_TIM_ConfigClockSource+0xc2>
 8004948:	2b70      	cmp	r3, #112	; 0x70
 800494a:	d1cc      	bne.n	80048e6 <HAL_TIM_ConfigClockSource+0x44>
 800494c:	68cb      	ldr	r3, [r1, #12]
 800494e:	e9d1 2101 	ldrd	r2, r1, [r1, #4]
 8004952:	f7ff ff9c 	bl	800488e <TIM_ETR_SetConfig>
 8004956:	6822      	ldr	r2, [r4, #0]
 8004958:	6893      	ldr	r3, [r2, #8]
 800495a:	f043 0377 	orr.w	r3, r3, #119	; 0x77
 800495e:	6093      	str	r3, [r2, #8]
 8004960:	2200      	movs	r2, #0
 8004962:	e7c0      	b.n	80048e6 <HAL_TIM_ConfigClockSource+0x44>
 8004964:	68cb      	ldr	r3, [r1, #12]
 8004966:	e9d1 2101 	ldrd	r2, r1, [r1, #4]
 800496a:	f7ff ff90 	bl	800488e <TIM_ETR_SetConfig>
 800496e:	6822      	ldr	r2, [r4, #0]
 8004970:	6893      	ldr	r3, [r2, #8]
 8004972:	f443 4380 	orr.w	r3, r3, #16384	; 0x4000
 8004976:	e7f2      	b.n	800495e <HAL_TIM_ConfigClockSource+0xbc>
 8004978:	684d      	ldr	r5, [r1, #4]
 800497a:	68ce      	ldr	r6, [r1, #12]
 800497c:	6a01      	ldr	r1, [r0, #32]
 800497e:	f021 0110 	bic.w	r1, r1, #16
 8004982:	6201      	str	r1, [r0, #32]
 8004984:	6982      	ldr	r2, [r0, #24]
 8004986:	6a03      	ldr	r3, [r0, #32]
 8004988:	f422 4270 	bic.w	r2, r2, #61440	; 0xf000
 800498c:	f023 03a0 	bic.w	r3, r3, #160	; 0xa0
 8004990:	ea43 1305 	orr.w	r3, r3, r5, lsl #4
 8004994:	ea42 3206 	orr.w	r2, r2, r6, lsl #12
 8004998:	6182      	str	r2, [r0, #24]
 800499a:	6203      	str	r3, [r0, #32]
 800499c:	6883      	ldr	r3, [r0, #8]
 800499e:	f023 0370 	bic.w	r3, r3, #112	; 0x70
 80049a2:	f043 0367 	orr.w	r3, r3, #103	; 0x67
 80049a6:	e7c7      	b.n	8004938 <HAL_TIM_ConfigClockSource+0x96>
 80049a8:	684a      	ldr	r2, [r1, #4]
 80049aa:	68ce      	ldr	r6, [r1, #12]
 80049ac:	6a01      	ldr	r1, [r0, #32]
 80049ae:	6a05      	ldr	r5, [r0, #32]
 80049b0:	f025 0501 	bic.w	r5, r5, #1
 80049b4:	6205      	str	r5, [r0, #32]
 80049b6:	6983      	ldr	r3, [r0, #24]
 80049b8:	f021 010a 	bic.w	r1, r1, #10
 80049bc:	f023 03f0 	bic.w	r3, r3, #240	; 0xf0
 80049c0:	ea43 1306 	orr.w	r3, r3, r6, lsl #4
 80049c4:	430a      	orrs	r2, r1
 80049c6:	6183      	str	r3, [r0, #24]
 80049c8:	6202      	str	r2, [r0, #32]
 80049ca:	6883      	ldr	r3, [r0, #8]
 80049cc:	f023 0370 	bic.w	r3, r3, #112	; 0x70
 80049d0:	f043 0347 	orr.w	r3, r3, #71	; 0x47
 80049d4:	e7b0      	b.n	8004938 <HAL_TIM_ConfigClockSource+0x96>
 80049d6:	461a      	mov	r2, r3
 80049d8:	e78b      	b.n	80048f2 <HAL_TIM_ConfigClockSource+0x50>

080049da <TIM_CCxChannelCmd>:
 80049da:	6a03      	ldr	r3, [r0, #32]
 80049dc:	f001 011f 	and.w	r1, r1, #31
 80049e0:	b510      	push	{r4, lr}
 80049e2:	2401      	movs	r4, #1
 80049e4:	408c      	lsls	r4, r1
 80049e6:	ea23 0304 	bic.w	r3, r3, r4
 80049ea:	6203      	str	r3, [r0, #32]
 80049ec:	6a03      	ldr	r3, [r0, #32]
 80049ee:	408a      	lsls	r2, r1
 80049f0:	431a      	orrs	r2, r3
 80049f2:	6202      	str	r2, [r0, #32]
 80049f4:	bd10      	pop	{r4, pc}
	...

080049f8 <HAL_TIM_OC_Start>:
 80049f8:	b510      	push	{r4, lr}
 80049fa:	4604      	mov	r4, r0
 80049fc:	b929      	cbnz	r1, 8004a0a <HAL_TIM_OC_Start+0x12>
 80049fe:	f890 303e 	ldrb.w	r3, [r0, #62]	; 0x3e
 8004a02:	2b01      	cmp	r3, #1
 8004a04:	d018      	beq.n	8004a38 <HAL_TIM_OC_Start+0x40>
 8004a06:	2001      	movs	r0, #1
 8004a08:	e02d      	b.n	8004a66 <HAL_TIM_OC_Start+0x6e>
 8004a0a:	2904      	cmp	r1, #4
 8004a0c:	d10d      	bne.n	8004a2a <HAL_TIM_OC_Start+0x32>
 8004a0e:	f890 303f 	ldrb.w	r3, [r0, #63]	; 0x3f
 8004a12:	3b01      	subs	r3, #1
 8004a14:	bf18      	it	ne
 8004a16:	2301      	movne	r3, #1
 8004a18:	2b00      	cmp	r3, #0
 8004a1a:	d1f4      	bne.n	8004a06 <HAL_TIM_OC_Start+0xe>
 8004a1c:	2904      	cmp	r1, #4
 8004a1e:	f04f 0302 	mov.w	r3, #2
 8004a22:	d121      	bne.n	8004a68 <HAL_TIM_OC_Start+0x70>
 8004a24:	f884 303f 	strb.w	r3, [r4, #63]	; 0x3f
 8004a28:	e009      	b.n	8004a3e <HAL_TIM_OC_Start+0x46>
 8004a2a:	2908      	cmp	r1, #8
 8004a2c:	bf0c      	ite	eq
 8004a2e:	f890 3040 	ldrbeq.w	r3, [r0, #64]	; 0x40
 8004a32:	f890 3041 	ldrbne.w	r3, [r0, #65]	; 0x41
 8004a36:	e7ec      	b.n	8004a12 <HAL_TIM_OC_Start+0x1a>
 8004a38:	2302      	movs	r3, #2
 8004a3a:	f880 303e 	strb.w	r3, [r0, #62]	; 0x3e
 8004a3e:	6820      	ldr	r0, [r4, #0]
 8004a40:	2201      	movs	r2, #1
 8004a42:	f7ff ffca 	bl	80049da <TIM_CCxChannelCmd>
 8004a46:	6823      	ldr	r3, [r4, #0]
 8004a48:	491c      	ldr	r1, [pc, #112]	; (8004abc <HAL_TIM_OC_Start+0xc4>)
 8004a4a:	428b      	cmp	r3, r1
 8004a4c:	d013      	beq.n	8004a76 <HAL_TIM_OC_Start+0x7e>
 8004a4e:	4a1c      	ldr	r2, [pc, #112]	; (8004ac0 <HAL_TIM_OC_Start+0xc8>)
 8004a50:	4293      	cmp	r3, r2
 8004a52:	d010      	beq.n	8004a76 <HAL_TIM_OC_Start+0x7e>
 8004a54:	f1b3 4f80 	cmp.w	r3, #1073741824	; 0x40000000
 8004a58:	d114      	bne.n	8004a84 <HAL_TIM_OC_Start+0x8c>
 8004a5a:	689a      	ldr	r2, [r3, #8]
 8004a5c:	f002 0207 	and.w	r2, r2, #7
 8004a60:	2a06      	cmp	r2, #6
 8004a62:	d126      	bne.n	8004ab2 <HAL_TIM_OC_Start+0xba>
 8004a64:	2000      	movs	r0, #0
 8004a66:	bd10      	pop	{r4, pc}
 8004a68:	2908      	cmp	r1, #8
 8004a6a:	bf0c      	ite	eq
 8004a6c:	f884 3040 	strbeq.w	r3, [r4, #64]	; 0x40
 8004a70:	f884 3041 	strbne.w	r3, [r4, #65]	; 0x41
 8004a74:	e7e3      	b.n	8004a3e <HAL_TIM_OC_Start+0x46>
 8004a76:	6c5a      	ldr	r2, [r3, #68]	; 0x44
 8004a78:	428b      	cmp	r3, r1
 8004a7a:	f442 4200 	orr.w	r2, r2, #32768	; 0x8000
 8004a7e:	645a      	str	r2, [r3, #68]	; 0x44
 8004a80:	d0eb      	beq.n	8004a5a <HAL_TIM_OC_Start+0x62>
 8004a82:	e7e7      	b.n	8004a54 <HAL_TIM_OC_Start+0x5c>
 8004a84:	4a0f      	ldr	r2, [pc, #60]	; (8004ac4 <HAL_TIM_OC_Start+0xcc>)
 8004a86:	4293      	cmp	r3, r2
 8004a88:	d0e7      	beq.n	8004a5a <HAL_TIM_OC_Start+0x62>
 8004a8a:	f502 6280 	add.w	r2, r2, #1024	; 0x400
 8004a8e:	4293      	cmp	r3, r2
 8004a90:	d0e3      	beq.n	8004a5a <HAL_TIM_OC_Start+0x62>
 8004a92:	f502 6280 	add.w	r2, r2, #1024	; 0x400
 8004a96:	4293      	cmp	r3, r2
 8004a98:	d0df      	beq.n	8004a5a <HAL_TIM_OC_Start+0x62>
 8004a9a:	f502 4278 	add.w	r2, r2, #63488	; 0xf800
 8004a9e:	4293      	cmp	r3, r2
 8004aa0:	d0db      	beq.n	8004a5a <HAL_TIM_OC_Start+0x62>
 8004aa2:	f502 5270 	add.w	r2, r2, #15360	; 0x3c00
 8004aa6:	4293      	cmp	r3, r2
 8004aa8:	d0d7      	beq.n	8004a5a <HAL_TIM_OC_Start+0x62>
 8004aaa:	f5a2 3294 	sub.w	r2, r2, #75776	; 0x12800
 8004aae:	4293      	cmp	r3, r2
 8004ab0:	d0d3      	beq.n	8004a5a <HAL_TIM_OC_Start+0x62>
 8004ab2:	681a      	ldr	r2, [r3, #0]
 8004ab4:	f042 0201 	orr.w	r2, r2, #1
 8004ab8:	601a      	str	r2, [r3, #0]
 8004aba:	e7d3      	b.n	8004a64 <HAL_TIM_OC_Start+0x6c>
 8004abc:	40010000 	.word	0x40010000
 8004ac0:	40010400 	.word	0x40010400
 8004ac4:	40000400 	.word	0x40000400

08004ac8 <HAL_TIM_PWM_Start>:
 8004ac8:	f7ff bf96 	b.w	80049f8 <HAL_TIM_OC_Start>

08004acc <HAL_TIM_IC_Start_IT>:
 8004acc:	b510      	push	{r4, lr}
 8004ace:	4604      	mov	r4, r0
 8004ad0:	2900      	cmp	r1, #0
 8004ad2:	d143      	bne.n	8004b5c <HAL_TIM_IC_Start_IT+0x90>
 8004ad4:	f890 303e 	ldrb.w	r3, [r0, #62]	; 0x3e
 8004ad8:	f890 0042 	ldrb.w	r0, [r0, #66]	; 0x42
 8004adc:	b2db      	uxtb	r3, r3
 8004ade:	2b01      	cmp	r3, #1
 8004ae0:	b2c0      	uxtb	r0, r0
 8004ae2:	d172      	bne.n	8004bca <HAL_TIM_IC_Start_IT+0xfe>
 8004ae4:	2801      	cmp	r0, #1
 8004ae6:	d170      	bne.n	8004bca <HAL_TIM_IC_Start_IT+0xfe>
 8004ae8:	2302      	movs	r3, #2
 8004aea:	2900      	cmp	r1, #0
 8004aec:	d14c      	bne.n	8004b88 <HAL_TIM_IC_Start_IT+0xbc>
 8004aee:	6822      	ldr	r2, [r4, #0]
 8004af0:	f884 303e 	strb.w	r3, [r4, #62]	; 0x3e
 8004af4:	f884 3042 	strb.w	r3, [r4, #66]	; 0x42
 8004af8:	68d3      	ldr	r3, [r2, #12]
 8004afa:	f043 0302 	orr.w	r3, r3, #2
 8004afe:	60d3      	str	r3, [r2, #12]
 8004b00:	6820      	ldr	r0, [r4, #0]
 8004b02:	2201      	movs	r2, #1
 8004b04:	f7ff ff69 	bl	80049da <TIM_CCxChannelCmd>
 8004b08:	6823      	ldr	r3, [r4, #0]
 8004b0a:	4a31      	ldr	r2, [pc, #196]	; (8004bd0 <HAL_TIM_IC_Start_IT+0x104>)
 8004b0c:	4293      	cmp	r3, r2
 8004b0e:	d01a      	beq.n	8004b46 <HAL_TIM_IC_Start_IT+0x7a>
 8004b10:	f1b3 4f80 	cmp.w	r3, #1073741824	; 0x40000000
 8004b14:	d017      	beq.n	8004b46 <HAL_TIM_IC_Start_IT+0x7a>
 8004b16:	f5a2 427c 	sub.w	r2, r2, #64512	; 0xfc00
 8004b1a:	4293      	cmp	r3, r2
 8004b1c:	d013      	beq.n	8004b46 <HAL_TIM_IC_Start_IT+0x7a>
 8004b1e:	f502 6280 	add.w	r2, r2, #1024	; 0x400
 8004b22:	4293      	cmp	r3, r2
 8004b24:	d00f      	beq.n	8004b46 <HAL_TIM_IC_Start_IT+0x7a>
 8004b26:	f502 6280 	add.w	r2, r2, #1024	; 0x400
 8004b2a:	4293      	cmp	r3, r2
 8004b2c:	d00b      	beq.n	8004b46 <HAL_TIM_IC_Start_IT+0x7a>
 8004b2e:	f502 4278 	add.w	r2, r2, #63488	; 0xf800
 8004b32:	4293      	cmp	r3, r2
 8004b34:	d007      	beq.n	8004b46 <HAL_TIM_IC_Start_IT+0x7a>
 8004b36:	f502 5270 	add.w	r2, r2, #15360	; 0x3c00
 8004b3a:	4293      	cmp	r3, r2
 8004b3c:	d003      	beq.n	8004b46 <HAL_TIM_IC_Start_IT+0x7a>
 8004b3e:	f5a2 3294 	sub.w	r2, r2, #75776	; 0x12800
 8004b42:	4293      	cmp	r3, r2
 8004b44:	d104      	bne.n	8004b50 <HAL_TIM_IC_Start_IT+0x84>
 8004b46:	689a      	ldr	r2, [r3, #8]
 8004b48:	f002 0207 	and.w	r2, r2, #7
 8004b4c:	2a06      	cmp	r2, #6
 8004b4e:	d003      	beq.n	8004b58 <HAL_TIM_IC_Start_IT+0x8c>
 8004b50:	681a      	ldr	r2, [r3, #0]
 8004b52:	f042 0201 	orr.w	r2, r2, #1
 8004b56:	601a      	str	r2, [r3, #0]
 8004b58:	2000      	movs	r0, #0
 8004b5a:	e037      	b.n	8004bcc <HAL_TIM_IC_Start_IT+0x100>
 8004b5c:	2904      	cmp	r1, #4
 8004b5e:	d105      	bne.n	8004b6c <HAL_TIM_IC_Start_IT+0xa0>
 8004b60:	f890 303f 	ldrb.w	r3, [r0, #63]	; 0x3f
 8004b64:	f890 0043 	ldrb.w	r0, [r0, #67]	; 0x43
 8004b68:	b2db      	uxtb	r3, r3
 8004b6a:	e7b8      	b.n	8004ade <HAL_TIM_IC_Start_IT+0x12>
 8004b6c:	2908      	cmp	r1, #8
 8004b6e:	bf0b      	itete	eq
 8004b70:	f890 3040 	ldrbeq.w	r3, [r0, #64]	; 0x40
 8004b74:	f894 3041 	ldrbne.w	r3, [r4, #65]	; 0x41
 8004b78:	f890 0044 	ldrbeq.w	r0, [r0, #68]	; 0x44
 8004b7c:	f894 0045 	ldrbne.w	r0, [r4, #69]	; 0x45
 8004b80:	bf0c      	ite	eq
 8004b82:	b2db      	uxtbeq	r3, r3
 8004b84:	b2db      	uxtbne	r3, r3
 8004b86:	e7aa      	b.n	8004ade <HAL_TIM_IC_Start_IT+0x12>
 8004b88:	2904      	cmp	r1, #4
 8004b8a:	d108      	bne.n	8004b9e <HAL_TIM_IC_Start_IT+0xd2>
 8004b8c:	6822      	ldr	r2, [r4, #0]
 8004b8e:	f884 303f 	strb.w	r3, [r4, #63]	; 0x3f
 8004b92:	f884 3043 	strb.w	r3, [r4, #67]	; 0x43
 8004b96:	68d3      	ldr	r3, [r2, #12]
 8004b98:	f043 0304 	orr.w	r3, r3, #4
 8004b9c:	e7af      	b.n	8004afe <HAL_TIM_IC_Start_IT+0x32>
 8004b9e:	2908      	cmp	r1, #8
 8004ba0:	d108      	bne.n	8004bb4 <HAL_TIM_IC_Start_IT+0xe8>
 8004ba2:	6822      	ldr	r2, [r4, #0]
 8004ba4:	f884 3040 	strb.w	r3, [r4, #64]	; 0x40
 8004ba8:	f884 3044 	strb.w	r3, [r4, #68]	; 0x44
 8004bac:	68d3      	ldr	r3, [r2, #12]
 8004bae:	f043 0308 	orr.w	r3, r3, #8
 8004bb2:	e7a4      	b.n	8004afe <HAL_TIM_IC_Start_IT+0x32>
 8004bb4:	290c      	cmp	r1, #12
 8004bb6:	f884 3041 	strb.w	r3, [r4, #65]	; 0x41
 8004bba:	f884 3045 	strb.w	r3, [r4, #69]	; 0x45
 8004bbe:	d105      	bne.n	8004bcc <HAL_TIM_IC_Start_IT+0x100>
 8004bc0:	6822      	ldr	r2, [r4, #0]
 8004bc2:	68d3      	ldr	r3, [r2, #12]
 8004bc4:	f043 0310 	orr.w	r3, r3, #16
 8004bc8:	e799      	b.n	8004afe <HAL_TIM_IC_Start_IT+0x32>
 8004bca:	2001      	movs	r0, #1
 8004bcc:	bd10      	pop	{r4, pc}
 8004bce:	bf00      	nop
 8004bd0:	40010000 	.word	0x40010000

08004bd4 <HAL_TIMEx_MasterConfigSynchronization>:
 8004bd4:	b530      	push	{r4, r5, lr}
 8004bd6:	f890 303c 	ldrb.w	r3, [r0, #60]	; 0x3c
 8004bda:	2b01      	cmp	r3, #1
 8004bdc:	f04f 0302 	mov.w	r3, #2
 8004be0:	d032      	beq.n	8004c48 <HAL_TIMEx_MasterConfigSynchronization+0x74>
 8004be2:	f880 303d 	strb.w	r3, [r0, #61]	; 0x3d
 8004be6:	6803      	ldr	r3, [r0, #0]
 8004be8:	680d      	ldr	r5, [r1, #0]
 8004bea:	685c      	ldr	r4, [r3, #4]
 8004bec:	689a      	ldr	r2, [r3, #8]
 8004bee:	f024 0470 	bic.w	r4, r4, #112	; 0x70
 8004bf2:	432c      	orrs	r4, r5
 8004bf4:	605c      	str	r4, [r3, #4]
 8004bf6:	4c15      	ldr	r4, [pc, #84]	; (8004c4c <HAL_TIMEx_MasterConfigSynchronization+0x78>)
 8004bf8:	42a3      	cmp	r3, r4
 8004bfa:	d01a      	beq.n	8004c32 <HAL_TIMEx_MasterConfigSynchronization+0x5e>
 8004bfc:	f1b3 4f80 	cmp.w	r3, #1073741824	; 0x40000000
 8004c00:	d017      	beq.n	8004c32 <HAL_TIMEx_MasterConfigSynchronization+0x5e>
 8004c02:	f5a4 447c 	sub.w	r4, r4, #64512	; 0xfc00
 8004c06:	42a3      	cmp	r3, r4
 8004c08:	d013      	beq.n	8004c32 <HAL_TIMEx_MasterConfigSynchronization+0x5e>
 8004c0a:	f504 6480 	add.w	r4, r4, #1024	; 0x400
 8004c0e:	42a3      	cmp	r3, r4
 8004c10:	d00f      	beq.n	8004c32 <HAL_TIMEx_MasterConfigSynchronization+0x5e>
 8004c12:	f504 6480 	add.w	r4, r4, #1024	; 0x400
 8004c16:	42a3      	cmp	r3, r4
 8004c18:	d00b      	beq.n	8004c32 <HAL_TIMEx_MasterConfigSynchronization+0x5e>
 8004c1a:	f504 4478 	add.w	r4, r4, #63488	; 0xf800
 8004c1e:	42a3      	cmp	r3, r4
 8004c20:	d007      	beq.n	8004c32 <HAL_TIMEx_MasterConfigSynchronization+0x5e>
 8004c22:	f504 5470 	add.w	r4, r4, #15360	; 0x3c00
 8004c26:	42a3      	cmp	r3, r4
 8004c28:	d003      	beq.n	8004c32 <HAL_TIMEx_MasterConfigSynchronization+0x5e>
 8004c2a:	f5a4 3494 	sub.w	r4, r4, #75776	; 0x12800
 8004c2e:	42a3      	cmp	r3, r4
 8004c30:	d104      	bne.n	8004c3c <HAL_TIMEx_MasterConfigSynchronization+0x68>
 8004c32:	6849      	ldr	r1, [r1, #4]
 8004c34:	f022 0280 	bic.w	r2, r2, #128	; 0x80
 8004c38:	430a      	orrs	r2, r1
 8004c3a:	609a      	str	r2, [r3, #8]
 8004c3c:	2301      	movs	r3, #1
 8004c3e:	f880 303d 	strb.w	r3, [r0, #61]	; 0x3d
 8004c42:	2300      	movs	r3, #0
 8004c44:	f880 303c 	strb.w	r3, [r0, #60]	; 0x3c
 8004c48:	4618      	mov	r0, r3
 8004c4a:	bd30      	pop	{r4, r5, pc}
 8004c4c:	40010000 	.word	0x40010000

08004c50 <HAL_TIMEx_ConfigBreakDeadTime>:
 8004c50:	f890 303c 	ldrb.w	r3, [r0, #60]	; 0x3c
 8004c54:	2b01      	cmp	r3, #1
 8004c56:	d01f      	beq.n	8004c98 <HAL_TIMEx_ConfigBreakDeadTime+0x48>
 8004c58:	68cb      	ldr	r3, [r1, #12]
 8004c5a:	688a      	ldr	r2, [r1, #8]
 8004c5c:	f423 7340 	bic.w	r3, r3, #768	; 0x300
 8004c60:	4313      	orrs	r3, r2
 8004c62:	684a      	ldr	r2, [r1, #4]
 8004c64:	f423 6380 	bic.w	r3, r3, #1024	; 0x400
 8004c68:	4313      	orrs	r3, r2
 8004c6a:	680a      	ldr	r2, [r1, #0]
 8004c6c:	f423 6300 	bic.w	r3, r3, #2048	; 0x800
 8004c70:	4313      	orrs	r3, r2
 8004c72:	690a      	ldr	r2, [r1, #16]
 8004c74:	f423 5380 	bic.w	r3, r3, #4096	; 0x1000
 8004c78:	4313      	orrs	r3, r2
 8004c7a:	694a      	ldr	r2, [r1, #20]
 8004c7c:	f423 5300 	bic.w	r3, r3, #8192	; 0x2000
 8004c80:	4313      	orrs	r3, r2
 8004c82:	69ca      	ldr	r2, [r1, #28]
 8004c84:	f423 4380 	bic.w	r3, r3, #16384	; 0x4000
 8004c88:	4313      	orrs	r3, r2
 8004c8a:	6802      	ldr	r2, [r0, #0]
 8004c8c:	6453      	str	r3, [r2, #68]	; 0x44
 8004c8e:	2300      	movs	r3, #0
 8004c90:	f880 303c 	strb.w	r3, [r0, #60]	; 0x3c
 8004c94:	4618      	mov	r0, r3
 8004c96:	4770      	bx	lr
 8004c98:	2002      	movs	r0, #2
 8004c9a:	4770      	bx	lr

08004c9c <HAL_TIMEx_CommutCallback>:
 8004c9c:	4770      	bx	lr

08004c9e <HAL_TIMEx_BreakCallback>:
 8004c9e:	4770      	bx	lr

08004ca0 <UART_EndRxTransfer>:
 8004ca0:	6802      	ldr	r2, [r0, #0]
 8004ca2:	f102 030c 	add.w	r3, r2, #12
 8004ca6:	e853 3f00 	ldrex	r3, [r3]
 8004caa:	f423 7390 	bic.w	r3, r3, #288	; 0x120
 8004cae:	320c      	adds	r2, #12
 8004cb0:	e842 3100 	strex	r1, r3, [r2]
 8004cb4:	6802      	ldr	r2, [r0, #0]
 8004cb6:	2900      	cmp	r1, #0
 8004cb8:	d1f2      	bne.n	8004ca0 <UART_EndRxTransfer>
 8004cba:	f102 0314 	add.w	r3, r2, #20
 8004cbe:	e853 3f00 	ldrex	r3, [r3]
 8004cc2:	f023 0301 	bic.w	r3, r3, #1
 8004cc6:	f102 0c14 	add.w	ip, r2, #20
 8004cca:	e84c 3100 	strex	r1, r3, [ip]
 8004cce:	2900      	cmp	r1, #0
 8004cd0:	d1f3      	bne.n	8004cba <UART_EndRxTransfer+0x1a>
 8004cd2:	6b03      	ldr	r3, [r0, #48]	; 0x30
 8004cd4:	2b01      	cmp	r3, #1
 8004cd6:	d10b      	bne.n	8004cf0 <UART_EndRxTransfer+0x50>
 8004cd8:	f102 030c 	add.w	r3, r2, #12
 8004cdc:	e853 3f00 	ldrex	r3, [r3]
 8004ce0:	f023 0310 	bic.w	r3, r3, #16
 8004ce4:	f102 0c0c 	add.w	ip, r2, #12
 8004ce8:	e84c 3100 	strex	r1, r3, [ip]
 8004cec:	2900      	cmp	r1, #0
 8004cee:	d1f3      	bne.n	8004cd8 <UART_EndRxTransfer+0x38>
 8004cf0:	2320      	movs	r3, #32
 8004cf2:	f880 303e 	strb.w	r3, [r0, #62]	; 0x3e
 8004cf6:	2300      	movs	r3, #0
 8004cf8:	6303      	str	r3, [r0, #48]	; 0x30
 8004cfa:	4770      	bx	lr

08004cfc <UART_SetConfig>:
 8004cfc:	6802      	ldr	r2, [r0, #0]
 8004cfe:	68c1      	ldr	r1, [r0, #12]
 8004d00:	6913      	ldr	r3, [r2, #16]
 8004d02:	f423 5340 	bic.w	r3, r3, #12288	; 0x3000
 8004d06:	430b      	orrs	r3, r1
 8004d08:	b570      	push	{r4, r5, r6, lr}
 8004d0a:	6113      	str	r3, [r2, #16]
 8004d0c:	4605      	mov	r5, r0
 8004d0e:	6883      	ldr	r3, [r0, #8]
 8004d10:	6900      	ldr	r0, [r0, #16]
 8004d12:	68d1      	ldr	r1, [r2, #12]
 8004d14:	4303      	orrs	r3, r0
 8004d16:	6968      	ldr	r0, [r5, #20]
 8004d18:	4303      	orrs	r3, r0
 8004d1a:	69e8      	ldr	r0, [r5, #28]
 8004d1c:	f421 4116 	bic.w	r1, r1, #38400	; 0x9600
 8004d20:	f021 010c 	bic.w	r1, r1, #12
 8004d24:	4303      	orrs	r3, r0
 8004d26:	430b      	orrs	r3, r1
 8004d28:	60d3      	str	r3, [r2, #12]
 8004d2a:	6953      	ldr	r3, [r2, #20]
 8004d2c:	69a9      	ldr	r1, [r5, #24]
 8004d2e:	f423 7340 	bic.w	r3, r3, #768	; 0x300
 8004d32:	430b      	orrs	r3, r1
 8004d34:	6153      	str	r3, [r2, #20]
 8004d36:	4b1f      	ldr	r3, [pc, #124]	; (8004db4 <UART_SetConfig+0xb8>)
 8004d38:	429a      	cmp	r2, r3
 8004d3a:	d003      	beq.n	8004d44 <UART_SetConfig+0x48>
 8004d3c:	f503 6380 	add.w	r3, r3, #1024	; 0x400
 8004d40:	429a      	cmp	r2, r3
 8004d42:	d123      	bne.n	8004d8c <UART_SetConfig+0x90>
 8004d44:	f7ff f916 	bl	8003f74 <HAL_RCC_GetPCLK2Freq>
 8004d48:	69eb      	ldr	r3, [r5, #28]
 8004d4a:	2119      	movs	r1, #25
 8004d4c:	f5b3 4f00 	cmp.w	r3, #32768	; 0x8000
 8004d50:	e9d5 4600 	ldrd	r4, r6, [r5]
 8004d54:	fba0 0101 	umull	r0, r1, r0, r1
 8004d58:	d11b      	bne.n	8004d92 <UART_SetConfig+0x96>
 8004d5a:	19b2      	adds	r2, r6, r6
 8004d5c:	f04f 0300 	mov.w	r3, #0
 8004d60:	415b      	adcs	r3, r3
 8004d62:	f7fb ff91 	bl	8000c88 <__aeabi_uldivmod>
 8004d66:	2164      	movs	r1, #100	; 0x64
 8004d68:	fbb0 f5f1 	udiv	r5, r0, r1
 8004d6c:	fb01 0315 	mls	r3, r1, r5, r0
 8004d70:	00db      	lsls	r3, r3, #3
 8004d72:	3332      	adds	r3, #50	; 0x32
 8004d74:	fbb3 f3f1 	udiv	r3, r3, r1
 8004d78:	f003 0207 	and.w	r2, r3, #7
 8004d7c:	005b      	lsls	r3, r3, #1
 8004d7e:	eb02 1205 	add.w	r2, r2, r5, lsl #4
 8004d82:	f403 73f8 	and.w	r3, r3, #496	; 0x1f0
 8004d86:	4413      	add	r3, r2
 8004d88:	60a3      	str	r3, [r4, #8]
 8004d8a:	bd70      	pop	{r4, r5, r6, pc}
 8004d8c:	f7ff f8e2 	bl	8003f54 <HAL_RCC_GetPCLK1Freq>
 8004d90:	e7da      	b.n	8004d48 <UART_SetConfig+0x4c>
 8004d92:	00b2      	lsls	r2, r6, #2
 8004d94:	0fb3      	lsrs	r3, r6, #30
 8004d96:	f7fb ff77 	bl	8000c88 <__aeabi_uldivmod>
 8004d9a:	2264      	movs	r2, #100	; 0x64
 8004d9c:	fbb0 f1f2 	udiv	r1, r0, r2
 8004da0:	fb02 0311 	mls	r3, r2, r1, r0
 8004da4:	011b      	lsls	r3, r3, #4
 8004da6:	3332      	adds	r3, #50	; 0x32
 8004da8:	fbb3 f3f2 	udiv	r3, r3, r2
 8004dac:	eb03 1301 	add.w	r3, r3, r1, lsl #4
 8004db0:	e7ea      	b.n	8004d88 <UART_SetConfig+0x8c>
 8004db2:	bf00      	nop
 8004db4:	40011000 	.word	0x40011000

08004db8 <UART_WaitOnFlagUntilTimeout.constprop.0>:
 8004db8:	b5f8      	push	{r3, r4, r5, r6, r7, lr}
 8004dba:	4604      	mov	r4, r0
 8004dbc:	460e      	mov	r6, r1
 8004dbe:	4617      	mov	r7, r2
 8004dc0:	461d      	mov	r5, r3
 8004dc2:	6822      	ldr	r2, [r4, #0]
 8004dc4:	6813      	ldr	r3, [r2, #0]
 8004dc6:	ea36 0303 	bics.w	r3, r6, r3
 8004dca:	d101      	bne.n	8004dd0 <UART_WaitOnFlagUntilTimeout.constprop.0+0x18>
 8004dcc:	2000      	movs	r0, #0
 8004dce:	e028      	b.n	8004e22 <UART_WaitOnFlagUntilTimeout.constprop.0+0x6a>
 8004dd0:	1c6b      	adds	r3, r5, #1
 8004dd2:	d0f7      	beq.n	8004dc4 <UART_WaitOnFlagUntilTimeout.constprop.0+0xc>
 8004dd4:	b125      	cbz	r5, 8004de0 <UART_WaitOnFlagUntilTimeout.constprop.0+0x28>
 8004dd6:	f7fe f87f 	bl	8002ed8 <HAL_GetTick>
 8004dda:	1bc0      	subs	r0, r0, r7
 8004ddc:	4285      	cmp	r5, r0
 8004dde:	d2f0      	bcs.n	8004dc2 <UART_WaitOnFlagUntilTimeout.constprop.0+0xa>
 8004de0:	6822      	ldr	r2, [r4, #0]
 8004de2:	f102 030c 	add.w	r3, r2, #12
 8004de6:	e853 3f00 	ldrex	r3, [r3]
 8004dea:	f423 73d0 	bic.w	r3, r3, #416	; 0x1a0
 8004dee:	320c      	adds	r2, #12
 8004df0:	e842 3000 	strex	r0, r3, [r2]
 8004df4:	6821      	ldr	r1, [r4, #0]
 8004df6:	2800      	cmp	r0, #0
 8004df8:	d1f2      	bne.n	8004de0 <UART_WaitOnFlagUntilTimeout.constprop.0+0x28>
 8004dfa:	f101 0314 	add.w	r3, r1, #20
 8004dfe:	e853 3f00 	ldrex	r3, [r3]
 8004e02:	f023 0301 	bic.w	r3, r3, #1
 8004e06:	f101 0014 	add.w	r0, r1, #20
 8004e0a:	e840 3200 	strex	r2, r3, [r0]
 8004e0e:	2a00      	cmp	r2, #0
 8004e10:	d1f3      	bne.n	8004dfa <UART_WaitOnFlagUntilTimeout.constprop.0+0x42>
 8004e12:	2320      	movs	r3, #32
 8004e14:	f884 303d 	strb.w	r3, [r4, #61]	; 0x3d
 8004e18:	f884 203c 	strb.w	r2, [r4, #60]	; 0x3c
 8004e1c:	f884 303e 	strb.w	r3, [r4, #62]	; 0x3e
 8004e20:	2003      	movs	r0, #3
 8004e22:	bdf8      	pop	{r3, r4, r5, r6, r7, pc}

08004e24 <HAL_UART_Init>:
 8004e24:	b510      	push	{r4, lr}
 8004e26:	4604      	mov	r4, r0
 8004e28:	b340      	cbz	r0, 8004e7c <HAL_UART_Init+0x58>
 8004e2a:	f890 303d 	ldrb.w	r3, [r0, #61]	; 0x3d
 8004e2e:	f003 02ff 	and.w	r2, r3, #255	; 0xff
 8004e32:	b91b      	cbnz	r3, 8004e3c <HAL_UART_Init+0x18>
 8004e34:	f880 203c 	strb.w	r2, [r0, #60]	; 0x3c
 8004e38:	f7fd ff16 	bl	8002c68 <HAL_UART_MspInit>
 8004e3c:	6822      	ldr	r2, [r4, #0]
 8004e3e:	2324      	movs	r3, #36	; 0x24
 8004e40:	f884 303d 	strb.w	r3, [r4, #61]	; 0x3d
 8004e44:	68d3      	ldr	r3, [r2, #12]
 8004e46:	f423 5300 	bic.w	r3, r3, #8192	; 0x2000
 8004e4a:	60d3      	str	r3, [r2, #12]
 8004e4c:	4620      	mov	r0, r4
 8004e4e:	f7ff ff55 	bl	8004cfc <UART_SetConfig>
 8004e52:	6823      	ldr	r3, [r4, #0]
 8004e54:	691a      	ldr	r2, [r3, #16]
 8004e56:	f422 4290 	bic.w	r2, r2, #18432	; 0x4800
 8004e5a:	611a      	str	r2, [r3, #16]
 8004e5c:	695a      	ldr	r2, [r3, #20]
 8004e5e:	f022 022a 	bic.w	r2, r2, #42	; 0x2a
 8004e62:	615a      	str	r2, [r3, #20]
 8004e64:	68da      	ldr	r2, [r3, #12]
 8004e66:	f442 5200 	orr.w	r2, r2, #8192	; 0x2000
 8004e6a:	60da      	str	r2, [r3, #12]
 8004e6c:	2000      	movs	r0, #0
 8004e6e:	2320      	movs	r3, #32
 8004e70:	6420      	str	r0, [r4, #64]	; 0x40
 8004e72:	f884 303d 	strb.w	r3, [r4, #61]	; 0x3d
 8004e76:	f884 303e 	strb.w	r3, [r4, #62]	; 0x3e
 8004e7a:	bd10      	pop	{r4, pc}
 8004e7c:	2001      	movs	r0, #1
 8004e7e:	e7fc      	b.n	8004e7a <HAL_UART_Init+0x56>

08004e80 <HAL_UART_Transmit>:
 8004e80:	b5f7      	push	{r0, r1, r2, r4, r5, r6, r7, lr}
 8004e82:	4617      	mov	r7, r2
 8004e84:	f890 203d 	ldrb.w	r2, [r0, #61]	; 0x3d
 8004e88:	9300      	str	r3, [sp, #0]
 8004e8a:	2a20      	cmp	r2, #32
 8004e8c:	4604      	mov	r4, r0
 8004e8e:	460e      	mov	r6, r1
 8004e90:	d149      	bne.n	8004f26 <HAL_UART_Transmit+0xa6>
 8004e92:	2900      	cmp	r1, #0
 8004e94:	d045      	beq.n	8004f22 <HAL_UART_Transmit+0xa2>
 8004e96:	2f00      	cmp	r7, #0
 8004e98:	d043      	beq.n	8004f22 <HAL_UART_Transmit+0xa2>
 8004e9a:	f890 203c 	ldrb.w	r2, [r0, #60]	; 0x3c
 8004e9e:	2a01      	cmp	r2, #1
 8004ea0:	d041      	beq.n	8004f26 <HAL_UART_Transmit+0xa6>
 8004ea2:	2201      	movs	r2, #1
 8004ea4:	f880 203c 	strb.w	r2, [r0, #60]	; 0x3c
 8004ea8:	2500      	movs	r5, #0
 8004eaa:	2221      	movs	r2, #33	; 0x21
 8004eac:	6405      	str	r5, [r0, #64]	; 0x40
 8004eae:	f880 203d 	strb.w	r2, [r0, #61]	; 0x3d
 8004eb2:	f7fe f811 	bl	8002ed8 <HAL_GetTick>
 8004eb6:	68a1      	ldr	r1, [r4, #8]
 8004eb8:	9b00      	ldr	r3, [sp, #0]
 8004eba:	84a7      	strh	r7, [r4, #36]	; 0x24
 8004ebc:	f5b1 5f80 	cmp.w	r1, #4096	; 0x1000
 8004ec0:	4602      	mov	r2, r0
 8004ec2:	84e7      	strh	r7, [r4, #38]	; 0x26
 8004ec4:	d103      	bne.n	8004ece <HAL_UART_Transmit+0x4e>
 8004ec6:	6921      	ldr	r1, [r4, #16]
 8004ec8:	b909      	cbnz	r1, 8004ece <HAL_UART_Transmit+0x4e>
 8004eca:	4635      	mov	r5, r6
 8004ecc:	460e      	mov	r6, r1
 8004ece:	2100      	movs	r1, #0
 8004ed0:	f884 103c 	strb.w	r1, [r4, #60]	; 0x3c
 8004ed4:	8ce1      	ldrh	r1, [r4, #38]	; 0x26
 8004ed6:	b289      	uxth	r1, r1
 8004ed8:	b941      	cbnz	r1, 8004eec <HAL_UART_Transmit+0x6c>
 8004eda:	2140      	movs	r1, #64	; 0x40
 8004edc:	4620      	mov	r0, r4
 8004ede:	f7ff ff6b 	bl	8004db8 <UART_WaitOnFlagUntilTimeout.constprop.0>
 8004ee2:	b960      	cbnz	r0, 8004efe <HAL_UART_Transmit+0x7e>
 8004ee4:	2320      	movs	r3, #32
 8004ee6:	f884 303d 	strb.w	r3, [r4, #61]	; 0x3d
 8004eea:	e009      	b.n	8004f00 <HAL_UART_Transmit+0x80>
 8004eec:	2180      	movs	r1, #128	; 0x80
 8004eee:	4620      	mov	r0, r4
 8004ef0:	e9cd 2300 	strd	r2, r3, [sp]
 8004ef4:	f7ff ff60 	bl	8004db8 <UART_WaitOnFlagUntilTimeout.constprop.0>
 8004ef8:	e9dd 2300 	ldrd	r2, r3, [sp]
 8004efc:	b110      	cbz	r0, 8004f04 <HAL_UART_Transmit+0x84>
 8004efe:	2003      	movs	r0, #3
 8004f00:	b003      	add	sp, #12
 8004f02:	bdf0      	pop	{r4, r5, r6, r7, pc}
 8004f04:	6820      	ldr	r0, [r4, #0]
 8004f06:	b94e      	cbnz	r6, 8004f1c <HAL_UART_Transmit+0x9c>
 8004f08:	f835 1b02 	ldrh.w	r1, [r5], #2
 8004f0c:	f3c1 0108 	ubfx	r1, r1, #0, #9
 8004f10:	6041      	str	r1, [r0, #4]
 8004f12:	8ce1      	ldrh	r1, [r4, #38]	; 0x26
 8004f14:	3901      	subs	r1, #1
 8004f16:	b289      	uxth	r1, r1
 8004f18:	84e1      	strh	r1, [r4, #38]	; 0x26
 8004f1a:	e7db      	b.n	8004ed4 <HAL_UART_Transmit+0x54>
 8004f1c:	f816 1b01 	ldrb.w	r1, [r6], #1
 8004f20:	e7f6      	b.n	8004f10 <HAL_UART_Transmit+0x90>
 8004f22:	2001      	movs	r0, #1
 8004f24:	e7ec      	b.n	8004f00 <HAL_UART_Transmit+0x80>
 8004f26:	2002      	movs	r0, #2
 8004f28:	e7ea      	b.n	8004f00 <HAL_UART_Transmit+0x80>

08004f2a <HAL_UART_TxCpltCallback>:
 8004f2a:	4770      	bx	lr

08004f2c <HAL_UART_ErrorCallback>:
 8004f2c:	4770      	bx	lr

08004f2e <UART_DMAAbortOnError>:
 8004f2e:	b508      	push	{r3, lr}
 8004f30:	6b80      	ldr	r0, [r0, #56]	; 0x38
 8004f32:	2300      	movs	r3, #0
 8004f34:	85c3      	strh	r3, [r0, #46]	; 0x2e
 8004f36:	84c3      	strh	r3, [r0, #38]	; 0x26
 8004f38:	f7ff fff8 	bl	8004f2c <HAL_UART_ErrorCallback>
 8004f3c:	bd08      	pop	{r3, pc}

08004f3e <HAL_UARTEx_RxEventCallback>:
 8004f3e:	4770      	bx	lr

08004f40 <UART_Receive_IT.part.0.isra.0>:
 8004f40:	b507      	push	{r0, r1, r2, lr}
 8004f42:	6881      	ldr	r1, [r0, #8]
 8004f44:	6a83      	ldr	r3, [r0, #40]	; 0x28
 8004f46:	6802      	ldr	r2, [r0, #0]
 8004f48:	f5b1 5f80 	cmp.w	r1, #4096	; 0x1000
 8004f4c:	d13e      	bne.n	8004fcc <UART_Receive_IT.part.0.isra.0+0x8c>
 8004f4e:	6901      	ldr	r1, [r0, #16]
 8004f50:	2900      	cmp	r1, #0
 8004f52:	d13e      	bne.n	8004fd2 <UART_Receive_IT.part.0.isra.0+0x92>
 8004f54:	6852      	ldr	r2, [r2, #4]
 8004f56:	f3c2 0208 	ubfx	r2, r2, #0, #9
 8004f5a:	f823 2b02 	strh.w	r2, [r3], #2
 8004f5e:	6283      	str	r3, [r0, #40]	; 0x28
 8004f60:	8dc3      	ldrh	r3, [r0, #46]	; 0x2e
 8004f62:	3b01      	subs	r3, #1
 8004f64:	b29b      	uxth	r3, r3
 8004f66:	85c3      	strh	r3, [r0, #46]	; 0x2e
 8004f68:	2b00      	cmp	r3, #0
 8004f6a:	d12c      	bne.n	8004fc6 <UART_Receive_IT.part.0.isra.0+0x86>
 8004f6c:	6802      	ldr	r2, [r0, #0]
 8004f6e:	68d1      	ldr	r1, [r2, #12]
 8004f70:	f021 0120 	bic.w	r1, r1, #32
 8004f74:	60d1      	str	r1, [r2, #12]
 8004f76:	68d1      	ldr	r1, [r2, #12]
 8004f78:	f421 7180 	bic.w	r1, r1, #256	; 0x100
 8004f7c:	60d1      	str	r1, [r2, #12]
 8004f7e:	6951      	ldr	r1, [r2, #20]
 8004f80:	f021 0101 	bic.w	r1, r1, #1
 8004f84:	6151      	str	r1, [r2, #20]
 8004f86:	2220      	movs	r2, #32
 8004f88:	f880 203e 	strb.w	r2, [r0, #62]	; 0x3e
 8004f8c:	6b02      	ldr	r2, [r0, #48]	; 0x30
 8004f8e:	2a01      	cmp	r2, #1
 8004f90:	6802      	ldr	r2, [r0, #0]
 8004f92:	d128      	bne.n	8004fe6 <UART_Receive_IT.part.0.isra.0+0xa6>
 8004f94:	6303      	str	r3, [r0, #48]	; 0x30
 8004f96:	f102 030c 	add.w	r3, r2, #12
 8004f9a:	e853 3f00 	ldrex	r3, [r3]
 8004f9e:	f023 0310 	bic.w	r3, r3, #16
 8004fa2:	f102 0c0c 	add.w	ip, r2, #12
 8004fa6:	e84c 3100 	strex	r1, r3, [ip]
 8004faa:	2900      	cmp	r1, #0
 8004fac:	d1f3      	bne.n	8004f96 <UART_Receive_IT.part.0.isra.0+0x56>
 8004fae:	6813      	ldr	r3, [r2, #0]
 8004fb0:	06db      	lsls	r3, r3, #27
 8004fb2:	d505      	bpl.n	8004fc0 <UART_Receive_IT.part.0.isra.0+0x80>
 8004fb4:	9101      	str	r1, [sp, #4]
 8004fb6:	6813      	ldr	r3, [r2, #0]
 8004fb8:	9301      	str	r3, [sp, #4]
 8004fba:	6853      	ldr	r3, [r2, #4]
 8004fbc:	9301      	str	r3, [sp, #4]
 8004fbe:	9b01      	ldr	r3, [sp, #4]
 8004fc0:	8d81      	ldrh	r1, [r0, #44]	; 0x2c
 8004fc2:	f7ff ffbc 	bl	8004f3e <HAL_UARTEx_RxEventCallback>
 8004fc6:	b003      	add	sp, #12
 8004fc8:	f85d fb04 	ldr.w	pc, [sp], #4
 8004fcc:	b939      	cbnz	r1, 8004fde <UART_Receive_IT.part.0.isra.0+0x9e>
 8004fce:	6901      	ldr	r1, [r0, #16]
 8004fd0:	b929      	cbnz	r1, 8004fde <UART_Receive_IT.part.0.isra.0+0x9e>
 8004fd2:	6852      	ldr	r2, [r2, #4]
 8004fd4:	b2d2      	uxtb	r2, r2
 8004fd6:	701a      	strb	r2, [r3, #0]
 8004fd8:	6a83      	ldr	r3, [r0, #40]	; 0x28
 8004fda:	3301      	adds	r3, #1
 8004fdc:	e7bf      	b.n	8004f5e <UART_Receive_IT.part.0.isra.0+0x1e>
 8004fde:	6852      	ldr	r2, [r2, #4]
 8004fe0:	f002 027f 	and.w	r2, r2, #127	; 0x7f
 8004fe4:	e7f7      	b.n	8004fd6 <UART_Receive_IT.part.0.isra.0+0x96>
 8004fe6:	f7fd fac7 	bl	8002578 <HAL_UART_RxCpltCallback>
 8004fea:	e7ec      	b.n	8004fc6 <UART_Receive_IT.part.0.isra.0+0x86>

08004fec <HAL_UART_IRQHandler>:
 8004fec:	6803      	ldr	r3, [r0, #0]
 8004fee:	b537      	push	{r0, r1, r2, r4, r5, lr}
 8004ff0:	681a      	ldr	r2, [r3, #0]
 8004ff2:	68d9      	ldr	r1, [r3, #12]
 8004ff4:	695d      	ldr	r5, [r3, #20]
 8004ff6:	f012 0f0f 	tst.w	r2, #15
 8004ffa:	4604      	mov	r4, r0
 8004ffc:	d10c      	bne.n	8005018 <HAL_UART_IRQHandler+0x2c>
 8004ffe:	0695      	lsls	r5, r2, #26
 8005000:	d570      	bpl.n	80050e4 <HAL_UART_IRQHandler+0xf8>
 8005002:	068d      	lsls	r5, r1, #26
 8005004:	d56e      	bpl.n	80050e4 <HAL_UART_IRQHandler+0xf8>
 8005006:	f890 303e 	ldrb.w	r3, [r0, #62]	; 0x3e
 800500a:	2b22      	cmp	r3, #34	; 0x22
 800500c:	d164      	bne.n	80050d8 <HAL_UART_IRQHandler+0xec>
 800500e:	b003      	add	sp, #12
 8005010:	e8bd 4030 	ldmia.w	sp!, {r4, r5, lr}
 8005014:	f7ff bf94 	b.w	8004f40 <UART_Receive_IT.part.0.isra.0>
 8005018:	f005 0001 	and.w	r0, r5, #1
 800501c:	f401 7590 	and.w	r5, r1, #288	; 0x120
 8005020:	4305      	orrs	r5, r0
 8005022:	d05f      	beq.n	80050e4 <HAL_UART_IRQHandler+0xf8>
 8005024:	07d5      	lsls	r5, r2, #31
 8005026:	d505      	bpl.n	8005034 <HAL_UART_IRQHandler+0x48>
 8005028:	05cb      	lsls	r3, r1, #23
 800502a:	bf42      	ittt	mi
 800502c:	6c23      	ldrmi	r3, [r4, #64]	; 0x40
 800502e:	f043 0301 	orrmi.w	r3, r3, #1
 8005032:	6423      	strmi	r3, [r4, #64]	; 0x40
 8005034:	0755      	lsls	r5, r2, #29
 8005036:	d504      	bpl.n	8005042 <HAL_UART_IRQHandler+0x56>
 8005038:	b118      	cbz	r0, 8005042 <HAL_UART_IRQHandler+0x56>
 800503a:	6c23      	ldr	r3, [r4, #64]	; 0x40
 800503c:	f043 0302 	orr.w	r3, r3, #2
 8005040:	6423      	str	r3, [r4, #64]	; 0x40
 8005042:	0793      	lsls	r3, r2, #30
 8005044:	d504      	bpl.n	8005050 <HAL_UART_IRQHandler+0x64>
 8005046:	b118      	cbz	r0, 8005050 <HAL_UART_IRQHandler+0x64>
 8005048:	6c23      	ldr	r3, [r4, #64]	; 0x40
 800504a:	f043 0304 	orr.w	r3, r3, #4
 800504e:	6423      	str	r3, [r4, #64]	; 0x40
 8005050:	0715      	lsls	r5, r2, #28
 8005052:	d507      	bpl.n	8005064 <HAL_UART_IRQHandler+0x78>
 8005054:	f001 0320 	and.w	r3, r1, #32
 8005058:	4303      	orrs	r3, r0
 800505a:	bf1e      	ittt	ne
 800505c:	6c23      	ldrne	r3, [r4, #64]	; 0x40
 800505e:	f043 0308 	orrne.w	r3, r3, #8
 8005062:	6423      	strne	r3, [r4, #64]	; 0x40
 8005064:	6c23      	ldr	r3, [r4, #64]	; 0x40
 8005066:	2b00      	cmp	r3, #0
 8005068:	d036      	beq.n	80050d8 <HAL_UART_IRQHandler+0xec>
 800506a:	0690      	lsls	r0, r2, #26
 800506c:	d508      	bpl.n	8005080 <HAL_UART_IRQHandler+0x94>
 800506e:	068a      	lsls	r2, r1, #26
 8005070:	d506      	bpl.n	8005080 <HAL_UART_IRQHandler+0x94>
 8005072:	f894 303e 	ldrb.w	r3, [r4, #62]	; 0x3e
 8005076:	2b22      	cmp	r3, #34	; 0x22
 8005078:	d102      	bne.n	8005080 <HAL_UART_IRQHandler+0x94>
 800507a:	4620      	mov	r0, r4
 800507c:	f7ff ff60 	bl	8004f40 <UART_Receive_IT.part.0.isra.0>
 8005080:	6823      	ldr	r3, [r4, #0]
 8005082:	695b      	ldr	r3, [r3, #20]
 8005084:	6c25      	ldr	r5, [r4, #64]	; 0x40
 8005086:	f003 0340 	and.w	r3, r3, #64	; 0x40
 800508a:	f005 0508 	and.w	r5, r5, #8
 800508e:	431d      	orrs	r5, r3
 8005090:	4620      	mov	r0, r4
 8005092:	d023      	beq.n	80050dc <HAL_UART_IRQHandler+0xf0>
 8005094:	f7ff fe04 	bl	8004ca0 <UART_EndRxTransfer>
 8005098:	6822      	ldr	r2, [r4, #0]
 800509a:	6953      	ldr	r3, [r2, #20]
 800509c:	065b      	lsls	r3, r3, #25
 800509e:	d518      	bpl.n	80050d2 <HAL_UART_IRQHandler+0xe6>
 80050a0:	f102 0314 	add.w	r3, r2, #20
 80050a4:	e853 3f00 	ldrex	r3, [r3]
 80050a8:	f023 0340 	bic.w	r3, r3, #64	; 0x40
 80050ac:	f102 0014 	add.w	r0, r2, #20
 80050b0:	e840 3100 	strex	r1, r3, [r0]
 80050b4:	2900      	cmp	r1, #0
 80050b6:	d1f3      	bne.n	80050a0 <HAL_UART_IRQHandler+0xb4>
 80050b8:	6ba0      	ldr	r0, [r4, #56]	; 0x38
 80050ba:	b150      	cbz	r0, 80050d2 <HAL_UART_IRQHandler+0xe6>
 80050bc:	4b72      	ldr	r3, [pc, #456]	; (8005288 <HAL_UART_IRQHandler+0x29c>)
 80050be:	6503      	str	r3, [r0, #80]	; 0x50
 80050c0:	f7fd ffce 	bl	8003060 <HAL_DMA_Abort_IT>
 80050c4:	b140      	cbz	r0, 80050d8 <HAL_UART_IRQHandler+0xec>
 80050c6:	6ba0      	ldr	r0, [r4, #56]	; 0x38
 80050c8:	6d03      	ldr	r3, [r0, #80]	; 0x50
 80050ca:	b003      	add	sp, #12
 80050cc:	e8bd 4030 	ldmia.w	sp!, {r4, r5, lr}
 80050d0:	4718      	bx	r3
 80050d2:	4620      	mov	r0, r4
 80050d4:	f7ff ff2a 	bl	8004f2c <HAL_UART_ErrorCallback>
 80050d8:	b003      	add	sp, #12
 80050da:	bd30      	pop	{r4, r5, pc}
 80050dc:	f7ff ff26 	bl	8004f2c <HAL_UART_ErrorCallback>
 80050e0:	6425      	str	r5, [r4, #64]	; 0x40
 80050e2:	e7f9      	b.n	80050d8 <HAL_UART_IRQHandler+0xec>
 80050e4:	6b20      	ldr	r0, [r4, #48]	; 0x30
 80050e6:	2801      	cmp	r0, #1
 80050e8:	f040 8091 	bne.w	800520e <HAL_UART_IRQHandler+0x222>
 80050ec:	06d5      	lsls	r5, r2, #27
 80050ee:	f140 808e 	bpl.w	800520e <HAL_UART_IRQHandler+0x222>
 80050f2:	06c8      	lsls	r0, r1, #27
 80050f4:	f140 808b 	bpl.w	800520e <HAL_UART_IRQHandler+0x222>
 80050f8:	2200      	movs	r2, #0
 80050fa:	9201      	str	r2, [sp, #4]
 80050fc:	681a      	ldr	r2, [r3, #0]
 80050fe:	9201      	str	r2, [sp, #4]
 8005100:	685a      	ldr	r2, [r3, #4]
 8005102:	9201      	str	r2, [sp, #4]
 8005104:	9a01      	ldr	r2, [sp, #4]
 8005106:	695a      	ldr	r2, [r3, #20]
 8005108:	0655      	lsls	r5, r2, #25
 800510a:	d54c      	bpl.n	80051a6 <HAL_UART_IRQHandler+0x1ba>
 800510c:	6ba1      	ldr	r1, [r4, #56]	; 0x38
 800510e:	680a      	ldr	r2, [r1, #0]
 8005110:	6852      	ldr	r2, [r2, #4]
 8005112:	b292      	uxth	r2, r2
 8005114:	2a00      	cmp	r2, #0
 8005116:	d0df      	beq.n	80050d8 <HAL_UART_IRQHandler+0xec>
 8005118:	8da0      	ldrh	r0, [r4, #44]	; 0x2c
 800511a:	4290      	cmp	r0, r2
 800511c:	d9dc      	bls.n	80050d8 <HAL_UART_IRQHandler+0xec>
 800511e:	85e2      	strh	r2, [r4, #46]	; 0x2e
 8005120:	69ca      	ldr	r2, [r1, #28]
 8005122:	f5b2 7f80 	cmp.w	r2, #256	; 0x100
 8005126:	d036      	beq.n	8005196 <HAL_UART_IRQHandler+0x1aa>
 8005128:	f103 020c 	add.w	r2, r3, #12
 800512c:	e852 2f00 	ldrex	r2, [r2]
 8005130:	f422 7280 	bic.w	r2, r2, #256	; 0x100
 8005134:	f103 000c 	add.w	r0, r3, #12
 8005138:	e840 2100 	strex	r1, r2, [r0]
 800513c:	2900      	cmp	r1, #0
 800513e:	d1f3      	bne.n	8005128 <HAL_UART_IRQHandler+0x13c>
 8005140:	f103 0214 	add.w	r2, r3, #20
 8005144:	e852 2f00 	ldrex	r2, [r2]
 8005148:	f022 0201 	bic.w	r2, r2, #1
 800514c:	f103 0014 	add.w	r0, r3, #20
 8005150:	e840 2100 	strex	r1, r2, [r0]
 8005154:	2900      	cmp	r1, #0
 8005156:	d1f3      	bne.n	8005140 <HAL_UART_IRQHandler+0x154>
 8005158:	f103 0214 	add.w	r2, r3, #20
 800515c:	e852 2f00 	ldrex	r2, [r2]
 8005160:	f022 0240 	bic.w	r2, r2, #64	; 0x40
 8005164:	f103 0014 	add.w	r0, r3, #20
 8005168:	e840 2100 	strex	r1, r2, [r0]
 800516c:	2900      	cmp	r1, #0
 800516e:	d1f3      	bne.n	8005158 <HAL_UART_IRQHandler+0x16c>
 8005170:	2220      	movs	r2, #32
 8005172:	f884 203e 	strb.w	r2, [r4, #62]	; 0x3e
 8005176:	6321      	str	r1, [r4, #48]	; 0x30
 8005178:	f103 020c 	add.w	r2, r3, #12
 800517c:	e852 2f00 	ldrex	r2, [r2]
 8005180:	f022 0210 	bic.w	r2, r2, #16
 8005184:	f103 000c 	add.w	r0, r3, #12
 8005188:	e840 2100 	strex	r1, r2, [r0]
 800518c:	2900      	cmp	r1, #0
 800518e:	d1f3      	bne.n	8005178 <HAL_UART_IRQHandler+0x18c>
 8005190:	6ba0      	ldr	r0, [r4, #56]	; 0x38
 8005192:	f7fd ff21 	bl	8002fd8 <HAL_DMA_Abort>
 8005196:	8de3      	ldrh	r3, [r4, #46]	; 0x2e
 8005198:	8da1      	ldrh	r1, [r4, #44]	; 0x2c
 800519a:	1ac9      	subs	r1, r1, r3
 800519c:	b289      	uxth	r1, r1
 800519e:	4620      	mov	r0, r4
 80051a0:	f7ff fecd 	bl	8004f3e <HAL_UARTEx_RxEventCallback>
 80051a4:	e798      	b.n	80050d8 <HAL_UART_IRQHandler+0xec>
 80051a6:	8de1      	ldrh	r1, [r4, #46]	; 0x2e
 80051a8:	b28a      	uxth	r2, r1
 80051aa:	8de1      	ldrh	r1, [r4, #46]	; 0x2e
 80051ac:	b289      	uxth	r1, r1
 80051ae:	2900      	cmp	r1, #0
 80051b0:	d092      	beq.n	80050d8 <HAL_UART_IRQHandler+0xec>
 80051b2:	8da1      	ldrh	r1, [r4, #44]	; 0x2c
 80051b4:	1a89      	subs	r1, r1, r2
 80051b6:	b289      	uxth	r1, r1
 80051b8:	2900      	cmp	r1, #0
 80051ba:	d08d      	beq.n	80050d8 <HAL_UART_IRQHandler+0xec>
 80051bc:	f103 020c 	add.w	r2, r3, #12
 80051c0:	e852 2f00 	ldrex	r2, [r2]
 80051c4:	f422 7290 	bic.w	r2, r2, #288	; 0x120
 80051c8:	f103 050c 	add.w	r5, r3, #12
 80051cc:	e845 2000 	strex	r0, r2, [r5]
 80051d0:	2800      	cmp	r0, #0
 80051d2:	d1f3      	bne.n	80051bc <HAL_UART_IRQHandler+0x1d0>
 80051d4:	f103 0214 	add.w	r2, r3, #20
 80051d8:	e852 2f00 	ldrex	r2, [r2]
 80051dc:	f022 0201 	bic.w	r2, r2, #1
 80051e0:	f103 0514 	add.w	r5, r3, #20
 80051e4:	e845 2000 	strex	r0, r2, [r5]
 80051e8:	2800      	cmp	r0, #0
 80051ea:	d1f3      	bne.n	80051d4 <HAL_UART_IRQHandler+0x1e8>
 80051ec:	2220      	movs	r2, #32
 80051ee:	f884 203e 	strb.w	r2, [r4, #62]	; 0x3e
 80051f2:	6320      	str	r0, [r4, #48]	; 0x30
 80051f4:	f103 020c 	add.w	r2, r3, #12
 80051f8:	e852 2f00 	ldrex	r2, [r2]
 80051fc:	f022 0210 	bic.w	r2, r2, #16
 8005200:	f103 050c 	add.w	r5, r3, #12
 8005204:	e845 2000 	strex	r0, r2, [r5]
 8005208:	2800      	cmp	r0, #0
 800520a:	d1f3      	bne.n	80051f4 <HAL_UART_IRQHandler+0x208>
 800520c:	e7c7      	b.n	800519e <HAL_UART_IRQHandler+0x1b2>
 800520e:	0610      	lsls	r0, r2, #24
 8005210:	d528      	bpl.n	8005264 <HAL_UART_IRQHandler+0x278>
 8005212:	060d      	lsls	r5, r1, #24
 8005214:	d526      	bpl.n	8005264 <HAL_UART_IRQHandler+0x278>
 8005216:	f894 203d 	ldrb.w	r2, [r4, #61]	; 0x3d
 800521a:	2a21      	cmp	r2, #33	; 0x21
 800521c:	f47f af5c 	bne.w	80050d8 <HAL_UART_IRQHandler+0xec>
 8005220:	68a1      	ldr	r1, [r4, #8]
 8005222:	6a22      	ldr	r2, [r4, #32]
 8005224:	f5b1 5f80 	cmp.w	r1, #4096	; 0x1000
 8005228:	d117      	bne.n	800525a <HAL_UART_IRQHandler+0x26e>
 800522a:	6921      	ldr	r1, [r4, #16]
 800522c:	b9a9      	cbnz	r1, 800525a <HAL_UART_IRQHandler+0x26e>
 800522e:	f832 1b02 	ldrh.w	r1, [r2], #2
 8005232:	f3c1 0108 	ubfx	r1, r1, #0, #9
 8005236:	6059      	str	r1, [r3, #4]
 8005238:	6222      	str	r2, [r4, #32]
 800523a:	8ce2      	ldrh	r2, [r4, #38]	; 0x26
 800523c:	3a01      	subs	r2, #1
 800523e:	b292      	uxth	r2, r2
 8005240:	84e2      	strh	r2, [r4, #38]	; 0x26
 8005242:	2a00      	cmp	r2, #0
 8005244:	f47f af48 	bne.w	80050d8 <HAL_UART_IRQHandler+0xec>
 8005248:	68da      	ldr	r2, [r3, #12]
 800524a:	f022 0280 	bic.w	r2, r2, #128	; 0x80
 800524e:	60da      	str	r2, [r3, #12]
 8005250:	68da      	ldr	r2, [r3, #12]
 8005252:	f042 0240 	orr.w	r2, r2, #64	; 0x40
 8005256:	60da      	str	r2, [r3, #12]
 8005258:	e73e      	b.n	80050d8 <HAL_UART_IRQHandler+0xec>
 800525a:	1c51      	adds	r1, r2, #1
 800525c:	6221      	str	r1, [r4, #32]
 800525e:	7812      	ldrb	r2, [r2, #0]
 8005260:	605a      	str	r2, [r3, #4]
 8005262:	e7ea      	b.n	800523a <HAL_UART_IRQHandler+0x24e>
 8005264:	0650      	lsls	r0, r2, #25
 8005266:	f57f af37 	bpl.w	80050d8 <HAL_UART_IRQHandler+0xec>
 800526a:	064a      	lsls	r2, r1, #25
 800526c:	f57f af34 	bpl.w	80050d8 <HAL_UART_IRQHandler+0xec>
 8005270:	68da      	ldr	r2, [r3, #12]
 8005272:	f022 0240 	bic.w	r2, r2, #64	; 0x40
 8005276:	60da      	str	r2, [r3, #12]
 8005278:	2320      	movs	r3, #32
 800527a:	f884 303d 	strb.w	r3, [r4, #61]	; 0x3d
 800527e:	4620      	mov	r0, r4
 8005280:	f7ff fe53 	bl	8004f2a <HAL_UART_TxCpltCallback>
 8005284:	e728      	b.n	80050d8 <HAL_UART_IRQHandler+0xec>
 8005286:	bf00      	nop
 8005288:	08004f2f 	.word	0x08004f2f

0800528c <UART_Start_Receive_IT>:
 800528c:	85c2      	strh	r2, [r0, #46]	; 0x2e
 800528e:	2300      	movs	r3, #0
 8005290:	8582      	strh	r2, [r0, #44]	; 0x2c
 8005292:	2222      	movs	r2, #34	; 0x22
 8005294:	6403      	str	r3, [r0, #64]	; 0x40
 8005296:	f880 203e 	strb.w	r2, [r0, #62]	; 0x3e
 800529a:	6902      	ldr	r2, [r0, #16]
 800529c:	f880 303c 	strb.w	r3, [r0, #60]	; 0x3c
 80052a0:	6281      	str	r1, [r0, #40]	; 0x28
 80052a2:	6803      	ldr	r3, [r0, #0]
 80052a4:	b11a      	cbz	r2, 80052ae <UART_Start_Receive_IT+0x22>
 80052a6:	68da      	ldr	r2, [r3, #12]
 80052a8:	f442 7280 	orr.w	r2, r2, #256	; 0x100
 80052ac:	60da      	str	r2, [r3, #12]
 80052ae:	695a      	ldr	r2, [r3, #20]
 80052b0:	f042 0201 	orr.w	r2, r2, #1
 80052b4:	615a      	str	r2, [r3, #20]
 80052b6:	68da      	ldr	r2, [r3, #12]
 80052b8:	f042 0220 	orr.w	r2, r2, #32
 80052bc:	60da      	str	r2, [r3, #12]
 80052be:	2000      	movs	r0, #0
 80052c0:	4770      	bx	lr

080052c2 <HAL_UART_Receive_IT>:
 80052c2:	b470      	push	{r4, r5, r6}
 80052c4:	f890 603e 	ldrb.w	r6, [r0, #62]	; 0x3e
 80052c8:	2e20      	cmp	r6, #32
 80052ca:	d110      	bne.n	80052ee <HAL_UART_Receive_IT+0x2c>
 80052cc:	b161      	cbz	r1, 80052e8 <HAL_UART_Receive_IT+0x26>
 80052ce:	b15a      	cbz	r2, 80052e8 <HAL_UART_Receive_IT+0x26>
 80052d0:	f890 403c 	ldrb.w	r4, [r0, #60]	; 0x3c
 80052d4:	2c01      	cmp	r4, #1
 80052d6:	d00a      	beq.n	80052ee <HAL_UART_Receive_IT+0x2c>
 80052d8:	2401      	movs	r4, #1
 80052da:	f880 403c 	strb.w	r4, [r0, #60]	; 0x3c
 80052de:	2400      	movs	r4, #0
 80052e0:	6304      	str	r4, [r0, #48]	; 0x30
 80052e2:	bc70      	pop	{r4, r5, r6}
 80052e4:	f7ff bfd2 	b.w	800528c <UART_Start_Receive_IT>
 80052e8:	2001      	movs	r0, #1
 80052ea:	bc70      	pop	{r4, r5, r6}
 80052ec:	4770      	bx	lr
 80052ee:	2002      	movs	r0, #2
 80052f0:	e7fb      	b.n	80052ea <HAL_UART_Receive_IT+0x28>
	...

080052f4 <osKernelInitialize>:
 80052f4:	f3ef 8305 	mrs	r3, IPSR
 80052f8:	b92b      	cbnz	r3, 8005306 <osKernelInitialize+0x12>
 80052fa:	4b06      	ldr	r3, [pc, #24]	; (8005314 <osKernelInitialize+0x20>)
 80052fc:	6818      	ldr	r0, [r3, #0]
 80052fe:	b928      	cbnz	r0, 800530c <osKernelInitialize+0x18>
 8005300:	2201      	movs	r2, #1
 8005302:	601a      	str	r2, [r3, #0]
 8005304:	4770      	bx	lr
 8005306:	f06f 0005 	mvn.w	r0, #5
 800530a:	4770      	bx	lr
 800530c:	f04f 30ff 	mov.w	r0, #4294967295
 8005310:	4770      	bx	lr
 8005312:	bf00      	nop
 8005314:	20000c78 	.word	0x20000c78

08005318 <osKernelStart>:
 8005318:	b510      	push	{r4, lr}
 800531a:	f3ef 8405 	mrs	r4, IPSR
 800531e:	b95c      	cbnz	r4, 8005338 <osKernelStart+0x20>
 8005320:	4b08      	ldr	r3, [pc, #32]	; (8005344 <osKernelStart+0x2c>)
 8005322:	681a      	ldr	r2, [r3, #0]
 8005324:	2a01      	cmp	r2, #1
 8005326:	d10a      	bne.n	800533e <osKernelStart+0x26>
 8005328:	4a07      	ldr	r2, [pc, #28]	; (8005348 <osKernelStart+0x30>)
 800532a:	77d4      	strb	r4, [r2, #31]
 800532c:	2202      	movs	r2, #2
 800532e:	601a      	str	r2, [r3, #0]
 8005330:	f000 fd9e 	bl	8005e70 <vTaskStartScheduler>
 8005334:	4620      	mov	r0, r4
 8005336:	bd10      	pop	{r4, pc}
 8005338:	f06f 0005 	mvn.w	r0, #5
 800533c:	e7fb      	b.n	8005336 <osKernelStart+0x1e>
 800533e:	f04f 30ff 	mov.w	r0, #4294967295
 8005342:	e7f8      	b.n	8005336 <osKernelStart+0x1e>
 8005344:	20000c78 	.word	0x20000c78
 8005348:	e000ed00 	.word	0xe000ed00

0800534c <osThreadNew>:
 800534c:	b5f0      	push	{r4, r5, r6, r7, lr}
 800534e:	b087      	sub	sp, #28
 8005350:	4614      	mov	r4, r2
 8005352:	2200      	movs	r2, #0
 8005354:	460b      	mov	r3, r1
 8005356:	9205      	str	r2, [sp, #20]
 8005358:	f3ef 8205 	mrs	r2, IPSR
 800535c:	b9d2      	cbnz	r2, 8005394 <osThreadNew+0x48>
 800535e:	b1c8      	cbz	r0, 8005394 <osThreadNew+0x48>
 8005360:	2c00      	cmp	r4, #0
 8005362:	d02f      	beq.n	80053c4 <osThreadNew+0x78>
 8005364:	69a5      	ldr	r5, [r4, #24]
 8005366:	2d00      	cmp	r5, #0
 8005368:	bf08      	it	eq
 800536a:	2518      	moveq	r5, #24
 800536c:	1e69      	subs	r1, r5, #1
 800536e:	2937      	cmp	r1, #55	; 0x37
 8005370:	46ac      	mov	ip, r5
 8005372:	d82b      	bhi.n	80053cc <osThreadNew+0x80>
 8005374:	6861      	ldr	r1, [r4, #4]
 8005376:	07c9      	lsls	r1, r1, #31
 8005378:	d428      	bmi.n	80053cc <osThreadNew+0x80>
 800537a:	6966      	ldr	r6, [r4, #20]
 800537c:	b16e      	cbz	r6, 800539a <osThreadNew+0x4e>
 800537e:	08b2      	lsrs	r2, r6, #2
 8005380:	e9d4 7e02 	ldrd	r7, lr, [r4, #8]
 8005384:	6821      	ldr	r1, [r4, #0]
 8005386:	b157      	cbz	r7, 800539e <osThreadNew+0x52>
 8005388:	f1be 0f5b 	cmp.w	lr, #91	; 0x5b
 800538c:	d902      	bls.n	8005394 <osThreadNew+0x48>
 800538e:	6924      	ldr	r4, [r4, #16]
 8005390:	b104      	cbz	r4, 8005394 <osThreadNew+0x48>
 8005392:	b9ee      	cbnz	r6, 80053d0 <osThreadNew+0x84>
 8005394:	9805      	ldr	r0, [sp, #20]
 8005396:	b007      	add	sp, #28
 8005398:	bdf0      	pop	{r4, r5, r6, r7, pc}
 800539a:	2280      	movs	r2, #128	; 0x80
 800539c:	e7f0      	b.n	8005380 <osThreadNew+0x34>
 800539e:	f1be 0f00 	cmp.w	lr, #0
 80053a2:	d1f7      	bne.n	8005394 <osThreadNew+0x48>
 80053a4:	6924      	ldr	r4, [r4, #16]
 80053a6:	2c00      	cmp	r4, #0
 80053a8:	d1f4      	bne.n	8005394 <osThreadNew+0x48>
 80053aa:	460c      	mov	r4, r1
 80053ac:	a905      	add	r1, sp, #20
 80053ae:	e9cd c100 	strd	ip, r1, [sp]
 80053b2:	b292      	uxth	r2, r2
 80053b4:	4621      	mov	r1, r4
 80053b6:	f000 fd2e 	bl	8005e16 <xTaskCreate>
 80053ba:	2801      	cmp	r0, #1
 80053bc:	bf1c      	itt	ne
 80053be:	2300      	movne	r3, #0
 80053c0:	9305      	strne	r3, [sp, #20]
 80053c2:	e7e7      	b.n	8005394 <osThreadNew+0x48>
 80053c4:	f04f 0c18 	mov.w	ip, #24
 80053c8:	2280      	movs	r2, #128	; 0x80
 80053ca:	e7ef      	b.n	80053ac <osThreadNew+0x60>
 80053cc:	4610      	mov	r0, r2
 80053ce:	e7e2      	b.n	8005396 <osThreadNew+0x4a>
 80053d0:	e9cd 4701 	strd	r4, r7, [sp, #4]
 80053d4:	9500      	str	r5, [sp, #0]
 80053d6:	f000 fce6 	bl	8005da6 <xTaskCreateStatic>
 80053da:	9005      	str	r0, [sp, #20]
 80053dc:	e7da      	b.n	8005394 <osThreadNew+0x48>

080053de <osDelay>:
 80053de:	b510      	push	{r4, lr}
 80053e0:	f3ef 8405 	mrs	r4, IPSR
 80053e4:	b924      	cbnz	r4, 80053f0 <osDelay+0x12>
 80053e6:	b110      	cbz	r0, 80053ee <osDelay+0x10>
 80053e8:	f000 fee8 	bl	80061bc <vTaskDelay>
 80053ec:	4620      	mov	r0, r4
 80053ee:	bd10      	pop	{r4, pc}
 80053f0:	f06f 0005 	mvn.w	r0, #5
 80053f4:	e7fb      	b.n	80053ee <osDelay+0x10>

080053f6 <osDelayUntil>:
 80053f6:	b537      	push	{r0, r1, r2, r4, r5, lr}
 80053f8:	4605      	mov	r5, r0
 80053fa:	f3ef 8405 	mrs	r4, IPSR
 80053fe:	b95c      	cbnz	r4, 8005418 <osDelayUntil+0x22>
 8005400:	f000 fd84 	bl	8005f0c <xTaskGetTickCount>
 8005404:	1a29      	subs	r1, r5, r0
 8005406:	2900      	cmp	r1, #0
 8005408:	9001      	str	r0, [sp, #4]
 800540a:	dd08      	ble.n	800541e <osDelayUntil+0x28>
 800540c:	a801      	add	r0, sp, #4
 800540e:	f000 fe8d 	bl	800612c <vTaskDelayUntil>
 8005412:	4620      	mov	r0, r4
 8005414:	b003      	add	sp, #12
 8005416:	bd30      	pop	{r4, r5, pc}
 8005418:	f06f 0005 	mvn.w	r0, #5
 800541c:	e7fa      	b.n	8005414 <osDelayUntil+0x1e>
 800541e:	f06f 0003 	mvn.w	r0, #3
 8005422:	e7f7      	b.n	8005414 <osDelayUntil+0x1e>

08005424 <vApplicationGetIdleTaskMemory>:
 8005424:	4b03      	ldr	r3, [pc, #12]	; (8005434 <vApplicationGetIdleTaskMemory+0x10>)
 8005426:	6003      	str	r3, [r0, #0]
 8005428:	4b03      	ldr	r3, [pc, #12]	; (8005438 <vApplicationGetIdleTaskMemory+0x14>)
 800542a:	600b      	str	r3, [r1, #0]
 800542c:	2380      	movs	r3, #128	; 0x80
 800542e:	6013      	str	r3, [r2, #0]
 8005430:	4770      	bx	lr
 8005432:	bf00      	nop
 8005434:	20000c1c 	.word	0x20000c1c
 8005438:	20000a1c 	.word	0x20000a1c

0800543c <vApplicationGetTimerTaskMemory>:
 800543c:	4b03      	ldr	r3, [pc, #12]	; (800544c <vApplicationGetTimerTaskMemory+0x10>)
 800543e:	6003      	str	r3, [r0, #0]
 8005440:	4b03      	ldr	r3, [pc, #12]	; (8005450 <vApplicationGetTimerTaskMemory+0x14>)
 8005442:	600b      	str	r3, [r1, #0]
 8005444:	f44f 7380 	mov.w	r3, #256	; 0x100
 8005448:	6013      	str	r3, [r2, #0]
 800544a:	4770      	bx	lr
 800544c:	2000107c 	.word	0x2000107c
 8005450:	20000c7c 	.word	0x20000c7c

08005454 <vListInitialise>:
 8005454:	f100 0308 	add.w	r3, r0, #8
 8005458:	f04f 32ff 	mov.w	r2, #4294967295
 800545c:	e9c0 2302 	strd	r2, r3, [r0, #8]
 8005460:	6043      	str	r3, [r0, #4]
 8005462:	6103      	str	r3, [r0, #16]
 8005464:	2300      	movs	r3, #0
 8005466:	6003      	str	r3, [r0, #0]
 8005468:	4770      	bx	lr

0800546a <vListInitialiseItem>:
 800546a:	2300      	movs	r3, #0
 800546c:	6103      	str	r3, [r0, #16]
 800546e:	4770      	bx	lr

08005470 <vListInsertEnd>:
 8005470:	6843      	ldr	r3, [r0, #4]
 8005472:	604b      	str	r3, [r1, #4]
 8005474:	689a      	ldr	r2, [r3, #8]
 8005476:	608a      	str	r2, [r1, #8]
 8005478:	689a      	ldr	r2, [r3, #8]
 800547a:	6051      	str	r1, [r2, #4]
 800547c:	6099      	str	r1, [r3, #8]
 800547e:	6803      	ldr	r3, [r0, #0]
 8005480:	6108      	str	r0, [r1, #16]
 8005482:	3301      	adds	r3, #1
 8005484:	6003      	str	r3, [r0, #0]
 8005486:	4770      	bx	lr

08005488 <vListInsert>:
 8005488:	b530      	push	{r4, r5, lr}
 800548a:	680c      	ldr	r4, [r1, #0]
 800548c:	1c63      	adds	r3, r4, #1
 800548e:	d10a      	bne.n	80054a6 <vListInsert+0x1e>
 8005490:	6903      	ldr	r3, [r0, #16]
 8005492:	685a      	ldr	r2, [r3, #4]
 8005494:	604a      	str	r2, [r1, #4]
 8005496:	6091      	str	r1, [r2, #8]
 8005498:	608b      	str	r3, [r1, #8]
 800549a:	6059      	str	r1, [r3, #4]
 800549c:	6803      	ldr	r3, [r0, #0]
 800549e:	6108      	str	r0, [r1, #16]
 80054a0:	3301      	adds	r3, #1
 80054a2:	6003      	str	r3, [r0, #0]
 80054a4:	bd30      	pop	{r4, r5, pc}
 80054a6:	f100 0208 	add.w	r2, r0, #8
 80054aa:	4613      	mov	r3, r2
 80054ac:	6852      	ldr	r2, [r2, #4]
 80054ae:	6815      	ldr	r5, [r2, #0]
 80054b0:	42a5      	cmp	r5, r4
 80054b2:	d9fa      	bls.n	80054aa <vListInsert+0x22>
 80054b4:	e7ed      	b.n	8005492 <vListInsert+0xa>

080054b6 <uxListRemove>:
 80054b6:	e9d0 1201 	ldrd	r1, r2, [r0, #4]
 80054ba:	6903      	ldr	r3, [r0, #16]
 80054bc:	608a      	str	r2, [r1, #8]
 80054be:	6051      	str	r1, [r2, #4]
 80054c0:	6859      	ldr	r1, [r3, #4]
 80054c2:	4281      	cmp	r1, r0
 80054c4:	bf08      	it	eq
 80054c6:	605a      	streq	r2, [r3, #4]
 80054c8:	2200      	movs	r2, #0
 80054ca:	6102      	str	r2, [r0, #16]
 80054cc:	681a      	ldr	r2, [r3, #0]
 80054ce:	3a01      	subs	r2, #1
 80054d0:	601a      	str	r2, [r3, #0]
 80054d2:	6818      	ldr	r0, [r3, #0]
 80054d4:	4770      	bx	lr

080054d6 <prvIsQueueEmpty>:
 80054d6:	b510      	push	{r4, lr}
 80054d8:	4604      	mov	r4, r0
 80054da:	f001 fa43 	bl	8006964 <vPortEnterCritical>
 80054de:	6ba4      	ldr	r4, [r4, #56]	; 0x38
 80054e0:	f001 fa60 	bl	80069a4 <vPortExitCritical>
 80054e4:	fab4 f084 	clz	r0, r4
 80054e8:	0940      	lsrs	r0, r0, #5
 80054ea:	bd10      	pop	{r4, pc}

080054ec <prvCopyDataToQueue>:
 80054ec:	b5f8      	push	{r3, r4, r5, r6, r7, lr}
 80054ee:	4615      	mov	r5, r2
 80054f0:	6c02      	ldr	r2, [r0, #64]	; 0x40
 80054f2:	6b86      	ldr	r6, [r0, #56]	; 0x38
 80054f4:	4604      	mov	r4, r0
 80054f6:	b952      	cbnz	r2, 800550e <prvCopyDataToQueue+0x22>
 80054f8:	6807      	ldr	r7, [r0, #0]
 80054fa:	bb47      	cbnz	r7, 800554e <prvCopyDataToQueue+0x62>
 80054fc:	6880      	ldr	r0, [r0, #8]
 80054fe:	f000 ff95 	bl	800642c <xTaskPriorityDisinherit>
 8005502:	60a7      	str	r7, [r4, #8]
 8005504:	4605      	mov	r5, r0
 8005506:	3601      	adds	r6, #1
 8005508:	63a6      	str	r6, [r4, #56]	; 0x38
 800550a:	4628      	mov	r0, r5
 800550c:	bdf8      	pop	{r3, r4, r5, r6, r7, pc}
 800550e:	b965      	cbnz	r5, 800552a <prvCopyDataToQueue+0x3e>
 8005510:	6840      	ldr	r0, [r0, #4]
 8005512:	f001 fc93 	bl	8006e3c <memcpy>
 8005516:	6863      	ldr	r3, [r4, #4]
 8005518:	6c22      	ldr	r2, [r4, #64]	; 0x40
 800551a:	4413      	add	r3, r2
 800551c:	68a2      	ldr	r2, [r4, #8]
 800551e:	6063      	str	r3, [r4, #4]
 8005520:	4293      	cmp	r3, r2
 8005522:	d3f0      	bcc.n	8005506 <prvCopyDataToQueue+0x1a>
 8005524:	6823      	ldr	r3, [r4, #0]
 8005526:	6063      	str	r3, [r4, #4]
 8005528:	e7ed      	b.n	8005506 <prvCopyDataToQueue+0x1a>
 800552a:	68c0      	ldr	r0, [r0, #12]
 800552c:	f001 fc86 	bl	8006e3c <memcpy>
 8005530:	6c22      	ldr	r2, [r4, #64]	; 0x40
 8005532:	68e3      	ldr	r3, [r4, #12]
 8005534:	4251      	negs	r1, r2
 8005536:	1a9b      	subs	r3, r3, r2
 8005538:	6822      	ldr	r2, [r4, #0]
 800553a:	60e3      	str	r3, [r4, #12]
 800553c:	4293      	cmp	r3, r2
 800553e:	bf3e      	ittt	cc
 8005540:	68a3      	ldrcc	r3, [r4, #8]
 8005542:	185b      	addcc	r3, r3, r1
 8005544:	60e3      	strcc	r3, [r4, #12]
 8005546:	2d02      	cmp	r5, #2
 8005548:	d101      	bne.n	800554e <prvCopyDataToQueue+0x62>
 800554a:	b116      	cbz	r6, 8005552 <prvCopyDataToQueue+0x66>
 800554c:	3e01      	subs	r6, #1
 800554e:	2500      	movs	r5, #0
 8005550:	e7d9      	b.n	8005506 <prvCopyDataToQueue+0x1a>
 8005552:	4635      	mov	r5, r6
 8005554:	e7d7      	b.n	8005506 <prvCopyDataToQueue+0x1a>

08005556 <prvCopyDataFromQueue>:
 8005556:	4603      	mov	r3, r0
 8005558:	b410      	push	{r4}
 800555a:	6c1a      	ldr	r2, [r3, #64]	; 0x40
 800555c:	4608      	mov	r0, r1
 800555e:	b16a      	cbz	r2, 800557c <prvCopyDataFromQueue+0x26>
 8005560:	68dc      	ldr	r4, [r3, #12]
 8005562:	6899      	ldr	r1, [r3, #8]
 8005564:	4414      	add	r4, r2
 8005566:	428c      	cmp	r4, r1
 8005568:	bf28      	it	cs
 800556a:	6819      	ldrcs	r1, [r3, #0]
 800556c:	60dc      	str	r4, [r3, #12]
 800556e:	bf28      	it	cs
 8005570:	60d9      	strcs	r1, [r3, #12]
 8005572:	68d9      	ldr	r1, [r3, #12]
 8005574:	f85d 4b04 	ldr.w	r4, [sp], #4
 8005578:	f001 bc60 	b.w	8006e3c <memcpy>
 800557c:	f85d 4b04 	ldr.w	r4, [sp], #4
 8005580:	4770      	bx	lr

08005582 <prvUnlockQueue>:
 8005582:	b570      	push	{r4, r5, r6, lr}
 8005584:	4604      	mov	r4, r0
 8005586:	f001 f9ed 	bl	8006964 <vPortEnterCritical>
 800558a:	f894 5045 	ldrb.w	r5, [r4, #69]	; 0x45
 800558e:	f104 0624 	add.w	r6, r4, #36	; 0x24
 8005592:	b26d      	sxtb	r5, r5
 8005594:	2d00      	cmp	r5, #0
 8005596:	dc14      	bgt.n	80055c2 <prvUnlockQueue+0x40>
 8005598:	23ff      	movs	r3, #255	; 0xff
 800559a:	f884 3045 	strb.w	r3, [r4, #69]	; 0x45
 800559e:	f001 fa01 	bl	80069a4 <vPortExitCritical>
 80055a2:	f001 f9df 	bl	8006964 <vPortEnterCritical>
 80055a6:	f894 5044 	ldrb.w	r5, [r4, #68]	; 0x44
 80055aa:	f104 0610 	add.w	r6, r4, #16
 80055ae:	b26d      	sxtb	r5, r5
 80055b0:	2d00      	cmp	r5, #0
 80055b2:	dc12      	bgt.n	80055da <prvUnlockQueue+0x58>
 80055b4:	23ff      	movs	r3, #255	; 0xff
 80055b6:	f884 3044 	strb.w	r3, [r4, #68]	; 0x44
 80055ba:	e8bd 4070 	ldmia.w	sp!, {r4, r5, r6, lr}
 80055be:	f001 b9f1 	b.w	80069a4 <vPortExitCritical>
 80055c2:	6a63      	ldr	r3, [r4, #36]	; 0x24
 80055c4:	2b00      	cmp	r3, #0
 80055c6:	d0e7      	beq.n	8005598 <prvUnlockQueue+0x16>
 80055c8:	4630      	mov	r0, r6
 80055ca:	f000 fe8d 	bl	80062e8 <xTaskRemoveFromEventList>
 80055ce:	b108      	cbz	r0, 80055d4 <prvUnlockQueue+0x52>
 80055d0:	f000 ff16 	bl	8006400 <vTaskMissedYield>
 80055d4:	3d01      	subs	r5, #1
 80055d6:	b26d      	sxtb	r5, r5
 80055d8:	e7dc      	b.n	8005594 <prvUnlockQueue+0x12>
 80055da:	6923      	ldr	r3, [r4, #16]
 80055dc:	2b00      	cmp	r3, #0
 80055de:	d0e9      	beq.n	80055b4 <prvUnlockQueue+0x32>
 80055e0:	4630      	mov	r0, r6
 80055e2:	f000 fe81 	bl	80062e8 <xTaskRemoveFromEventList>
 80055e6:	b108      	cbz	r0, 80055ec <prvUnlockQueue+0x6a>
 80055e8:	f000 ff0a 	bl	8006400 <vTaskMissedYield>
 80055ec:	3d01      	subs	r5, #1
 80055ee:	b26d      	sxtb	r5, r5
 80055f0:	e7de      	b.n	80055b0 <prvUnlockQueue+0x2e>

080055f2 <xQueueGenericReset>:
 80055f2:	b538      	push	{r3, r4, r5, lr}
 80055f4:	460d      	mov	r5, r1
 80055f6:	4604      	mov	r4, r0
 80055f8:	b940      	cbnz	r0, 800560c <xQueueGenericReset+0x1a>
 80055fa:	f04f 0350 	mov.w	r3, #80	; 0x50
 80055fe:	f383 8811 	msr	BASEPRI, r3
 8005602:	f3bf 8f6f 	isb	sy
 8005606:	f3bf 8f4f 	dsb	sy
 800560a:	e7fe      	b.n	800560a <xQueueGenericReset+0x18>
 800560c:	f001 f9aa 	bl	8006964 <vPortEnterCritical>
 8005610:	e9d4 310f 	ldrd	r3, r1, [r4, #60]	; 0x3c
 8005614:	6822      	ldr	r2, [r4, #0]
 8005616:	6062      	str	r2, [r4, #4]
 8005618:	434b      	muls	r3, r1
 800561a:	18d0      	adds	r0, r2, r3
 800561c:	1a5b      	subs	r3, r3, r1
 800561e:	4413      	add	r3, r2
 8005620:	60a0      	str	r0, [r4, #8]
 8005622:	60e3      	str	r3, [r4, #12]
 8005624:	2000      	movs	r0, #0
 8005626:	23ff      	movs	r3, #255	; 0xff
 8005628:	63a0      	str	r0, [r4, #56]	; 0x38
 800562a:	f884 3044 	strb.w	r3, [r4, #68]	; 0x44
 800562e:	f884 3045 	strb.w	r3, [r4, #69]	; 0x45
 8005632:	b9a5      	cbnz	r5, 800565e <xQueueGenericReset+0x6c>
 8005634:	6923      	ldr	r3, [r4, #16]
 8005636:	b173      	cbz	r3, 8005656 <xQueueGenericReset+0x64>
 8005638:	f104 0010 	add.w	r0, r4, #16
 800563c:	f000 fe54 	bl	80062e8 <xTaskRemoveFromEventList>
 8005640:	b148      	cbz	r0, 8005656 <xQueueGenericReset+0x64>
 8005642:	f04f 23e0 	mov.w	r3, #3758153728	; 0xe000e000
 8005646:	f04f 5280 	mov.w	r2, #268435456	; 0x10000000
 800564a:	f8c3 2d04 	str.w	r2, [r3, #3332]	; 0xd04
 800564e:	f3bf 8f4f 	dsb	sy
 8005652:	f3bf 8f6f 	isb	sy
 8005656:	f001 f9a5 	bl	80069a4 <vPortExitCritical>
 800565a:	2001      	movs	r0, #1
 800565c:	bd38      	pop	{r3, r4, r5, pc}
 800565e:	f104 0010 	add.w	r0, r4, #16
 8005662:	f7ff fef7 	bl	8005454 <vListInitialise>
 8005666:	f104 0024 	add.w	r0, r4, #36	; 0x24
 800566a:	f7ff fef3 	bl	8005454 <vListInitialise>
 800566e:	e7f2      	b.n	8005656 <xQueueGenericReset+0x64>

08005670 <xQueueGenericCreateStatic>:
 8005670:	b513      	push	{r0, r1, r4, lr}
 8005672:	461c      	mov	r4, r3
 8005674:	b940      	cbnz	r0, 8005688 <xQueueGenericCreateStatic+0x18>
 8005676:	f04f 0350 	mov.w	r3, #80	; 0x50
 800567a:	f383 8811 	msr	BASEPRI, r3
 800567e:	f3bf 8f6f 	isb	sy
 8005682:	f3bf 8f4f 	dsb	sy
 8005686:	e7fe      	b.n	8005686 <xQueueGenericCreateStatic+0x16>
 8005688:	b943      	cbnz	r3, 800569c <xQueueGenericCreateStatic+0x2c>
 800568a:	f04f 0350 	mov.w	r3, #80	; 0x50
 800568e:	f383 8811 	msr	BASEPRI, r3
 8005692:	f3bf 8f6f 	isb	sy
 8005696:	f3bf 8f4f 	dsb	sy
 800569a:	e7fe      	b.n	800569a <xQueueGenericCreateStatic+0x2a>
 800569c:	b14a      	cbz	r2, 80056b2 <xQueueGenericCreateStatic+0x42>
 800569e:	b991      	cbnz	r1, 80056c6 <xQueueGenericCreateStatic+0x56>
 80056a0:	f04f 0350 	mov.w	r3, #80	; 0x50
 80056a4:	f383 8811 	msr	BASEPRI, r3
 80056a8:	f3bf 8f6f 	isb	sy
 80056ac:	f3bf 8f4f 	dsb	sy
 80056b0:	e7fe      	b.n	80056b0 <xQueueGenericCreateStatic+0x40>
 80056b2:	b141      	cbz	r1, 80056c6 <xQueueGenericCreateStatic+0x56>
 80056b4:	f04f 0350 	mov.w	r3, #80	; 0x50
 80056b8:	f383 8811 	msr	BASEPRI, r3
 80056bc:	f3bf 8f6f 	isb	sy
 80056c0:	f3bf 8f4f 	dsb	sy
 80056c4:	e7fe      	b.n	80056c4 <xQueueGenericCreateStatic+0x54>
 80056c6:	2350      	movs	r3, #80	; 0x50
 80056c8:	9301      	str	r3, [sp, #4]
 80056ca:	9b01      	ldr	r3, [sp, #4]
 80056cc:	2b50      	cmp	r3, #80	; 0x50
 80056ce:	d008      	beq.n	80056e2 <xQueueGenericCreateStatic+0x72>
 80056d0:	f04f 0350 	mov.w	r3, #80	; 0x50
 80056d4:	f383 8811 	msr	BASEPRI, r3
 80056d8:	f3bf 8f6f 	isb	sy
 80056dc:	f3bf 8f4f 	dsb	sy
 80056e0:	e7fe      	b.n	80056e0 <xQueueGenericCreateStatic+0x70>
 80056e2:	2900      	cmp	r1, #0
 80056e4:	bf08      	it	eq
 80056e6:	4622      	moveq	r2, r4
 80056e8:	9b01      	ldr	r3, [sp, #4]
 80056ea:	6022      	str	r2, [r4, #0]
 80056ec:	2301      	movs	r3, #1
 80056ee:	e9c4 010f 	strd	r0, r1, [r4, #60]	; 0x3c
 80056f2:	f884 3046 	strb.w	r3, [r4, #70]	; 0x46
 80056f6:	4619      	mov	r1, r3
 80056f8:	4620      	mov	r0, r4
 80056fa:	f7ff ff7a 	bl	80055f2 <xQueueGenericReset>
 80056fe:	f89d 3010 	ldrb.w	r3, [sp, #16]
 8005702:	f884 304c 	strb.w	r3, [r4, #76]	; 0x4c
 8005706:	4620      	mov	r0, r4
 8005708:	b002      	add	sp, #8
 800570a:	bd10      	pop	{r4, pc}

0800570c <xQueueGenericSend>:
 800570c:	e92d 43f0 	stmdb	sp!, {r4, r5, r6, r7, r8, r9, lr}
 8005710:	b085      	sub	sp, #20
 8005712:	4688      	mov	r8, r1
 8005714:	9201      	str	r2, [sp, #4]
 8005716:	461f      	mov	r7, r3
 8005718:	4604      	mov	r4, r0
 800571a:	b940      	cbnz	r0, 800572e <xQueueGenericSend+0x22>
 800571c:	f04f 0350 	mov.w	r3, #80	; 0x50
 8005720:	f383 8811 	msr	BASEPRI, r3
 8005724:	f3bf 8f6f 	isb	sy
 8005728:	f3bf 8f4f 	dsb	sy
 800572c:	e7fe      	b.n	800572c <xQueueGenericSend+0x20>
 800572e:	b951      	cbnz	r1, 8005746 <xQueueGenericSend+0x3a>
 8005730:	6c03      	ldr	r3, [r0, #64]	; 0x40
 8005732:	b143      	cbz	r3, 8005746 <xQueueGenericSend+0x3a>
 8005734:	f04f 0350 	mov.w	r3, #80	; 0x50
 8005738:	f383 8811 	msr	BASEPRI, r3
 800573c:	f3bf 8f6f 	isb	sy
 8005740:	f3bf 8f4f 	dsb	sy
 8005744:	e7fe      	b.n	8005744 <xQueueGenericSend+0x38>
 8005746:	2f02      	cmp	r7, #2
 8005748:	d10b      	bne.n	8005762 <xQueueGenericSend+0x56>
 800574a:	6be3      	ldr	r3, [r4, #60]	; 0x3c
 800574c:	2b01      	cmp	r3, #1
 800574e:	d008      	beq.n	8005762 <xQueueGenericSend+0x56>
 8005750:	f04f 0350 	mov.w	r3, #80	; 0x50
 8005754:	f383 8811 	msr	BASEPRI, r3
 8005758:	f3bf 8f6f 	isb	sy
 800575c:	f3bf 8f4f 	dsb	sy
 8005760:	e7fe      	b.n	8005760 <xQueueGenericSend+0x54>
 8005762:	f000 fe53 	bl	800640c <xTaskGetSchedulerState>
 8005766:	4606      	mov	r6, r0
 8005768:	b950      	cbnz	r0, 8005780 <xQueueGenericSend+0x74>
 800576a:	9b01      	ldr	r3, [sp, #4]
 800576c:	b14b      	cbz	r3, 8005782 <xQueueGenericSend+0x76>
 800576e:	f04f 0350 	mov.w	r3, #80	; 0x50
 8005772:	f383 8811 	msr	BASEPRI, r3
 8005776:	f3bf 8f6f 	isb	sy
 800577a:	f3bf 8f4f 	dsb	sy
 800577e:	e7fe      	b.n	800577e <xQueueGenericSend+0x72>
 8005780:	2600      	movs	r6, #0
 8005782:	f04f 0900 	mov.w	r9, #0
 8005786:	e037      	b.n	80057f8 <xQueueGenericSend+0xec>
 8005788:	9d01      	ldr	r5, [sp, #4]
 800578a:	b91d      	cbnz	r5, 8005794 <xQueueGenericSend+0x88>
 800578c:	f001 f90a 	bl	80069a4 <vPortExitCritical>
 8005790:	2000      	movs	r0, #0
 8005792:	e052      	b.n	800583a <xQueueGenericSend+0x12e>
 8005794:	b916      	cbnz	r6, 800579c <xQueueGenericSend+0x90>
 8005796:	a802      	add	r0, sp, #8
 8005798:	f000 fdea 	bl	8006370 <vTaskInternalSetTimeOutState>
 800579c:	f001 f902 	bl	80069a4 <vPortExitCritical>
 80057a0:	f000 fbac 	bl	8005efc <vTaskSuspendAll>
 80057a4:	f001 f8de 	bl	8006964 <vPortEnterCritical>
 80057a8:	f894 3044 	ldrb.w	r3, [r4, #68]	; 0x44
 80057ac:	2bff      	cmp	r3, #255	; 0xff
 80057ae:	bf08      	it	eq
 80057b0:	f884 9044 	strbeq.w	r9, [r4, #68]	; 0x44
 80057b4:	f894 3045 	ldrb.w	r3, [r4, #69]	; 0x45
 80057b8:	2bff      	cmp	r3, #255	; 0xff
 80057ba:	bf08      	it	eq
 80057bc:	f884 9045 	strbeq.w	r9, [r4, #69]	; 0x45
 80057c0:	f001 f8f0 	bl	80069a4 <vPortExitCritical>
 80057c4:	a901      	add	r1, sp, #4
 80057c6:	a802      	add	r0, sp, #8
 80057c8:	f000 fdde 	bl	8006388 <xTaskCheckForTimeOut>
 80057cc:	2800      	cmp	r0, #0
 80057ce:	d14a      	bne.n	8005866 <xQueueGenericSend+0x15a>
 80057d0:	f001 f8c8 	bl	8006964 <vPortEnterCritical>
 80057d4:	6ba2      	ldr	r2, [r4, #56]	; 0x38
 80057d6:	6be3      	ldr	r3, [r4, #60]	; 0x3c
 80057d8:	429a      	cmp	r2, r3
 80057da:	d131      	bne.n	8005840 <xQueueGenericSend+0x134>
 80057dc:	f001 f8e2 	bl	80069a4 <vPortExitCritical>
 80057e0:	9901      	ldr	r1, [sp, #4]
 80057e2:	f104 0010 	add.w	r0, r4, #16
 80057e6:	f000 fd47 	bl	8006278 <vTaskPlaceOnEventList>
 80057ea:	4620      	mov	r0, r4
 80057ec:	f7ff fec9 	bl	8005582 <prvUnlockQueue>
 80057f0:	f000 fc28 	bl	8006044 <xTaskResumeAll>
 80057f4:	b360      	cbz	r0, 8005850 <xQueueGenericSend+0x144>
 80057f6:	2601      	movs	r6, #1
 80057f8:	f001 f8b4 	bl	8006964 <vPortEnterCritical>
 80057fc:	6ba2      	ldr	r2, [r4, #56]	; 0x38
 80057fe:	6be3      	ldr	r3, [r4, #60]	; 0x3c
 8005800:	429a      	cmp	r2, r3
 8005802:	d301      	bcc.n	8005808 <xQueueGenericSend+0xfc>
 8005804:	2f02      	cmp	r7, #2
 8005806:	d1bf      	bne.n	8005788 <xQueueGenericSend+0x7c>
 8005808:	463a      	mov	r2, r7
 800580a:	4641      	mov	r1, r8
 800580c:	4620      	mov	r0, r4
 800580e:	f7ff fe6d 	bl	80054ec <prvCopyDataToQueue>
 8005812:	6a63      	ldr	r3, [r4, #36]	; 0x24
 8005814:	b11b      	cbz	r3, 800581e <xQueueGenericSend+0x112>
 8005816:	f104 0024 	add.w	r0, r4, #36	; 0x24
 800581a:	f000 fd65 	bl	80062e8 <xTaskRemoveFromEventList>
 800581e:	b148      	cbz	r0, 8005834 <xQueueGenericSend+0x128>
 8005820:	f04f 23e0 	mov.w	r3, #3758153728	; 0xe000e000
 8005824:	f04f 5280 	mov.w	r2, #268435456	; 0x10000000
 8005828:	f8c3 2d04 	str.w	r2, [r3, #3332]	; 0xd04
 800582c:	f3bf 8f4f 	dsb	sy
 8005830:	f3bf 8f6f 	isb	sy
 8005834:	f001 f8b6 	bl	80069a4 <vPortExitCritical>
 8005838:	2001      	movs	r0, #1
 800583a:	b005      	add	sp, #20
 800583c:	e8bd 83f0 	ldmia.w	sp!, {r4, r5, r6, r7, r8, r9, pc}
 8005840:	f001 f8b0 	bl	80069a4 <vPortExitCritical>
 8005844:	4620      	mov	r0, r4
 8005846:	f7ff fe9c 	bl	8005582 <prvUnlockQueue>
 800584a:	f000 fbfb 	bl	8006044 <xTaskResumeAll>
 800584e:	e7d2      	b.n	80057f6 <xQueueGenericSend+0xea>
 8005850:	f04f 23e0 	mov.w	r3, #3758153728	; 0xe000e000
 8005854:	f04f 5280 	mov.w	r2, #268435456	; 0x10000000
 8005858:	f8c3 2d04 	str.w	r2, [r3, #3332]	; 0xd04
 800585c:	f3bf 8f4f 	dsb	sy
 8005860:	f3bf 8f6f 	isb	sy
 8005864:	e7c7      	b.n	80057f6 <xQueueGenericSend+0xea>
 8005866:	4620      	mov	r0, r4
 8005868:	f7ff fe8b 	bl	8005582 <prvUnlockQueue>
 800586c:	f000 fbea 	bl	8006044 <xTaskResumeAll>
 8005870:	e78e      	b.n	8005790 <xQueueGenericSend+0x84>

08005872 <xQueueGenericSendFromISR>:
 8005872:	e92d 43f8 	stmdb	sp!, {r3, r4, r5, r6, r7, r8, r9, lr}
 8005876:	4689      	mov	r9, r1
 8005878:	4690      	mov	r8, r2
 800587a:	461f      	mov	r7, r3
 800587c:	4604      	mov	r4, r0
 800587e:	b940      	cbnz	r0, 8005892 <xQueueGenericSendFromISR+0x20>
 8005880:	f04f 0350 	mov.w	r3, #80	; 0x50
 8005884:	f383 8811 	msr	BASEPRI, r3
 8005888:	f3bf 8f6f 	isb	sy
 800588c:	f3bf 8f4f 	dsb	sy
 8005890:	e7fe      	b.n	8005890 <xQueueGenericSendFromISR+0x1e>
 8005892:	b951      	cbnz	r1, 80058aa <xQueueGenericSendFromISR+0x38>
 8005894:	6c03      	ldr	r3, [r0, #64]	; 0x40
 8005896:	b143      	cbz	r3, 80058aa <xQueueGenericSendFromISR+0x38>
 8005898:	f04f 0350 	mov.w	r3, #80	; 0x50
 800589c:	f383 8811 	msr	BASEPRI, r3
 80058a0:	f3bf 8f6f 	isb	sy
 80058a4:	f3bf 8f4f 	dsb	sy
 80058a8:	e7fe      	b.n	80058a8 <xQueueGenericSendFromISR+0x36>
 80058aa:	2f02      	cmp	r7, #2
 80058ac:	d10b      	bne.n	80058c6 <xQueueGenericSendFromISR+0x54>
 80058ae:	6be3      	ldr	r3, [r4, #60]	; 0x3c
 80058b0:	2b01      	cmp	r3, #1
 80058b2:	d008      	beq.n	80058c6 <xQueueGenericSendFromISR+0x54>
 80058b4:	f04f 0350 	mov.w	r3, #80	; 0x50
 80058b8:	f383 8811 	msr	BASEPRI, r3
 80058bc:	f3bf 8f6f 	isb	sy
 80058c0:	f3bf 8f4f 	dsb	sy
 80058c4:	e7fe      	b.n	80058c4 <xQueueGenericSendFromISR+0x52>
 80058c6:	f001 f963 	bl	8006b90 <vPortValidateInterruptPriority>
 80058ca:	f3ef 8611 	mrs	r6, BASEPRI
 80058ce:	f04f 0350 	mov.w	r3, #80	; 0x50
 80058d2:	f383 8811 	msr	BASEPRI, r3
 80058d6:	f3bf 8f6f 	isb	sy
 80058da:	f3bf 8f4f 	dsb	sy
 80058de:	6ba2      	ldr	r2, [r4, #56]	; 0x38
 80058e0:	6be3      	ldr	r3, [r4, #60]	; 0x3c
 80058e2:	429a      	cmp	r2, r3
 80058e4:	d301      	bcc.n	80058ea <xQueueGenericSendFromISR+0x78>
 80058e6:	2f02      	cmp	r7, #2
 80058e8:	d123      	bne.n	8005932 <xQueueGenericSendFromISR+0xc0>
 80058ea:	f894 5045 	ldrb.w	r5, [r4, #69]	; 0x45
 80058ee:	6ba3      	ldr	r3, [r4, #56]	; 0x38
 80058f0:	b26d      	sxtb	r5, r5
 80058f2:	463a      	mov	r2, r7
 80058f4:	4649      	mov	r1, r9
 80058f6:	4620      	mov	r0, r4
 80058f8:	f7ff fdf8 	bl	80054ec <prvCopyDataToQueue>
 80058fc:	1c6b      	adds	r3, r5, #1
 80058fe:	d113      	bne.n	8005928 <xQueueGenericSendFromISR+0xb6>
 8005900:	6a63      	ldr	r3, [r4, #36]	; 0x24
 8005902:	b90b      	cbnz	r3, 8005908 <xQueueGenericSendFromISR+0x96>
 8005904:	2001      	movs	r0, #1
 8005906:	e00b      	b.n	8005920 <xQueueGenericSendFromISR+0xae>
 8005908:	f104 0024 	add.w	r0, r4, #36	; 0x24
 800590c:	f000 fcec 	bl	80062e8 <xTaskRemoveFromEventList>
 8005910:	2800      	cmp	r0, #0
 8005912:	d0f7      	beq.n	8005904 <xQueueGenericSendFromISR+0x92>
 8005914:	f1b8 0f00 	cmp.w	r8, #0
 8005918:	d0f4      	beq.n	8005904 <xQueueGenericSendFromISR+0x92>
 800591a:	2001      	movs	r0, #1
 800591c:	f8c8 0000 	str.w	r0, [r8]
 8005920:	f386 8811 	msr	BASEPRI, r6
 8005924:	e8bd 83f8 	ldmia.w	sp!, {r3, r4, r5, r6, r7, r8, r9, pc}
 8005928:	3501      	adds	r5, #1
 800592a:	b26d      	sxtb	r5, r5
 800592c:	f884 5045 	strb.w	r5, [r4, #69]	; 0x45
 8005930:	e7e8      	b.n	8005904 <xQueueGenericSendFromISR+0x92>
 8005932:	2000      	movs	r0, #0
 8005934:	e7f4      	b.n	8005920 <xQueueGenericSendFromISR+0xae>

08005936 <xQueueReceive>:
 8005936:	e92d 41ff 	stmdb	sp!, {r0, r1, r2, r3, r4, r5, r6, r7, r8, lr}
 800593a:	460f      	mov	r7, r1
 800593c:	9201      	str	r2, [sp, #4]
 800593e:	4604      	mov	r4, r0
 8005940:	b940      	cbnz	r0, 8005954 <xQueueReceive+0x1e>
 8005942:	f04f 0350 	mov.w	r3, #80	; 0x50
 8005946:	f383 8811 	msr	BASEPRI, r3
 800594a:	f3bf 8f6f 	isb	sy
 800594e:	f3bf 8f4f 	dsb	sy
 8005952:	e7fe      	b.n	8005952 <xQueueReceive+0x1c>
 8005954:	b951      	cbnz	r1, 800596c <xQueueReceive+0x36>
 8005956:	6c03      	ldr	r3, [r0, #64]	; 0x40
 8005958:	b143      	cbz	r3, 800596c <xQueueReceive+0x36>
 800595a:	f04f 0350 	mov.w	r3, #80	; 0x50
 800595e:	f383 8811 	msr	BASEPRI, r3
 8005962:	f3bf 8f6f 	isb	sy
 8005966:	f3bf 8f4f 	dsb	sy
 800596a:	e7fe      	b.n	800596a <xQueueReceive+0x34>
 800596c:	f000 fd4e 	bl	800640c <xTaskGetSchedulerState>
 8005970:	4606      	mov	r6, r0
 8005972:	b950      	cbnz	r0, 800598a <xQueueReceive+0x54>
 8005974:	9b01      	ldr	r3, [sp, #4]
 8005976:	b14b      	cbz	r3, 800598c <xQueueReceive+0x56>
 8005978:	f04f 0350 	mov.w	r3, #80	; 0x50
 800597c:	f383 8811 	msr	BASEPRI, r3
 8005980:	f3bf 8f6f 	isb	sy
 8005984:	f3bf 8f4f 	dsb	sy
 8005988:	e7fe      	b.n	8005988 <xQueueReceive+0x52>
 800598a:	2600      	movs	r6, #0
 800598c:	f04f 0800 	mov.w	r8, #0
 8005990:	e03d      	b.n	8005a0e <xQueueReceive+0xd8>
 8005992:	9d01      	ldr	r5, [sp, #4]
 8005994:	b91d      	cbnz	r5, 800599e <xQueueReceive+0x68>
 8005996:	f001 f805 	bl	80069a4 <vPortExitCritical>
 800599a:	2000      	movs	r0, #0
 800599c:	e056      	b.n	8005a4c <xQueueReceive+0x116>
 800599e:	b916      	cbnz	r6, 80059a6 <xQueueReceive+0x70>
 80059a0:	a802      	add	r0, sp, #8
 80059a2:	f000 fce5 	bl	8006370 <vTaskInternalSetTimeOutState>
 80059a6:	f000 fffd 	bl	80069a4 <vPortExitCritical>
 80059aa:	f000 faa7 	bl	8005efc <vTaskSuspendAll>
 80059ae:	f000 ffd9 	bl	8006964 <vPortEnterCritical>
 80059b2:	f894 3044 	ldrb.w	r3, [r4, #68]	; 0x44
 80059b6:	2bff      	cmp	r3, #255	; 0xff
 80059b8:	bf08      	it	eq
 80059ba:	f884 8044 	strbeq.w	r8, [r4, #68]	; 0x44
 80059be:	f894 3045 	ldrb.w	r3, [r4, #69]	; 0x45
 80059c2:	2bff      	cmp	r3, #255	; 0xff
 80059c4:	bf08      	it	eq
 80059c6:	f884 8045 	strbeq.w	r8, [r4, #69]	; 0x45
 80059ca:	f000 ffeb 	bl	80069a4 <vPortExitCritical>
 80059ce:	a901      	add	r1, sp, #4
 80059d0:	a802      	add	r0, sp, #8
 80059d2:	f000 fcd9 	bl	8006388 <xTaskCheckForTimeOut>
 80059d6:	2800      	cmp	r0, #0
 80059d8:	d141      	bne.n	8005a5e <xQueueReceive+0x128>
 80059da:	4620      	mov	r0, r4
 80059dc:	f7ff fd7b 	bl	80054d6 <prvIsQueueEmpty>
 80059e0:	b3b8      	cbz	r0, 8005a52 <xQueueReceive+0x11c>
 80059e2:	9901      	ldr	r1, [sp, #4]
 80059e4:	f104 0024 	add.w	r0, r4, #36	; 0x24
 80059e8:	f000 fc46 	bl	8006278 <vTaskPlaceOnEventList>
 80059ec:	4620      	mov	r0, r4
 80059ee:	f7ff fdc8 	bl	8005582 <prvUnlockQueue>
 80059f2:	f000 fb27 	bl	8006044 <xTaskResumeAll>
 80059f6:	b948      	cbnz	r0, 8005a0c <xQueueReceive+0xd6>
 80059f8:	f04f 23e0 	mov.w	r3, #3758153728	; 0xe000e000
 80059fc:	f04f 5280 	mov.w	r2, #268435456	; 0x10000000
 8005a00:	f8c3 2d04 	str.w	r2, [r3, #3332]	; 0xd04
 8005a04:	f3bf 8f4f 	dsb	sy
 8005a08:	f3bf 8f6f 	isb	sy
 8005a0c:	2601      	movs	r6, #1
 8005a0e:	f000 ffa9 	bl	8006964 <vPortEnterCritical>
 8005a12:	6ba5      	ldr	r5, [r4, #56]	; 0x38
 8005a14:	2d00      	cmp	r5, #0
 8005a16:	d0bc      	beq.n	8005992 <xQueueReceive+0x5c>
 8005a18:	4639      	mov	r1, r7
 8005a1a:	4620      	mov	r0, r4
 8005a1c:	3d01      	subs	r5, #1
 8005a1e:	f7ff fd9a 	bl	8005556 <prvCopyDataFromQueue>
 8005a22:	63a5      	str	r5, [r4, #56]	; 0x38
 8005a24:	6923      	ldr	r3, [r4, #16]
 8005a26:	b173      	cbz	r3, 8005a46 <xQueueReceive+0x110>
 8005a28:	f104 0010 	add.w	r0, r4, #16
 8005a2c:	f000 fc5c 	bl	80062e8 <xTaskRemoveFromEventList>
 8005a30:	b148      	cbz	r0, 8005a46 <xQueueReceive+0x110>
 8005a32:	f04f 23e0 	mov.w	r3, #3758153728	; 0xe000e000
 8005a36:	f04f 5280 	mov.w	r2, #268435456	; 0x10000000
 8005a3a:	f8c3 2d04 	str.w	r2, [r3, #3332]	; 0xd04
 8005a3e:	f3bf 8f4f 	dsb	sy
 8005a42:	f3bf 8f6f 	isb	sy
 8005a46:	f000 ffad 	bl	80069a4 <vPortExitCritical>
 8005a4a:	2001      	movs	r0, #1
 8005a4c:	b004      	add	sp, #16
 8005a4e:	e8bd 81f0 	ldmia.w	sp!, {r4, r5, r6, r7, r8, pc}
 8005a52:	4620      	mov	r0, r4
 8005a54:	f7ff fd95 	bl	8005582 <prvUnlockQueue>
 8005a58:	f000 faf4 	bl	8006044 <xTaskResumeAll>
 8005a5c:	e7d6      	b.n	8005a0c <xQueueReceive+0xd6>
 8005a5e:	4620      	mov	r0, r4
 8005a60:	f7ff fd8f 	bl	8005582 <prvUnlockQueue>
 8005a64:	f000 faee 	bl	8006044 <xTaskResumeAll>
 8005a68:	4620      	mov	r0, r4
 8005a6a:	f7ff fd34 	bl	80054d6 <prvIsQueueEmpty>
 8005a6e:	2800      	cmp	r0, #0
 8005a70:	d0cc      	beq.n	8005a0c <xQueueReceive+0xd6>
 8005a72:	e792      	b.n	800599a <xQueueReceive+0x64>

08005a74 <vQueueAddToRegistry>:
 8005a74:	b510      	push	{r4, lr}
 8005a76:	4a07      	ldr	r2, [pc, #28]	; (8005a94 <vQueueAddToRegistry+0x20>)
 8005a78:	2300      	movs	r3, #0
 8005a7a:	f852 4033 	ldr.w	r4, [r2, r3, lsl #3]
 8005a7e:	b92c      	cbnz	r4, 8005a8c <vQueueAddToRegistry+0x18>
 8005a80:	f842 1033 	str.w	r1, [r2, r3, lsl #3]
 8005a84:	eb02 03c3 	add.w	r3, r2, r3, lsl #3
 8005a88:	6058      	str	r0, [r3, #4]
 8005a8a:	bd10      	pop	{r4, pc}
 8005a8c:	3301      	adds	r3, #1
 8005a8e:	2b08      	cmp	r3, #8
 8005a90:	d1f3      	bne.n	8005a7a <vQueueAddToRegistry+0x6>
 8005a92:	e7fa      	b.n	8005a8a <vQueueAddToRegistry+0x16>
 8005a94:	200010d8 	.word	0x200010d8

08005a98 <vQueueWaitForMessageRestricted>:
 8005a98:	b570      	push	{r4, r5, r6, lr}
 8005a9a:	4604      	mov	r4, r0
 8005a9c:	460d      	mov	r5, r1
 8005a9e:	4616      	mov	r6, r2
 8005aa0:	f000 ff60 	bl	8006964 <vPortEnterCritical>
 8005aa4:	f894 3044 	ldrb.w	r3, [r4, #68]	; 0x44
 8005aa8:	2bff      	cmp	r3, #255	; 0xff
 8005aaa:	bf04      	itt	eq
 8005aac:	2300      	moveq	r3, #0
 8005aae:	f884 3044 	strbeq.w	r3, [r4, #68]	; 0x44
 8005ab2:	f894 3045 	ldrb.w	r3, [r4, #69]	; 0x45
 8005ab6:	2bff      	cmp	r3, #255	; 0xff
 8005ab8:	bf04      	itt	eq
 8005aba:	2300      	moveq	r3, #0
 8005abc:	f884 3045 	strbeq.w	r3, [r4, #69]	; 0x45
 8005ac0:	f000 ff70 	bl	80069a4 <vPortExitCritical>
 8005ac4:	6ba3      	ldr	r3, [r4, #56]	; 0x38
 8005ac6:	b92b      	cbnz	r3, 8005ad4 <vQueueWaitForMessageRestricted+0x3c>
 8005ac8:	4632      	mov	r2, r6
 8005aca:	4629      	mov	r1, r5
 8005acc:	f104 0024 	add.w	r0, r4, #36	; 0x24
 8005ad0:	f000 fbec 	bl	80062ac <vTaskPlaceOnEventListRestricted>
 8005ad4:	4620      	mov	r0, r4
 8005ad6:	e8bd 4070 	ldmia.w	sp!, {r4, r5, r6, lr}
 8005ada:	f7ff bd52 	b.w	8005582 <prvUnlockQueue>
	...

08005ae0 <prvAddNewTaskToReadyList>:
 8005ae0:	e92d 41f0 	stmdb	sp!, {r4, r5, r6, r7, r8, lr}
 8005ae4:	4604      	mov	r4, r0
 8005ae6:	f000 ff3d 	bl	8006964 <vPortEnterCritical>
 8005aea:	4b30      	ldr	r3, [pc, #192]	; (8005bac <prvAddNewTaskToReadyList+0xcc>)
 8005aec:	4e30      	ldr	r6, [pc, #192]	; (8005bb0 <prvAddNewTaskToReadyList+0xd0>)
 8005aee:	681a      	ldr	r2, [r3, #0]
 8005af0:	4f30      	ldr	r7, [pc, #192]	; (8005bb4 <prvAddNewTaskToReadyList+0xd4>)
 8005af2:	3201      	adds	r2, #1
 8005af4:	601a      	str	r2, [r3, #0]
 8005af6:	6835      	ldr	r5, [r6, #0]
 8005af8:	2d00      	cmp	r5, #0
 8005afa:	d14b      	bne.n	8005b94 <prvAddNewTaskToReadyList+0xb4>
 8005afc:	6034      	str	r4, [r6, #0]
 8005afe:	681b      	ldr	r3, [r3, #0]
 8005b00:	2b01      	cmp	r3, #1
 8005b02:	d11f      	bne.n	8005b44 <prvAddNewTaskToReadyList+0x64>
 8005b04:	46b8      	mov	r8, r7
 8005b06:	4640      	mov	r0, r8
 8005b08:	3501      	adds	r5, #1
 8005b0a:	f7ff fca3 	bl	8005454 <vListInitialise>
 8005b0e:	2d38      	cmp	r5, #56	; 0x38
 8005b10:	f108 0814 	add.w	r8, r8, #20
 8005b14:	d1f7      	bne.n	8005b06 <prvAddNewTaskToReadyList+0x26>
 8005b16:	f8df 80c4 	ldr.w	r8, [pc, #196]	; 8005bdc <prvAddNewTaskToReadyList+0xfc>
 8005b1a:	4d27      	ldr	r5, [pc, #156]	; (8005bb8 <prvAddNewTaskToReadyList+0xd8>)
 8005b1c:	4640      	mov	r0, r8
 8005b1e:	f7ff fc99 	bl	8005454 <vListInitialise>
 8005b22:	4628      	mov	r0, r5
 8005b24:	f7ff fc96 	bl	8005454 <vListInitialise>
 8005b28:	4824      	ldr	r0, [pc, #144]	; (8005bbc <prvAddNewTaskToReadyList+0xdc>)
 8005b2a:	f7ff fc93 	bl	8005454 <vListInitialise>
 8005b2e:	4824      	ldr	r0, [pc, #144]	; (8005bc0 <prvAddNewTaskToReadyList+0xe0>)
 8005b30:	f7ff fc90 	bl	8005454 <vListInitialise>
 8005b34:	4823      	ldr	r0, [pc, #140]	; (8005bc4 <prvAddNewTaskToReadyList+0xe4>)
 8005b36:	f7ff fc8d 	bl	8005454 <vListInitialise>
 8005b3a:	4b23      	ldr	r3, [pc, #140]	; (8005bc8 <prvAddNewTaskToReadyList+0xe8>)
 8005b3c:	f8c3 8000 	str.w	r8, [r3]
 8005b40:	4b22      	ldr	r3, [pc, #136]	; (8005bcc <prvAddNewTaskToReadyList+0xec>)
 8005b42:	601d      	str	r5, [r3, #0]
 8005b44:	4a22      	ldr	r2, [pc, #136]	; (8005bd0 <prvAddNewTaskToReadyList+0xf0>)
 8005b46:	6813      	ldr	r3, [r2, #0]
 8005b48:	3301      	adds	r3, #1
 8005b4a:	6013      	str	r3, [r2, #0]
 8005b4c:	4a21      	ldr	r2, [pc, #132]	; (8005bd4 <prvAddNewTaskToReadyList+0xf4>)
 8005b4e:	6463      	str	r3, [r4, #68]	; 0x44
 8005b50:	6811      	ldr	r1, [r2, #0]
 8005b52:	6ae3      	ldr	r3, [r4, #44]	; 0x2c
 8005b54:	2014      	movs	r0, #20
 8005b56:	428b      	cmp	r3, r1
 8005b58:	fb00 7003 	mla	r0, r0, r3, r7
 8005b5c:	f104 0104 	add.w	r1, r4, #4
 8005b60:	bf88      	it	hi
 8005b62:	6013      	strhi	r3, [r2, #0]
 8005b64:	f7ff fc84 	bl	8005470 <vListInsertEnd>
 8005b68:	f000 ff1c 	bl	80069a4 <vPortExitCritical>
 8005b6c:	4b1a      	ldr	r3, [pc, #104]	; (8005bd8 <prvAddNewTaskToReadyList+0xf8>)
 8005b6e:	681b      	ldr	r3, [r3, #0]
 8005b70:	b173      	cbz	r3, 8005b90 <prvAddNewTaskToReadyList+0xb0>
 8005b72:	6833      	ldr	r3, [r6, #0]
 8005b74:	6ada      	ldr	r2, [r3, #44]	; 0x2c
 8005b76:	6ae3      	ldr	r3, [r4, #44]	; 0x2c
 8005b78:	429a      	cmp	r2, r3
 8005b7a:	d209      	bcs.n	8005b90 <prvAddNewTaskToReadyList+0xb0>
 8005b7c:	f04f 23e0 	mov.w	r3, #3758153728	; 0xe000e000
 8005b80:	f04f 5280 	mov.w	r2, #268435456	; 0x10000000
 8005b84:	f8c3 2d04 	str.w	r2, [r3, #3332]	; 0xd04
 8005b88:	f3bf 8f4f 	dsb	sy
 8005b8c:	f3bf 8f6f 	isb	sy
 8005b90:	e8bd 81f0 	ldmia.w	sp!, {r4, r5, r6, r7, r8, pc}
 8005b94:	4b10      	ldr	r3, [pc, #64]	; (8005bd8 <prvAddNewTaskToReadyList+0xf8>)
 8005b96:	681b      	ldr	r3, [r3, #0]
 8005b98:	2b00      	cmp	r3, #0
 8005b9a:	d1d3      	bne.n	8005b44 <prvAddNewTaskToReadyList+0x64>
 8005b9c:	6833      	ldr	r3, [r6, #0]
 8005b9e:	6ada      	ldr	r2, [r3, #44]	; 0x2c
 8005ba0:	6ae3      	ldr	r3, [r4, #44]	; 0x2c
 8005ba2:	429a      	cmp	r2, r3
 8005ba4:	bf98      	it	ls
 8005ba6:	6034      	strls	r4, [r6, #0]
 8005ba8:	e7cc      	b.n	8005b44 <prvAddNewTaskToReadyList+0x64>
 8005baa:	bf00      	nop
 8005bac:	20001584 	.word	0x20001584
 8005bb0:	20001118 	.word	0x20001118
 8005bb4:	20001124 	.word	0x20001124
 8005bb8:	200015ac 	.word	0x200015ac
 8005bbc:	200015cc 	.word	0x200015cc
 8005bc0:	200015f8 	.word	0x200015f8
 8005bc4:	200015e4 	.word	0x200015e4
 8005bc8:	2000111c 	.word	0x2000111c
 8005bcc:	20001120 	.word	0x20001120
 8005bd0:	20001590 	.word	0x20001590
 8005bd4:	20001594 	.word	0x20001594
 8005bd8:	200015e0 	.word	0x200015e0
 8005bdc:	20001598 	.word	0x20001598

08005be0 <prvAddCurrentTaskToDelayedList>:
 8005be0:	b5f8      	push	{r3, r4, r5, r6, r7, lr}
 8005be2:	4b15      	ldr	r3, [pc, #84]	; (8005c38 <prvAddCurrentTaskToDelayedList+0x58>)
 8005be4:	4e15      	ldr	r6, [pc, #84]	; (8005c3c <prvAddCurrentTaskToDelayedList+0x5c>)
 8005be6:	681d      	ldr	r5, [r3, #0]
 8005be8:	4604      	mov	r4, r0
 8005bea:	6830      	ldr	r0, [r6, #0]
 8005bec:	3004      	adds	r0, #4
 8005bee:	460f      	mov	r7, r1
 8005bf0:	f7ff fc61 	bl	80054b6 <uxListRemove>
 8005bf4:	1c63      	adds	r3, r4, #1
 8005bf6:	d107      	bne.n	8005c08 <prvAddCurrentTaskToDelayedList+0x28>
 8005bf8:	b137      	cbz	r7, 8005c08 <prvAddCurrentTaskToDelayedList+0x28>
 8005bfa:	6831      	ldr	r1, [r6, #0]
 8005bfc:	4810      	ldr	r0, [pc, #64]	; (8005c40 <prvAddCurrentTaskToDelayedList+0x60>)
 8005bfe:	e8bd 40f8 	ldmia.w	sp!, {r3, r4, r5, r6, r7, lr}
 8005c02:	3104      	adds	r1, #4
 8005c04:	f7ff bc34 	b.w	8005470 <vListInsertEnd>
 8005c08:	6833      	ldr	r3, [r6, #0]
 8005c0a:	192c      	adds	r4, r5, r4
 8005c0c:	605c      	str	r4, [r3, #4]
 8005c0e:	d307      	bcc.n	8005c20 <prvAddCurrentTaskToDelayedList+0x40>
 8005c10:	4b0c      	ldr	r3, [pc, #48]	; (8005c44 <prvAddCurrentTaskToDelayedList+0x64>)
 8005c12:	6818      	ldr	r0, [r3, #0]
 8005c14:	6831      	ldr	r1, [r6, #0]
 8005c16:	e8bd 40f8 	ldmia.w	sp!, {r3, r4, r5, r6, r7, lr}
 8005c1a:	3104      	adds	r1, #4
 8005c1c:	f7ff bc34 	b.w	8005488 <vListInsert>
 8005c20:	4b09      	ldr	r3, [pc, #36]	; (8005c48 <prvAddCurrentTaskToDelayedList+0x68>)
 8005c22:	6818      	ldr	r0, [r3, #0]
 8005c24:	6831      	ldr	r1, [r6, #0]
 8005c26:	3104      	adds	r1, #4
 8005c28:	f7ff fc2e 	bl	8005488 <vListInsert>
 8005c2c:	4b07      	ldr	r3, [pc, #28]	; (8005c4c <prvAddCurrentTaskToDelayedList+0x6c>)
 8005c2e:	681a      	ldr	r2, [r3, #0]
 8005c30:	42a2      	cmp	r2, r4
 8005c32:	bf88      	it	hi
 8005c34:	601c      	strhi	r4, [r3, #0]
 8005c36:	bdf8      	pop	{r3, r4, r5, r6, r7, pc}
 8005c38:	2000160c 	.word	0x2000160c
 8005c3c:	20001118 	.word	0x20001118
 8005c40:	200015e4 	.word	0x200015e4
 8005c44:	20001120 	.word	0x20001120
 8005c48:	2000111c 	.word	0x2000111c
 8005c4c:	200015c0 	.word	0x200015c0

08005c50 <prvResetNextTaskUnblockTime>:
 8005c50:	4a06      	ldr	r2, [pc, #24]	; (8005c6c <prvResetNextTaskUnblockTime+0x1c>)
 8005c52:	6813      	ldr	r3, [r2, #0]
 8005c54:	6819      	ldr	r1, [r3, #0]
 8005c56:	4b06      	ldr	r3, [pc, #24]	; (8005c70 <prvResetNextTaskUnblockTime+0x20>)
 8005c58:	b919      	cbnz	r1, 8005c62 <prvResetNextTaskUnblockTime+0x12>
 8005c5a:	f04f 32ff 	mov.w	r2, #4294967295
 8005c5e:	601a      	str	r2, [r3, #0]
 8005c60:	4770      	bx	lr
 8005c62:	6812      	ldr	r2, [r2, #0]
 8005c64:	68d2      	ldr	r2, [r2, #12]
 8005c66:	68d2      	ldr	r2, [r2, #12]
 8005c68:	6852      	ldr	r2, [r2, #4]
 8005c6a:	e7f8      	b.n	8005c5e <prvResetNextTaskUnblockTime+0xe>
 8005c6c:	2000111c 	.word	0x2000111c
 8005c70:	200015c0 	.word	0x200015c0

08005c74 <prvDeleteTCB>:
 8005c74:	b510      	push	{r4, lr}
 8005c76:	f890 3059 	ldrb.w	r3, [r0, #89]	; 0x59
 8005c7a:	4604      	mov	r4, r0
 8005c7c:	b93b      	cbnz	r3, 8005c8e <prvDeleteTCB+0x1a>
 8005c7e:	6b00      	ldr	r0, [r0, #48]	; 0x30
 8005c80:	f001 f870 	bl	8006d64 <vPortFree>
 8005c84:	4620      	mov	r0, r4
 8005c86:	e8bd 4010 	ldmia.w	sp!, {r4, lr}
 8005c8a:	f001 b86b 	b.w	8006d64 <vPortFree>
 8005c8e:	2b01      	cmp	r3, #1
 8005c90:	d0f9      	beq.n	8005c86 <prvDeleteTCB+0x12>
 8005c92:	2b02      	cmp	r3, #2
 8005c94:	d008      	beq.n	8005ca8 <prvDeleteTCB+0x34>
 8005c96:	f04f 0350 	mov.w	r3, #80	; 0x50
 8005c9a:	f383 8811 	msr	BASEPRI, r3
 8005c9e:	f3bf 8f6f 	isb	sy
 8005ca2:	f3bf 8f4f 	dsb	sy
 8005ca6:	e7fe      	b.n	8005ca6 <prvDeleteTCB+0x32>
 8005ca8:	bd10      	pop	{r4, pc}
	...

08005cac <prvIdleTask>:
 8005cac:	b580      	push	{r7, lr}
 8005cae:	4c13      	ldr	r4, [pc, #76]	; (8005cfc <prvIdleTask+0x50>)
 8005cb0:	4f13      	ldr	r7, [pc, #76]	; (8005d00 <prvIdleTask+0x54>)
 8005cb2:	4d14      	ldr	r5, [pc, #80]	; (8005d04 <prvIdleTask+0x58>)
 8005cb4:	6823      	ldr	r3, [r4, #0]
 8005cb6:	b973      	cbnz	r3, 8005cd6 <prvIdleTask+0x2a>
 8005cb8:	4b13      	ldr	r3, [pc, #76]	; (8005d08 <prvIdleTask+0x5c>)
 8005cba:	681b      	ldr	r3, [r3, #0]
 8005cbc:	2b01      	cmp	r3, #1
 8005cbe:	d9f8      	bls.n	8005cb2 <prvIdleTask+0x6>
 8005cc0:	f04f 23e0 	mov.w	r3, #3758153728	; 0xe000e000
 8005cc4:	f04f 5280 	mov.w	r2, #268435456	; 0x10000000
 8005cc8:	f8c3 2d04 	str.w	r2, [r3, #3332]	; 0xd04
 8005ccc:	f3bf 8f4f 	dsb	sy
 8005cd0:	f3bf 8f6f 	isb	sy
 8005cd4:	e7ed      	b.n	8005cb2 <prvIdleTask+0x6>
 8005cd6:	f000 fe45 	bl	8006964 <vPortEnterCritical>
 8005cda:	68fb      	ldr	r3, [r7, #12]
 8005cdc:	68de      	ldr	r6, [r3, #12]
 8005cde:	1d30      	adds	r0, r6, #4
 8005ce0:	f7ff fbe9 	bl	80054b6 <uxListRemove>
 8005ce4:	682b      	ldr	r3, [r5, #0]
 8005ce6:	3b01      	subs	r3, #1
 8005ce8:	602b      	str	r3, [r5, #0]
 8005cea:	6823      	ldr	r3, [r4, #0]
 8005cec:	3b01      	subs	r3, #1
 8005cee:	6023      	str	r3, [r4, #0]
 8005cf0:	f000 fe58 	bl	80069a4 <vPortExitCritical>
 8005cf4:	4630      	mov	r0, r6
 8005cf6:	f7ff ffbd 	bl	8005c74 <prvDeleteTCB>
 8005cfa:	e7db      	b.n	8005cb4 <prvIdleTask+0x8>
 8005cfc:	20001588 	.word	0x20001588
 8005d00:	200015f8 	.word	0x200015f8
 8005d04:	20001584 	.word	0x20001584
 8005d08:	20001124 	.word	0x20001124

08005d0c <prvInitialiseNewTask.constprop.0>:
 8005d0c:	e92d 47f0 	stmdb	sp!, {r4, r5, r6, r7, r8, r9, sl, lr}
 8005d10:	e9dd 8409 	ldrd	r8, r4, [sp, #36]	; 0x24
 8005d14:	ea4f 0982 	mov.w	r9, r2, lsl #2
 8005d18:	464a      	mov	r2, r9
 8005d1a:	4606      	mov	r6, r0
 8005d1c:	460d      	mov	r5, r1
 8005d1e:	6b20      	ldr	r0, [r4, #48]	; 0x30
 8005d20:	21a5      	movs	r1, #165	; 0xa5
 8005d22:	461f      	mov	r7, r3
 8005d24:	f001 f898 	bl	8006e58 <memset>
 8005d28:	6b22      	ldr	r2, [r4, #48]	; 0x30
 8005d2a:	f1a9 0904 	sub.w	r9, r9, #4
 8005d2e:	4491      	add	r9, r2
 8005d30:	f029 0907 	bic.w	r9, r9, #7
 8005d34:	b3a5      	cbz	r5, 8005da0 <prvInitialiseNewTask.constprop.0+0x94>
 8005d36:	1e6b      	subs	r3, r5, #1
 8005d38:	f104 0234 	add.w	r2, r4, #52	; 0x34
 8005d3c:	350f      	adds	r5, #15
 8005d3e:	f813 0f01 	ldrb.w	r0, [r3, #1]!
 8005d42:	f802 0b01 	strb.w	r0, [r2], #1
 8005d46:	b108      	cbz	r0, 8005d4c <prvInitialiseNewTask.constprop.0+0x40>
 8005d48:	42ab      	cmp	r3, r5
 8005d4a:	d1f8      	bne.n	8005d3e <prvInitialiseNewTask.constprop.0+0x32>
 8005d4c:	2300      	movs	r3, #0
 8005d4e:	f884 3043 	strb.w	r3, [r4, #67]	; 0x43
 8005d52:	9d08      	ldr	r5, [sp, #32]
 8005d54:	2d37      	cmp	r5, #55	; 0x37
 8005d56:	bf28      	it	cs
 8005d58:	2537      	movcs	r5, #55	; 0x37
 8005d5a:	f04f 0a00 	mov.w	sl, #0
 8005d5e:	62e5      	str	r5, [r4, #44]	; 0x2c
 8005d60:	64e5      	str	r5, [r4, #76]	; 0x4c
 8005d62:	1d20      	adds	r0, r4, #4
 8005d64:	f8c4 a050 	str.w	sl, [r4, #80]	; 0x50
 8005d68:	f7ff fb7f 	bl	800546a <vListInitialiseItem>
 8005d6c:	f1c5 0538 	rsb	r5, r5, #56	; 0x38
 8005d70:	f104 0018 	add.w	r0, r4, #24
 8005d74:	f7ff fb79 	bl	800546a <vListInitialiseItem>
 8005d78:	f8c4 a054 	str.w	sl, [r4, #84]	; 0x54
 8005d7c:	6124      	str	r4, [r4, #16]
 8005d7e:	61a5      	str	r5, [r4, #24]
 8005d80:	6264      	str	r4, [r4, #36]	; 0x24
 8005d82:	f884 a058 	strb.w	sl, [r4, #88]	; 0x58
 8005d86:	463a      	mov	r2, r7
 8005d88:	4631      	mov	r1, r6
 8005d8a:	4648      	mov	r0, r9
 8005d8c:	f000 fdbc 	bl	8006908 <pxPortInitialiseStack>
 8005d90:	6020      	str	r0, [r4, #0]
 8005d92:	f1b8 0f00 	cmp.w	r8, #0
 8005d96:	d001      	beq.n	8005d9c <prvInitialiseNewTask.constprop.0+0x90>
 8005d98:	f8c8 4000 	str.w	r4, [r8]
 8005d9c:	e8bd 87f0 	ldmia.w	sp!, {r4, r5, r6, r7, r8, r9, sl, pc}
 8005da0:	f884 5034 	strb.w	r5, [r4, #52]	; 0x34
 8005da4:	e7d5      	b.n	8005d52 <prvInitialiseNewTask.constprop.0+0x46>

08005da6 <xTaskCreateStatic>:
 8005da6:	b570      	push	{r4, r5, r6, lr}
 8005da8:	b086      	sub	sp, #24
 8005daa:	e9dd 540b 	ldrd	r5, r4, [sp, #44]	; 0x2c
 8005dae:	b945      	cbnz	r5, 8005dc2 <xTaskCreateStatic+0x1c>
 8005db0:	f04f 0350 	mov.w	r3, #80	; 0x50
 8005db4:	f383 8811 	msr	BASEPRI, r3
 8005db8:	f3bf 8f6f 	isb	sy
 8005dbc:	f3bf 8f4f 	dsb	sy
 8005dc0:	e7fe      	b.n	8005dc0 <xTaskCreateStatic+0x1a>
 8005dc2:	b944      	cbnz	r4, 8005dd6 <xTaskCreateStatic+0x30>
 8005dc4:	f04f 0350 	mov.w	r3, #80	; 0x50
 8005dc8:	f383 8811 	msr	BASEPRI, r3
 8005dcc:	f3bf 8f6f 	isb	sy
 8005dd0:	f3bf 8f4f 	dsb	sy
 8005dd4:	e7fe      	b.n	8005dd4 <xTaskCreateStatic+0x2e>
 8005dd6:	265c      	movs	r6, #92	; 0x5c
 8005dd8:	9605      	str	r6, [sp, #20]
 8005dda:	9e05      	ldr	r6, [sp, #20]
 8005ddc:	2e5c      	cmp	r6, #92	; 0x5c
 8005dde:	d008      	beq.n	8005df2 <xTaskCreateStatic+0x4c>
 8005de0:	f04f 0350 	mov.w	r3, #80	; 0x50
 8005de4:	f383 8811 	msr	BASEPRI, r3
 8005de8:	f3bf 8f6f 	isb	sy
 8005dec:	f3bf 8f4f 	dsb	sy
 8005df0:	e7fe      	b.n	8005df0 <xTaskCreateStatic+0x4a>
 8005df2:	6325      	str	r5, [r4, #48]	; 0x30
 8005df4:	2502      	movs	r5, #2
 8005df6:	f884 5059 	strb.w	r5, [r4, #89]	; 0x59
 8005dfa:	ad04      	add	r5, sp, #16
 8005dfc:	9501      	str	r5, [sp, #4]
 8005dfe:	9d0a      	ldr	r5, [sp, #40]	; 0x28
 8005e00:	9402      	str	r4, [sp, #8]
 8005e02:	9500      	str	r5, [sp, #0]
 8005e04:	9e05      	ldr	r6, [sp, #20]
 8005e06:	f7ff ff81 	bl	8005d0c <prvInitialiseNewTask.constprop.0>
 8005e0a:	4620      	mov	r0, r4
 8005e0c:	f7ff fe68 	bl	8005ae0 <prvAddNewTaskToReadyList>
 8005e10:	9804      	ldr	r0, [sp, #16]
 8005e12:	b006      	add	sp, #24
 8005e14:	bd70      	pop	{r4, r5, r6, pc}

08005e16 <xTaskCreate>:
 8005e16:	e92d 43f0 	stmdb	sp!, {r4, r5, r6, r7, r8, r9, lr}
 8005e1a:	4607      	mov	r7, r0
 8005e1c:	b085      	sub	sp, #20
 8005e1e:	0090      	lsls	r0, r2, #2
 8005e20:	4688      	mov	r8, r1
 8005e22:	4616      	mov	r6, r2
 8005e24:	4699      	mov	r9, r3
 8005e26:	f000 ff05 	bl	8006c34 <pvPortMalloc>
 8005e2a:	4605      	mov	r5, r0
 8005e2c:	b1e8      	cbz	r0, 8005e6a <xTaskCreate+0x54>
 8005e2e:	205c      	movs	r0, #92	; 0x5c
 8005e30:	f000 ff00 	bl	8006c34 <pvPortMalloc>
 8005e34:	4604      	mov	r4, r0
 8005e36:	b1a8      	cbz	r0, 8005e64 <xTaskCreate+0x4e>
 8005e38:	2300      	movs	r3, #0
 8005e3a:	f880 3059 	strb.w	r3, [r0, #89]	; 0x59
 8005e3e:	9b0d      	ldr	r3, [sp, #52]	; 0x34
 8005e40:	6305      	str	r5, [r0, #48]	; 0x30
 8005e42:	9301      	str	r3, [sp, #4]
 8005e44:	9b0c      	ldr	r3, [sp, #48]	; 0x30
 8005e46:	9002      	str	r0, [sp, #8]
 8005e48:	9300      	str	r3, [sp, #0]
 8005e4a:	4632      	mov	r2, r6
 8005e4c:	464b      	mov	r3, r9
 8005e4e:	4641      	mov	r1, r8
 8005e50:	4638      	mov	r0, r7
 8005e52:	f7ff ff5b 	bl	8005d0c <prvInitialiseNewTask.constprop.0>
 8005e56:	4620      	mov	r0, r4
 8005e58:	f7ff fe42 	bl	8005ae0 <prvAddNewTaskToReadyList>
 8005e5c:	2001      	movs	r0, #1
 8005e5e:	b005      	add	sp, #20
 8005e60:	e8bd 83f0 	ldmia.w	sp!, {r4, r5, r6, r7, r8, r9, pc}
 8005e64:	4628      	mov	r0, r5
 8005e66:	f000 ff7d 	bl	8006d64 <vPortFree>
 8005e6a:	f04f 30ff 	mov.w	r0, #4294967295
 8005e6e:	e7f6      	b.n	8005e5e <xTaskCreate+0x48>

08005e70 <vTaskStartScheduler>:
 8005e70:	b510      	push	{r4, lr}
 8005e72:	b088      	sub	sp, #32
 8005e74:	2400      	movs	r4, #0
 8005e76:	aa07      	add	r2, sp, #28
 8005e78:	a906      	add	r1, sp, #24
 8005e7a:	a805      	add	r0, sp, #20
 8005e7c:	e9cd 4405 	strd	r4, r4, [sp, #20]
 8005e80:	f7ff fad0 	bl	8005424 <vApplicationGetIdleTaskMemory>
 8005e84:	9b05      	ldr	r3, [sp, #20]
 8005e86:	9302      	str	r3, [sp, #8]
 8005e88:	9b06      	ldr	r3, [sp, #24]
 8005e8a:	9a07      	ldr	r2, [sp, #28]
 8005e8c:	4916      	ldr	r1, [pc, #88]	; (8005ee8 <vTaskStartScheduler+0x78>)
 8005e8e:	4817      	ldr	r0, [pc, #92]	; (8005eec <vTaskStartScheduler+0x7c>)
 8005e90:	e9cd 4300 	strd	r4, r3, [sp]
 8005e94:	4623      	mov	r3, r4
 8005e96:	f7ff ff86 	bl	8005da6 <xTaskCreateStatic>
 8005e9a:	b318      	cbz	r0, 8005ee4 <vTaskStartScheduler+0x74>
 8005e9c:	f000 fb5c 	bl	8006558 <xTimerCreateTimerTask>
 8005ea0:	2801      	cmp	r0, #1
 8005ea2:	d114      	bne.n	8005ece <vTaskStartScheduler+0x5e>
 8005ea4:	f04f 0350 	mov.w	r3, #80	; 0x50
 8005ea8:	f383 8811 	msr	BASEPRI, r3
 8005eac:	f3bf 8f6f 	isb	sy
 8005eb0:	f3bf 8f4f 	dsb	sy
 8005eb4:	4b0e      	ldr	r3, [pc, #56]	; (8005ef0 <vTaskStartScheduler+0x80>)
 8005eb6:	f04f 32ff 	mov.w	r2, #4294967295
 8005eba:	601a      	str	r2, [r3, #0]
 8005ebc:	4b0d      	ldr	r3, [pc, #52]	; (8005ef4 <vTaskStartScheduler+0x84>)
 8005ebe:	6018      	str	r0, [r3, #0]
 8005ec0:	4b0d      	ldr	r3, [pc, #52]	; (8005ef8 <vTaskStartScheduler+0x88>)
 8005ec2:	601c      	str	r4, [r3, #0]
 8005ec4:	b008      	add	sp, #32
 8005ec6:	e8bd 4010 	ldmia.w	sp!, {r4, lr}
 8005eca:	f000 bddb 	b.w	8006a84 <xPortStartScheduler>
 8005ece:	3001      	adds	r0, #1
 8005ed0:	d108      	bne.n	8005ee4 <vTaskStartScheduler+0x74>
 8005ed2:	f04f 0350 	mov.w	r3, #80	; 0x50
 8005ed6:	f383 8811 	msr	BASEPRI, r3
 8005eda:	f3bf 8f6f 	isb	sy
 8005ede:	f3bf 8f4f 	dsb	sy
 8005ee2:	e7fe      	b.n	8005ee2 <vTaskStartScheduler+0x72>
 8005ee4:	b008      	add	sp, #32
 8005ee6:	bd10      	pop	{r4, pc}
 8005ee8:	0800a9ec 	.word	0x0800a9ec
 8005eec:	08005cad 	.word	0x08005cad
 8005ef0:	200015c0 	.word	0x200015c0
 8005ef4:	200015e0 	.word	0x200015e0
 8005ef8:	2000160c 	.word	0x2000160c

08005efc <vTaskSuspendAll>:
 8005efc:	4a02      	ldr	r2, [pc, #8]	; (8005f08 <vTaskSuspendAll+0xc>)
 8005efe:	6813      	ldr	r3, [r2, #0]
 8005f00:	3301      	adds	r3, #1
 8005f02:	6013      	str	r3, [r2, #0]
 8005f04:	4770      	bx	lr
 8005f06:	bf00      	nop
 8005f08:	2000158c 	.word	0x2000158c

08005f0c <xTaskGetTickCount>:
 8005f0c:	4b01      	ldr	r3, [pc, #4]	; (8005f14 <xTaskGetTickCount+0x8>)
 8005f0e:	6818      	ldr	r0, [r3, #0]
 8005f10:	4770      	bx	lr
 8005f12:	bf00      	nop
 8005f14:	2000160c 	.word	0x2000160c

08005f18 <xTaskIncrementTick>:
 8005f18:	4b3f      	ldr	r3, [pc, #252]	; (8006018 <xTaskIncrementTick+0x100>)
 8005f1a:	681b      	ldr	r3, [r3, #0]
 8005f1c:	e92d 4ff7 	stmdb	sp!, {r0, r1, r2, r4, r5, r6, r7, r8, r9, sl, fp, lr}
 8005f20:	2b00      	cmp	r3, #0
 8005f22:	d173      	bne.n	800600c <xTaskIncrementTick+0xf4>
 8005f24:	4b3d      	ldr	r3, [pc, #244]	; (800601c <xTaskIncrementTick+0x104>)
 8005f26:	681d      	ldr	r5, [r3, #0]
 8005f28:	3501      	adds	r5, #1
 8005f2a:	601d      	str	r5, [r3, #0]
 8005f2c:	b9bd      	cbnz	r5, 8005f5e <xTaskIncrementTick+0x46>
 8005f2e:	4b3c      	ldr	r3, [pc, #240]	; (8006020 <xTaskIncrementTick+0x108>)
 8005f30:	681a      	ldr	r2, [r3, #0]
 8005f32:	6812      	ldr	r2, [r2, #0]
 8005f34:	b142      	cbz	r2, 8005f48 <xTaskIncrementTick+0x30>
 8005f36:	f04f 0350 	mov.w	r3, #80	; 0x50
 8005f3a:	f383 8811 	msr	BASEPRI, r3
 8005f3e:	f3bf 8f6f 	isb	sy
 8005f42:	f3bf 8f4f 	dsb	sy
 8005f46:	e7fe      	b.n	8005f46 <xTaskIncrementTick+0x2e>
 8005f48:	4a36      	ldr	r2, [pc, #216]	; (8006024 <xTaskIncrementTick+0x10c>)
 8005f4a:	6819      	ldr	r1, [r3, #0]
 8005f4c:	6810      	ldr	r0, [r2, #0]
 8005f4e:	6018      	str	r0, [r3, #0]
 8005f50:	6011      	str	r1, [r2, #0]
 8005f52:	4a35      	ldr	r2, [pc, #212]	; (8006028 <xTaskIncrementTick+0x110>)
 8005f54:	6813      	ldr	r3, [r2, #0]
 8005f56:	3301      	adds	r3, #1
 8005f58:	6013      	str	r3, [r2, #0]
 8005f5a:	f7ff fe79 	bl	8005c50 <prvResetNextTaskUnblockTime>
 8005f5e:	4e33      	ldr	r6, [pc, #204]	; (800602c <xTaskIncrementTick+0x114>)
 8005f60:	4f33      	ldr	r7, [pc, #204]	; (8006030 <xTaskIncrementTick+0x118>)
 8005f62:	6833      	ldr	r3, [r6, #0]
 8005f64:	f8df 80d4 	ldr.w	r8, [pc, #212]	; 800603c <xTaskIncrementTick+0x124>
 8005f68:	429d      	cmp	r5, r3
 8005f6a:	f04f 0400 	mov.w	r4, #0
 8005f6e:	d211      	bcs.n	8005f94 <xTaskIncrementTick+0x7c>
 8005f70:	f8d8 3000 	ldr.w	r3, [r8]
 8005f74:	6adb      	ldr	r3, [r3, #44]	; 0x2c
 8005f76:	2214      	movs	r2, #20
 8005f78:	4353      	muls	r3, r2
 8005f7a:	58fb      	ldr	r3, [r7, r3]
 8005f7c:	2b02      	cmp	r3, #2
 8005f7e:	4b2d      	ldr	r3, [pc, #180]	; (8006034 <xTaskIncrementTick+0x11c>)
 8005f80:	681b      	ldr	r3, [r3, #0]
 8005f82:	bf28      	it	cs
 8005f84:	2401      	movcs	r4, #1
 8005f86:	2b00      	cmp	r3, #0
 8005f88:	bf18      	it	ne
 8005f8a:	2401      	movne	r4, #1
 8005f8c:	4620      	mov	r0, r4
 8005f8e:	b003      	add	sp, #12
 8005f90:	e8bd 8ff0 	ldmia.w	sp!, {r4, r5, r6, r7, r8, r9, sl, fp, pc}
 8005f94:	f8df 9088 	ldr.w	r9, [pc, #136]	; 8006020 <xTaskIncrementTick+0x108>
 8005f98:	f8df a0a4 	ldr.w	sl, [pc, #164]	; 8006040 <xTaskIncrementTick+0x128>
 8005f9c:	f8d9 3000 	ldr.w	r3, [r9]
 8005fa0:	681b      	ldr	r3, [r3, #0]
 8005fa2:	b91b      	cbnz	r3, 8005fac <xTaskIncrementTick+0x94>
 8005fa4:	f04f 33ff 	mov.w	r3, #4294967295
 8005fa8:	6033      	str	r3, [r6, #0]
 8005faa:	e7e1      	b.n	8005f70 <xTaskIncrementTick+0x58>
 8005fac:	f8d9 3000 	ldr.w	r3, [r9]
 8005fb0:	68db      	ldr	r3, [r3, #12]
 8005fb2:	f8d3 b00c 	ldr.w	fp, [r3, #12]
 8005fb6:	f8db 2004 	ldr.w	r2, [fp, #4]
 8005fba:	4295      	cmp	r5, r2
 8005fbc:	d201      	bcs.n	8005fc2 <xTaskIncrementTick+0xaa>
 8005fbe:	6032      	str	r2, [r6, #0]
 8005fc0:	e7d6      	b.n	8005f70 <xTaskIncrementTick+0x58>
 8005fc2:	f10b 0104 	add.w	r1, fp, #4
 8005fc6:	4608      	mov	r0, r1
 8005fc8:	9101      	str	r1, [sp, #4]
 8005fca:	f7ff fa74 	bl	80054b6 <uxListRemove>
 8005fce:	f8db 2028 	ldr.w	r2, [fp, #40]	; 0x28
 8005fd2:	9901      	ldr	r1, [sp, #4]
 8005fd4:	b122      	cbz	r2, 8005fe0 <xTaskIncrementTick+0xc8>
 8005fd6:	f10b 0018 	add.w	r0, fp, #24
 8005fda:	f7ff fa6c 	bl	80054b6 <uxListRemove>
 8005fde:	9901      	ldr	r1, [sp, #4]
 8005fe0:	f8db 002c 	ldr.w	r0, [fp, #44]	; 0x2c
 8005fe4:	f8da 2000 	ldr.w	r2, [sl]
 8005fe8:	2314      	movs	r3, #20
 8005fea:	4290      	cmp	r0, r2
 8005fec:	bf88      	it	hi
 8005fee:	f8ca 0000 	strhi.w	r0, [sl]
 8005ff2:	fb03 7000 	mla	r0, r3, r0, r7
 8005ff6:	f7ff fa3b 	bl	8005470 <vListInsertEnd>
 8005ffa:	f8d8 1000 	ldr.w	r1, [r8]
 8005ffe:	f8db 202c 	ldr.w	r2, [fp, #44]	; 0x2c
 8006002:	6acb      	ldr	r3, [r1, #44]	; 0x2c
 8006004:	429a      	cmp	r2, r3
 8006006:	bf28      	it	cs
 8006008:	2401      	movcs	r4, #1
 800600a:	e7c7      	b.n	8005f9c <xTaskIncrementTick+0x84>
 800600c:	4a0a      	ldr	r2, [pc, #40]	; (8006038 <xTaskIncrementTick+0x120>)
 800600e:	6813      	ldr	r3, [r2, #0]
 8006010:	3301      	adds	r3, #1
 8006012:	6013      	str	r3, [r2, #0]
 8006014:	2400      	movs	r4, #0
 8006016:	e7b9      	b.n	8005f8c <xTaskIncrementTick+0x74>
 8006018:	2000158c 	.word	0x2000158c
 800601c:	2000160c 	.word	0x2000160c
 8006020:	2000111c 	.word	0x2000111c
 8006024:	20001120 	.word	0x20001120
 8006028:	200015c4 	.word	0x200015c4
 800602c:	200015c0 	.word	0x200015c0
 8006030:	20001124 	.word	0x20001124
 8006034:	20001610 	.word	0x20001610
 8006038:	200015c8 	.word	0x200015c8
 800603c:	20001118 	.word	0x20001118
 8006040:	20001594 	.word	0x20001594

08006044 <xTaskResumeAll>:
 8006044:	b5f7      	push	{r0, r1, r2, r4, r5, r6, r7, lr}
 8006046:	4c31      	ldr	r4, [pc, #196]	; (800610c <xTaskResumeAll+0xc8>)
 8006048:	6823      	ldr	r3, [r4, #0]
 800604a:	b943      	cbnz	r3, 800605e <xTaskResumeAll+0x1a>
 800604c:	f04f 0350 	mov.w	r3, #80	; 0x50
 8006050:	f383 8811 	msr	BASEPRI, r3
 8006054:	f3bf 8f6f 	isb	sy
 8006058:	f3bf 8f4f 	dsb	sy
 800605c:	e7fe      	b.n	800605c <xTaskResumeAll+0x18>
 800605e:	f000 fc81 	bl	8006964 <vPortEnterCritical>
 8006062:	6823      	ldr	r3, [r4, #0]
 8006064:	3b01      	subs	r3, #1
 8006066:	6023      	str	r3, [r4, #0]
 8006068:	6824      	ldr	r4, [r4, #0]
 800606a:	b12c      	cbz	r4, 8006078 <xTaskResumeAll+0x34>
 800606c:	2400      	movs	r4, #0
 800606e:	f000 fc99 	bl	80069a4 <vPortExitCritical>
 8006072:	4620      	mov	r0, r4
 8006074:	b003      	add	sp, #12
 8006076:	bdf0      	pop	{r4, r5, r6, r7, pc}
 8006078:	4b25      	ldr	r3, [pc, #148]	; (8006110 <xTaskResumeAll+0xcc>)
 800607a:	681b      	ldr	r3, [r3, #0]
 800607c:	2b00      	cmp	r3, #0
 800607e:	d0f5      	beq.n	800606c <xTaskResumeAll+0x28>
 8006080:	4d24      	ldr	r5, [pc, #144]	; (8006114 <xTaskResumeAll+0xd0>)
 8006082:	4e25      	ldr	r6, [pc, #148]	; (8006118 <xTaskResumeAll+0xd4>)
 8006084:	4f25      	ldr	r7, [pc, #148]	; (800611c <xTaskResumeAll+0xd8>)
 8006086:	e01e      	b.n	80060c6 <xTaskResumeAll+0x82>
 8006088:	68eb      	ldr	r3, [r5, #12]
 800608a:	68dc      	ldr	r4, [r3, #12]
 800608c:	f104 0018 	add.w	r0, r4, #24
 8006090:	f7ff fa11 	bl	80054b6 <uxListRemove>
 8006094:	1d21      	adds	r1, r4, #4
 8006096:	4608      	mov	r0, r1
 8006098:	9101      	str	r1, [sp, #4]
 800609a:	f7ff fa0c 	bl	80054b6 <uxListRemove>
 800609e:	6ae3      	ldr	r3, [r4, #44]	; 0x2c
 80060a0:	6832      	ldr	r2, [r6, #0]
 80060a2:	9901      	ldr	r1, [sp, #4]
 80060a4:	2014      	movs	r0, #20
 80060a6:	4293      	cmp	r3, r2
 80060a8:	fb00 7003 	mla	r0, r0, r3, r7
 80060ac:	bf88      	it	hi
 80060ae:	6033      	strhi	r3, [r6, #0]
 80060b0:	f7ff f9de 	bl	8005470 <vListInsertEnd>
 80060b4:	4b1a      	ldr	r3, [pc, #104]	; (8006120 <xTaskResumeAll+0xdc>)
 80060b6:	6ae2      	ldr	r2, [r4, #44]	; 0x2c
 80060b8:	681b      	ldr	r3, [r3, #0]
 80060ba:	6adb      	ldr	r3, [r3, #44]	; 0x2c
 80060bc:	429a      	cmp	r2, r3
 80060be:	d302      	bcc.n	80060c6 <xTaskResumeAll+0x82>
 80060c0:	4b18      	ldr	r3, [pc, #96]	; (8006124 <xTaskResumeAll+0xe0>)
 80060c2:	2201      	movs	r2, #1
 80060c4:	601a      	str	r2, [r3, #0]
 80060c6:	682b      	ldr	r3, [r5, #0]
 80060c8:	2b00      	cmp	r3, #0
 80060ca:	d1dd      	bne.n	8006088 <xTaskResumeAll+0x44>
 80060cc:	b10c      	cbz	r4, 80060d2 <xTaskResumeAll+0x8e>
 80060ce:	f7ff fdbf 	bl	8005c50 <prvResetNextTaskUnblockTime>
 80060d2:	4d15      	ldr	r5, [pc, #84]	; (8006128 <xTaskResumeAll+0xe4>)
 80060d4:	682c      	ldr	r4, [r5, #0]
 80060d6:	b144      	cbz	r4, 80060ea <xTaskResumeAll+0xa6>
 80060d8:	4e12      	ldr	r6, [pc, #72]	; (8006124 <xTaskResumeAll+0xe0>)
 80060da:	2701      	movs	r7, #1
 80060dc:	f7ff ff1c 	bl	8005f18 <xTaskIncrementTick>
 80060e0:	b100      	cbz	r0, 80060e4 <xTaskResumeAll+0xa0>
 80060e2:	6037      	str	r7, [r6, #0]
 80060e4:	3c01      	subs	r4, #1
 80060e6:	d1f9      	bne.n	80060dc <xTaskResumeAll+0x98>
 80060e8:	602c      	str	r4, [r5, #0]
 80060ea:	4b0e      	ldr	r3, [pc, #56]	; (8006124 <xTaskResumeAll+0xe0>)
 80060ec:	681b      	ldr	r3, [r3, #0]
 80060ee:	2b00      	cmp	r3, #0
 80060f0:	d0bc      	beq.n	800606c <xTaskResumeAll+0x28>
 80060f2:	f04f 23e0 	mov.w	r3, #3758153728	; 0xe000e000
 80060f6:	f04f 5280 	mov.w	r2, #268435456	; 0x10000000
 80060fa:	f8c3 2d04 	str.w	r2, [r3, #3332]	; 0xd04
 80060fe:	f3bf 8f4f 	dsb	sy
 8006102:	f3bf 8f6f 	isb	sy
 8006106:	2401      	movs	r4, #1
 8006108:	e7b1      	b.n	800606e <xTaskResumeAll+0x2a>
 800610a:	bf00      	nop
 800610c:	2000158c 	.word	0x2000158c
 8006110:	20001584 	.word	0x20001584
 8006114:	200015cc 	.word	0x200015cc
 8006118:	20001594 	.word	0x20001594
 800611c:	20001124 	.word	0x20001124
 8006120:	20001118 	.word	0x20001118
 8006124:	20001610 	.word	0x20001610
 8006128:	200015c8 	.word	0x200015c8

0800612c <vTaskDelayUntil>:
 800612c:	b510      	push	{r4, lr}
 800612e:	b940      	cbnz	r0, 8006142 <vTaskDelayUntil+0x16>
 8006130:	f04f 0350 	mov.w	r3, #80	; 0x50
 8006134:	f383 8811 	msr	BASEPRI, r3
 8006138:	f3bf 8f6f 	isb	sy
 800613c:	f3bf 8f4f 	dsb	sy
 8006140:	e7fe      	b.n	8006140 <vTaskDelayUntil+0x14>
 8006142:	b941      	cbnz	r1, 8006156 <vTaskDelayUntil+0x2a>
 8006144:	f04f 0350 	mov.w	r3, #80	; 0x50
 8006148:	f383 8811 	msr	BASEPRI, r3
 800614c:	f3bf 8f6f 	isb	sy
 8006150:	f3bf 8f4f 	dsb	sy
 8006154:	e7fe      	b.n	8006154 <vTaskDelayUntil+0x28>
 8006156:	4b17      	ldr	r3, [pc, #92]	; (80061b4 <vTaskDelayUntil+0x88>)
 8006158:	681b      	ldr	r3, [r3, #0]
 800615a:	b143      	cbz	r3, 800616e <vTaskDelayUntil+0x42>
 800615c:	f04f 0350 	mov.w	r3, #80	; 0x50
 8006160:	f383 8811 	msr	BASEPRI, r3
 8006164:	f3bf 8f6f 	isb	sy
 8006168:	f3bf 8f4f 	dsb	sy
 800616c:	e7fe      	b.n	800616c <vTaskDelayUntil+0x40>
 800616e:	f7ff fec5 	bl	8005efc <vTaskSuspendAll>
 8006172:	4b11      	ldr	r3, [pc, #68]	; (80061b8 <vTaskDelayUntil+0x8c>)
 8006174:	6804      	ldr	r4, [r0, #0]
 8006176:	681a      	ldr	r2, [r3, #0]
 8006178:	1863      	adds	r3, r4, r1
 800617a:	bf2c      	ite	cs
 800617c:	2101      	movcs	r1, #1
 800617e:	2100      	movcc	r1, #0
 8006180:	4294      	cmp	r4, r2
 8006182:	6003      	str	r3, [r0, #0]
 8006184:	d90e      	bls.n	80061a4 <vTaskDelayUntil+0x78>
 8006186:	b971      	cbnz	r1, 80061a6 <vTaskDelayUntil+0x7a>
 8006188:	f7ff ff5c 	bl	8006044 <xTaskResumeAll>
 800618c:	b948      	cbnz	r0, 80061a2 <vTaskDelayUntil+0x76>
 800618e:	f04f 23e0 	mov.w	r3, #3758153728	; 0xe000e000
 8006192:	f04f 5280 	mov.w	r2, #268435456	; 0x10000000
 8006196:	f8c3 2d04 	str.w	r2, [r3, #3332]	; 0xd04
 800619a:	f3bf 8f4f 	dsb	sy
 800619e:	f3bf 8f6f 	isb	sy
 80061a2:	bd10      	pop	{r4, pc}
 80061a4:	b909      	cbnz	r1, 80061aa <vTaskDelayUntil+0x7e>
 80061a6:	429a      	cmp	r2, r3
 80061a8:	d2ee      	bcs.n	8006188 <vTaskDelayUntil+0x5c>
 80061aa:	2100      	movs	r1, #0
 80061ac:	1a98      	subs	r0, r3, r2
 80061ae:	f7ff fd17 	bl	8005be0 <prvAddCurrentTaskToDelayedList>
 80061b2:	e7e9      	b.n	8006188 <vTaskDelayUntil+0x5c>
 80061b4:	2000158c 	.word	0x2000158c
 80061b8:	2000160c 	.word	0x2000160c

080061bc <vTaskDelay>:
 80061bc:	b508      	push	{r3, lr}
 80061be:	b950      	cbnz	r0, 80061d6 <vTaskDelay+0x1a>
 80061c0:	f04f 23e0 	mov.w	r3, #3758153728	; 0xe000e000
 80061c4:	f04f 5280 	mov.w	r2, #268435456	; 0x10000000
 80061c8:	f8c3 2d04 	str.w	r2, [r3, #3332]	; 0xd04
 80061cc:	f3bf 8f4f 	dsb	sy
 80061d0:	f3bf 8f6f 	isb	sy
 80061d4:	bd08      	pop	{r3, pc}
 80061d6:	4b0a      	ldr	r3, [pc, #40]	; (8006200 <vTaskDelay+0x44>)
 80061d8:	6819      	ldr	r1, [r3, #0]
 80061da:	b141      	cbz	r1, 80061ee <vTaskDelay+0x32>
 80061dc:	f04f 0350 	mov.w	r3, #80	; 0x50
 80061e0:	f383 8811 	msr	BASEPRI, r3
 80061e4:	f3bf 8f6f 	isb	sy
 80061e8:	f3bf 8f4f 	dsb	sy
 80061ec:	e7fe      	b.n	80061ec <vTaskDelay+0x30>
 80061ee:	f7ff fe85 	bl	8005efc <vTaskSuspendAll>
 80061f2:	f7ff fcf5 	bl	8005be0 <prvAddCurrentTaskToDelayedList>
 80061f6:	f7ff ff25 	bl	8006044 <xTaskResumeAll>
 80061fa:	2800      	cmp	r0, #0
 80061fc:	d0e0      	beq.n	80061c0 <vTaskDelay+0x4>
 80061fe:	e7e9      	b.n	80061d4 <vTaskDelay+0x18>
 8006200:	2000158c 	.word	0x2000158c

08006204 <vTaskSwitchContext>:
 8006204:	4b17      	ldr	r3, [pc, #92]	; (8006264 <vTaskSwitchContext+0x60>)
 8006206:	681a      	ldr	r2, [r3, #0]
 8006208:	4b17      	ldr	r3, [pc, #92]	; (8006268 <vTaskSwitchContext+0x64>)
 800620a:	b570      	push	{r4, r5, r6, lr}
 800620c:	b112      	cbz	r2, 8006214 <vTaskSwitchContext+0x10>
 800620e:	2201      	movs	r2, #1
 8006210:	601a      	str	r2, [r3, #0]
 8006212:	bd70      	pop	{r4, r5, r6, pc}
 8006214:	4d15      	ldr	r5, [pc, #84]	; (800626c <vTaskSwitchContext+0x68>)
 8006216:	601a      	str	r2, [r3, #0]
 8006218:	682a      	ldr	r2, [r5, #0]
 800621a:	4915      	ldr	r1, [pc, #84]	; (8006270 <vTaskSwitchContext+0x6c>)
 800621c:	2614      	movs	r6, #20
 800621e:	fb06 f302 	mul.w	r3, r6, r2
 8006222:	18c8      	adds	r0, r1, r3
 8006224:	58cc      	ldr	r4, [r1, r3]
 8006226:	b18c      	cbz	r4, 800624c <vTaskSwitchContext+0x48>
 8006228:	6844      	ldr	r4, [r0, #4]
 800622a:	3308      	adds	r3, #8
 800622c:	6864      	ldr	r4, [r4, #4]
 800622e:	6044      	str	r4, [r0, #4]
 8006230:	440b      	add	r3, r1
 8006232:	429c      	cmp	r4, r3
 8006234:	bf04      	itt	eq
 8006236:	6863      	ldreq	r3, [r4, #4]
 8006238:	6043      	streq	r3, [r0, #4]
 800623a:	2314      	movs	r3, #20
 800623c:	fb03 1102 	mla	r1, r3, r2, r1
 8006240:	684b      	ldr	r3, [r1, #4]
 8006242:	68d9      	ldr	r1, [r3, #12]
 8006244:	4b0b      	ldr	r3, [pc, #44]	; (8006274 <vTaskSwitchContext+0x70>)
 8006246:	6019      	str	r1, [r3, #0]
 8006248:	602a      	str	r2, [r5, #0]
 800624a:	e7e2      	b.n	8006212 <vTaskSwitchContext+0xe>
 800624c:	b942      	cbnz	r2, 8006260 <vTaskSwitchContext+0x5c>
 800624e:	f04f 0350 	mov.w	r3, #80	; 0x50
 8006252:	f383 8811 	msr	BASEPRI, r3
 8006256:	f3bf 8f6f 	isb	sy
 800625a:	f3bf 8f4f 	dsb	sy
 800625e:	e7fe      	b.n	800625e <vTaskSwitchContext+0x5a>
 8006260:	3a01      	subs	r2, #1
 8006262:	e7dc      	b.n	800621e <vTaskSwitchContext+0x1a>
 8006264:	2000158c 	.word	0x2000158c
 8006268:	20001610 	.word	0x20001610
 800626c:	20001594 	.word	0x20001594
 8006270:	20001124 	.word	0x20001124
 8006274:	20001118 	.word	0x20001118

08006278 <vTaskPlaceOnEventList>:
 8006278:	b510      	push	{r4, lr}
 800627a:	460c      	mov	r4, r1
 800627c:	b940      	cbnz	r0, 8006290 <vTaskPlaceOnEventList+0x18>
 800627e:	f04f 0350 	mov.w	r3, #80	; 0x50
 8006282:	f383 8811 	msr	BASEPRI, r3
 8006286:	f3bf 8f6f 	isb	sy
 800628a:	f3bf 8f4f 	dsb	sy
 800628e:	e7fe      	b.n	800628e <vTaskPlaceOnEventList+0x16>
 8006290:	4b05      	ldr	r3, [pc, #20]	; (80062a8 <vTaskPlaceOnEventList+0x30>)
 8006292:	6819      	ldr	r1, [r3, #0]
 8006294:	3118      	adds	r1, #24
 8006296:	f7ff f8f7 	bl	8005488 <vListInsert>
 800629a:	4620      	mov	r0, r4
 800629c:	2101      	movs	r1, #1
 800629e:	e8bd 4010 	ldmia.w	sp!, {r4, lr}
 80062a2:	f7ff bc9d 	b.w	8005be0 <prvAddCurrentTaskToDelayedList>
 80062a6:	bf00      	nop
 80062a8:	20001118 	.word	0x20001118

080062ac <vTaskPlaceOnEventListRestricted>:
 80062ac:	b538      	push	{r3, r4, r5, lr}
 80062ae:	460d      	mov	r5, r1
 80062b0:	4614      	mov	r4, r2
 80062b2:	b940      	cbnz	r0, 80062c6 <vTaskPlaceOnEventListRestricted+0x1a>
 80062b4:	f04f 0350 	mov.w	r3, #80	; 0x50
 80062b8:	f383 8811 	msr	BASEPRI, r3
 80062bc:	f3bf 8f6f 	isb	sy
 80062c0:	f3bf 8f4f 	dsb	sy
 80062c4:	e7fe      	b.n	80062c4 <vTaskPlaceOnEventListRestricted+0x18>
 80062c6:	4b07      	ldr	r3, [pc, #28]	; (80062e4 <vTaskPlaceOnEventListRestricted+0x38>)
 80062c8:	6819      	ldr	r1, [r3, #0]
 80062ca:	3118      	adds	r1, #24
 80062cc:	f7ff f8d0 	bl	8005470 <vListInsertEnd>
 80062d0:	2c00      	cmp	r4, #0
 80062d2:	4621      	mov	r1, r4
 80062d4:	bf0c      	ite	eq
 80062d6:	4628      	moveq	r0, r5
 80062d8:	f04f 30ff 	movne.w	r0, #4294967295
 80062dc:	e8bd 4038 	ldmia.w	sp!, {r3, r4, r5, lr}
 80062e0:	f7ff bc7e 	b.w	8005be0 <prvAddCurrentTaskToDelayedList>
 80062e4:	20001118 	.word	0x20001118

080062e8 <xTaskRemoveFromEventList>:
 80062e8:	68c3      	ldr	r3, [r0, #12]
 80062ea:	b513      	push	{r0, r1, r4, lr}
 80062ec:	68dc      	ldr	r4, [r3, #12]
 80062ee:	b944      	cbnz	r4, 8006302 <xTaskRemoveFromEventList+0x1a>
 80062f0:	f04f 0350 	mov.w	r3, #80	; 0x50
 80062f4:	f383 8811 	msr	BASEPRI, r3
 80062f8:	f3bf 8f6f 	isb	sy
 80062fc:	f3bf 8f4f 	dsb	sy
 8006300:	e7fe      	b.n	8006300 <xTaskRemoveFromEventList+0x18>
 8006302:	f104 0118 	add.w	r1, r4, #24
 8006306:	4608      	mov	r0, r1
 8006308:	9101      	str	r1, [sp, #4]
 800630a:	f7ff f8d4 	bl	80054b6 <uxListRemove>
 800630e:	4b12      	ldr	r3, [pc, #72]	; (8006358 <xTaskRemoveFromEventList+0x70>)
 8006310:	9901      	ldr	r1, [sp, #4]
 8006312:	681b      	ldr	r3, [r3, #0]
 8006314:	b9eb      	cbnz	r3, 8006352 <xTaskRemoveFromEventList+0x6a>
 8006316:	1d21      	adds	r1, r4, #4
 8006318:	4608      	mov	r0, r1
 800631a:	9101      	str	r1, [sp, #4]
 800631c:	f7ff f8cb 	bl	80054b6 <uxListRemove>
 8006320:	4a0e      	ldr	r2, [pc, #56]	; (800635c <xTaskRemoveFromEventList+0x74>)
 8006322:	6ae3      	ldr	r3, [r4, #44]	; 0x2c
 8006324:	6810      	ldr	r0, [r2, #0]
 8006326:	9901      	ldr	r1, [sp, #4]
 8006328:	4283      	cmp	r3, r0
 800632a:	bf88      	it	hi
 800632c:	6013      	strhi	r3, [r2, #0]
 800632e:	4a0c      	ldr	r2, [pc, #48]	; (8006360 <xTaskRemoveFromEventList+0x78>)
 8006330:	2014      	movs	r0, #20
 8006332:	fb00 2003 	mla	r0, r0, r3, r2
 8006336:	f7ff f89b 	bl	8005470 <vListInsertEnd>
 800633a:	4b0a      	ldr	r3, [pc, #40]	; (8006364 <xTaskRemoveFromEventList+0x7c>)
 800633c:	6ae2      	ldr	r2, [r4, #44]	; 0x2c
 800633e:	681b      	ldr	r3, [r3, #0]
 8006340:	6adb      	ldr	r3, [r3, #44]	; 0x2c
 8006342:	429a      	cmp	r2, r3
 8006344:	bf85      	ittet	hi
 8006346:	4b08      	ldrhi	r3, [pc, #32]	; (8006368 <xTaskRemoveFromEventList+0x80>)
 8006348:	2001      	movhi	r0, #1
 800634a:	2000      	movls	r0, #0
 800634c:	6018      	strhi	r0, [r3, #0]
 800634e:	b002      	add	sp, #8
 8006350:	bd10      	pop	{r4, pc}
 8006352:	4806      	ldr	r0, [pc, #24]	; (800636c <xTaskRemoveFromEventList+0x84>)
 8006354:	e7ef      	b.n	8006336 <xTaskRemoveFromEventList+0x4e>
 8006356:	bf00      	nop
 8006358:	2000158c 	.word	0x2000158c
 800635c:	20001594 	.word	0x20001594
 8006360:	20001124 	.word	0x20001124
 8006364:	20001118 	.word	0x20001118
 8006368:	20001610 	.word	0x20001610
 800636c:	200015cc 	.word	0x200015cc

08006370 <vTaskInternalSetTimeOutState>:
 8006370:	4b03      	ldr	r3, [pc, #12]	; (8006380 <vTaskInternalSetTimeOutState+0x10>)
 8006372:	681b      	ldr	r3, [r3, #0]
 8006374:	6003      	str	r3, [r0, #0]
 8006376:	4b03      	ldr	r3, [pc, #12]	; (8006384 <vTaskInternalSetTimeOutState+0x14>)
 8006378:	681b      	ldr	r3, [r3, #0]
 800637a:	6043      	str	r3, [r0, #4]
 800637c:	4770      	bx	lr
 800637e:	bf00      	nop
 8006380:	200015c4 	.word	0x200015c4
 8006384:	2000160c 	.word	0x2000160c

08006388 <xTaskCheckForTimeOut>:
 8006388:	b570      	push	{r4, r5, r6, lr}
 800638a:	460c      	mov	r4, r1
 800638c:	4605      	mov	r5, r0
 800638e:	b940      	cbnz	r0, 80063a2 <xTaskCheckForTimeOut+0x1a>
 8006390:	f04f 0350 	mov.w	r3, #80	; 0x50
 8006394:	f383 8811 	msr	BASEPRI, r3
 8006398:	f3bf 8f6f 	isb	sy
 800639c:	f3bf 8f4f 	dsb	sy
 80063a0:	e7fe      	b.n	80063a0 <xTaskCheckForTimeOut+0x18>
 80063a2:	b941      	cbnz	r1, 80063b6 <xTaskCheckForTimeOut+0x2e>
 80063a4:	f04f 0350 	mov.w	r3, #80	; 0x50
 80063a8:	f383 8811 	msr	BASEPRI, r3
 80063ac:	f3bf 8f6f 	isb	sy
 80063b0:	f3bf 8f4f 	dsb	sy
 80063b4:	e7fe      	b.n	80063b4 <xTaskCheckForTimeOut+0x2c>
 80063b6:	f000 fad5 	bl	8006964 <vPortEnterCritical>
 80063ba:	4b0f      	ldr	r3, [pc, #60]	; (80063f8 <xTaskCheckForTimeOut+0x70>)
 80063bc:	6819      	ldr	r1, [r3, #0]
 80063be:	6823      	ldr	r3, [r4, #0]
 80063c0:	1c5a      	adds	r2, r3, #1
 80063c2:	d010      	beq.n	80063e6 <xTaskCheckForTimeOut+0x5e>
 80063c4:	480d      	ldr	r0, [pc, #52]	; (80063fc <xTaskCheckForTimeOut+0x74>)
 80063c6:	682e      	ldr	r6, [r5, #0]
 80063c8:	6800      	ldr	r0, [r0, #0]
 80063ca:	686a      	ldr	r2, [r5, #4]
 80063cc:	4286      	cmp	r6, r0
 80063ce:	d001      	beq.n	80063d4 <xTaskCheckForTimeOut+0x4c>
 80063d0:	428a      	cmp	r2, r1
 80063d2:	d90f      	bls.n	80063f4 <xTaskCheckForTimeOut+0x6c>
 80063d4:	1a88      	subs	r0, r1, r2
 80063d6:	4283      	cmp	r3, r0
 80063d8:	d90a      	bls.n	80063f0 <xTaskCheckForTimeOut+0x68>
 80063da:	1a5b      	subs	r3, r3, r1
 80063dc:	4413      	add	r3, r2
 80063de:	6023      	str	r3, [r4, #0]
 80063e0:	4628      	mov	r0, r5
 80063e2:	f7ff ffc5 	bl	8006370 <vTaskInternalSetTimeOutState>
 80063e6:	2400      	movs	r4, #0
 80063e8:	f000 fadc 	bl	80069a4 <vPortExitCritical>
 80063ec:	4620      	mov	r0, r4
 80063ee:	bd70      	pop	{r4, r5, r6, pc}
 80063f0:	2300      	movs	r3, #0
 80063f2:	6023      	str	r3, [r4, #0]
 80063f4:	2401      	movs	r4, #1
 80063f6:	e7f7      	b.n	80063e8 <xTaskCheckForTimeOut+0x60>
 80063f8:	2000160c 	.word	0x2000160c
 80063fc:	200015c4 	.word	0x200015c4

08006400 <vTaskMissedYield>:
 8006400:	4b01      	ldr	r3, [pc, #4]	; (8006408 <vTaskMissedYield+0x8>)
 8006402:	2201      	movs	r2, #1
 8006404:	601a      	str	r2, [r3, #0]
 8006406:	4770      	bx	lr
 8006408:	20001610 	.word	0x20001610

0800640c <xTaskGetSchedulerState>:
 800640c:	4b05      	ldr	r3, [pc, #20]	; (8006424 <xTaskGetSchedulerState+0x18>)
 800640e:	681b      	ldr	r3, [r3, #0]
 8006410:	b133      	cbz	r3, 8006420 <xTaskGetSchedulerState+0x14>
 8006412:	4b05      	ldr	r3, [pc, #20]	; (8006428 <xTaskGetSchedulerState+0x1c>)
 8006414:	681b      	ldr	r3, [r3, #0]
 8006416:	2b00      	cmp	r3, #0
 8006418:	bf0c      	ite	eq
 800641a:	2002      	moveq	r0, #2
 800641c:	2000      	movne	r0, #0
 800641e:	4770      	bx	lr
 8006420:	2001      	movs	r0, #1
 8006422:	4770      	bx	lr
 8006424:	200015e0 	.word	0x200015e0
 8006428:	2000158c 	.word	0x2000158c

0800642c <xTaskPriorityDisinherit>:
 800642c:	b513      	push	{r0, r1, r4, lr}
 800642e:	b910      	cbnz	r0, 8006436 <xTaskPriorityDisinherit+0xa>
 8006430:	2000      	movs	r0, #0
 8006432:	b002      	add	sp, #8
 8006434:	bd10      	pop	{r4, pc}
 8006436:	4b1c      	ldr	r3, [pc, #112]	; (80064a8 <xTaskPriorityDisinherit+0x7c>)
 8006438:	681c      	ldr	r4, [r3, #0]
 800643a:	4284      	cmp	r4, r0
 800643c:	d008      	beq.n	8006450 <xTaskPriorityDisinherit+0x24>
 800643e:	f04f 0350 	mov.w	r3, #80	; 0x50
 8006442:	f383 8811 	msr	BASEPRI, r3
 8006446:	f3bf 8f6f 	isb	sy
 800644a:	f3bf 8f4f 	dsb	sy
 800644e:	e7fe      	b.n	800644e <xTaskPriorityDisinherit+0x22>
 8006450:	6d23      	ldr	r3, [r4, #80]	; 0x50
 8006452:	b943      	cbnz	r3, 8006466 <xTaskPriorityDisinherit+0x3a>
 8006454:	f04f 0350 	mov.w	r3, #80	; 0x50
 8006458:	f383 8811 	msr	BASEPRI, r3
 800645c:	f3bf 8f6f 	isb	sy
 8006460:	f3bf 8f4f 	dsb	sy
 8006464:	e7fe      	b.n	8006464 <xTaskPriorityDisinherit+0x38>
 8006466:	6ae1      	ldr	r1, [r4, #44]	; 0x2c
 8006468:	6ce2      	ldr	r2, [r4, #76]	; 0x4c
 800646a:	3b01      	subs	r3, #1
 800646c:	4291      	cmp	r1, r2
 800646e:	6523      	str	r3, [r4, #80]	; 0x50
 8006470:	d0de      	beq.n	8006430 <xTaskPriorityDisinherit+0x4>
 8006472:	2b00      	cmp	r3, #0
 8006474:	d1dc      	bne.n	8006430 <xTaskPriorityDisinherit+0x4>
 8006476:	1d21      	adds	r1, r4, #4
 8006478:	4608      	mov	r0, r1
 800647a:	9101      	str	r1, [sp, #4]
 800647c:	f7ff f81b 	bl	80054b6 <uxListRemove>
 8006480:	6ce3      	ldr	r3, [r4, #76]	; 0x4c
 8006482:	9901      	ldr	r1, [sp, #4]
 8006484:	62e3      	str	r3, [r4, #44]	; 0x2c
 8006486:	f1c3 0238 	rsb	r2, r3, #56	; 0x38
 800648a:	61a2      	str	r2, [r4, #24]
 800648c:	4a07      	ldr	r2, [pc, #28]	; (80064ac <xTaskPriorityDisinherit+0x80>)
 800648e:	6810      	ldr	r0, [r2, #0]
 8006490:	4283      	cmp	r3, r0
 8006492:	bf88      	it	hi
 8006494:	6013      	strhi	r3, [r2, #0]
 8006496:	4a06      	ldr	r2, [pc, #24]	; (80064b0 <xTaskPriorityDisinherit+0x84>)
 8006498:	2014      	movs	r0, #20
 800649a:	fb00 2003 	mla	r0, r0, r3, r2
 800649e:	f7fe ffe7 	bl	8005470 <vListInsertEnd>
 80064a2:	2001      	movs	r0, #1
 80064a4:	e7c5      	b.n	8006432 <xTaskPriorityDisinherit+0x6>
 80064a6:	bf00      	nop
 80064a8:	20001118 	.word	0x20001118
 80064ac:	20001594 	.word	0x20001594
 80064b0:	20001124 	.word	0x20001124

080064b4 <prvCheckForValidListAndQueue>:
 80064b4:	b5f7      	push	{r0, r1, r2, r4, r5, r6, r7, lr}
 80064b6:	4c11      	ldr	r4, [pc, #68]	; (80064fc <prvCheckForValidListAndQueue+0x48>)
 80064b8:	f000 fa54 	bl	8006964 <vPortEnterCritical>
 80064bc:	6825      	ldr	r5, [r4, #0]
 80064be:	b9bd      	cbnz	r5, 80064f0 <prvCheckForValidListAndQueue+0x3c>
 80064c0:	4f0f      	ldr	r7, [pc, #60]	; (8006500 <prvCheckForValidListAndQueue+0x4c>)
 80064c2:	4e10      	ldr	r6, [pc, #64]	; (8006504 <prvCheckForValidListAndQueue+0x50>)
 80064c4:	4638      	mov	r0, r7
 80064c6:	f7fe ffc5 	bl	8005454 <vListInitialise>
 80064ca:	4630      	mov	r0, r6
 80064cc:	f7fe ffc2 	bl	8005454 <vListInitialise>
 80064d0:	4b0d      	ldr	r3, [pc, #52]	; (8006508 <prvCheckForValidListAndQueue+0x54>)
 80064d2:	4a0e      	ldr	r2, [pc, #56]	; (800650c <prvCheckForValidListAndQueue+0x58>)
 80064d4:	601f      	str	r7, [r3, #0]
 80064d6:	4b0e      	ldr	r3, [pc, #56]	; (8006510 <prvCheckForValidListAndQueue+0x5c>)
 80064d8:	2110      	movs	r1, #16
 80064da:	601e      	str	r6, [r3, #0]
 80064dc:	200a      	movs	r0, #10
 80064de:	4b0d      	ldr	r3, [pc, #52]	; (8006514 <prvCheckForValidListAndQueue+0x60>)
 80064e0:	9500      	str	r5, [sp, #0]
 80064e2:	f7ff f8c5 	bl	8005670 <xQueueGenericCreateStatic>
 80064e6:	6020      	str	r0, [r4, #0]
 80064e8:	b110      	cbz	r0, 80064f0 <prvCheckForValidListAndQueue+0x3c>
 80064ea:	490b      	ldr	r1, [pc, #44]	; (8006518 <prvCheckForValidListAndQueue+0x64>)
 80064ec:	f7ff fac2 	bl	8005a74 <vQueueAddToRegistry>
 80064f0:	b003      	add	sp, #12
 80064f2:	e8bd 40f0 	ldmia.w	sp!, {r4, r5, r6, r7, lr}
 80064f6:	f000 ba55 	b.w	80069a4 <vPortExitCritical>
 80064fa:	bf00      	nop
 80064fc:	20001738 	.word	0x20001738
 8006500:	200016bc 	.word	0x200016bc
 8006504:	200016d0 	.word	0x200016d0
 8006508:	20001614 	.word	0x20001614
 800650c:	2000161c 	.word	0x2000161c
 8006510:	20001618 	.word	0x20001618
 8006514:	200016e8 	.word	0x200016e8
 8006518:	0800a9f1 	.word	0x0800a9f1

0800651c <prvInsertTimerInActiveList>:
 800651c:	4291      	cmp	r1, r2
 800651e:	b508      	push	{r3, lr}
 8006520:	6041      	str	r1, [r0, #4]
 8006522:	6100      	str	r0, [r0, #16]
 8006524:	d80a      	bhi.n	800653c <prvInsertTimerInActiveList+0x20>
 8006526:	1ad2      	subs	r2, r2, r3
 8006528:	6983      	ldr	r3, [r0, #24]
 800652a:	429a      	cmp	r2, r3
 800652c:	d20d      	bcs.n	800654a <prvInsertTimerInActiveList+0x2e>
 800652e:	4b08      	ldr	r3, [pc, #32]	; (8006550 <prvInsertTimerInActiveList+0x34>)
 8006530:	1d01      	adds	r1, r0, #4
 8006532:	6818      	ldr	r0, [r3, #0]
 8006534:	f7fe ffa8 	bl	8005488 <vListInsert>
 8006538:	2000      	movs	r0, #0
 800653a:	bd08      	pop	{r3, pc}
 800653c:	429a      	cmp	r2, r3
 800653e:	d201      	bcs.n	8006544 <prvInsertTimerInActiveList+0x28>
 8006540:	4299      	cmp	r1, r3
 8006542:	d202      	bcs.n	800654a <prvInsertTimerInActiveList+0x2e>
 8006544:	4b03      	ldr	r3, [pc, #12]	; (8006554 <prvInsertTimerInActiveList+0x38>)
 8006546:	1d01      	adds	r1, r0, #4
 8006548:	e7f3      	b.n	8006532 <prvInsertTimerInActiveList+0x16>
 800654a:	2001      	movs	r0, #1
 800654c:	e7f5      	b.n	800653a <prvInsertTimerInActiveList+0x1e>
 800654e:	bf00      	nop
 8006550:	20001618 	.word	0x20001618
 8006554:	20001614 	.word	0x20001614

08006558 <xTimerCreateTimerTask>:
 8006558:	b510      	push	{r4, lr}
 800655a:	b088      	sub	sp, #32
 800655c:	f7ff ffaa 	bl	80064b4 <prvCheckForValidListAndQueue>
 8006560:	4b12      	ldr	r3, [pc, #72]	; (80065ac <xTimerCreateTimerTask+0x54>)
 8006562:	681b      	ldr	r3, [r3, #0]
 8006564:	b1b3      	cbz	r3, 8006594 <xTimerCreateTimerTask+0x3c>
 8006566:	2400      	movs	r4, #0
 8006568:	aa07      	add	r2, sp, #28
 800656a:	a906      	add	r1, sp, #24
 800656c:	a805      	add	r0, sp, #20
 800656e:	e9cd 4405 	strd	r4, r4, [sp, #20]
 8006572:	f7fe ff63 	bl	800543c <vApplicationGetTimerTaskMemory>
 8006576:	9b05      	ldr	r3, [sp, #20]
 8006578:	9302      	str	r3, [sp, #8]
 800657a:	9b06      	ldr	r3, [sp, #24]
 800657c:	9301      	str	r3, [sp, #4]
 800657e:	2302      	movs	r3, #2
 8006580:	9300      	str	r3, [sp, #0]
 8006582:	9a07      	ldr	r2, [sp, #28]
 8006584:	490a      	ldr	r1, [pc, #40]	; (80065b0 <xTimerCreateTimerTask+0x58>)
 8006586:	480b      	ldr	r0, [pc, #44]	; (80065b4 <xTimerCreateTimerTask+0x5c>)
 8006588:	4623      	mov	r3, r4
 800658a:	f7ff fc0c 	bl	8005da6 <xTaskCreateStatic>
 800658e:	4b0a      	ldr	r3, [pc, #40]	; (80065b8 <xTimerCreateTimerTask+0x60>)
 8006590:	6018      	str	r0, [r3, #0]
 8006592:	b940      	cbnz	r0, 80065a6 <xTimerCreateTimerTask+0x4e>
 8006594:	f04f 0350 	mov.w	r3, #80	; 0x50
 8006598:	f383 8811 	msr	BASEPRI, r3
 800659c:	f3bf 8f6f 	isb	sy
 80065a0:	f3bf 8f4f 	dsb	sy
 80065a4:	e7fe      	b.n	80065a4 <xTimerCreateTimerTask+0x4c>
 80065a6:	2001      	movs	r0, #1
 80065a8:	b008      	add	sp, #32
 80065aa:	bd10      	pop	{r4, pc}
 80065ac:	20001738 	.word	0x20001738
 80065b0:	0800a9f6 	.word	0x0800a9f6
 80065b4:	080066c1 	.word	0x080066c1
 80065b8:	2000173c 	.word	0x2000173c

080065bc <xTimerGenericCommand>:
 80065bc:	b57f      	push	{r0, r1, r2, r3, r4, r5, r6, lr}
 80065be:	4616      	mov	r6, r2
 80065c0:	4604      	mov	r4, r0
 80065c2:	461a      	mov	r2, r3
 80065c4:	b940      	cbnz	r0, 80065d8 <xTimerGenericCommand+0x1c>
 80065c6:	f04f 0350 	mov.w	r3, #80	; 0x50
 80065ca:	f383 8811 	msr	BASEPRI, r3
 80065ce:	f3bf 8f6f 	isb	sy
 80065d2:	f3bf 8f4f 	dsb	sy
 80065d6:	e7fe      	b.n	80065d6 <xTimerGenericCommand+0x1a>
 80065d8:	4d0d      	ldr	r5, [pc, #52]	; (8006610 <xTimerGenericCommand+0x54>)
 80065da:	6828      	ldr	r0, [r5, #0]
 80065dc:	b180      	cbz	r0, 8006600 <xTimerGenericCommand+0x44>
 80065de:	2905      	cmp	r1, #5
 80065e0:	e9cd 1600 	strd	r1, r6, [sp]
 80065e4:	9402      	str	r4, [sp, #8]
 80065e6:	dc0d      	bgt.n	8006604 <xTimerGenericCommand+0x48>
 80065e8:	f7ff ff10 	bl	800640c <xTaskGetSchedulerState>
 80065ec:	2300      	movs	r3, #0
 80065ee:	2802      	cmp	r0, #2
 80065f0:	bf08      	it	eq
 80065f2:	9a08      	ldreq	r2, [sp, #32]
 80065f4:	6828      	ldr	r0, [r5, #0]
 80065f6:	bf18      	it	ne
 80065f8:	461a      	movne	r2, r3
 80065fa:	4669      	mov	r1, sp
 80065fc:	f7ff f886 	bl	800570c <xQueueGenericSend>
 8006600:	b004      	add	sp, #16
 8006602:	bd70      	pop	{r4, r5, r6, pc}
 8006604:	2300      	movs	r3, #0
 8006606:	4669      	mov	r1, sp
 8006608:	f7ff f933 	bl	8005872 <xQueueGenericSendFromISR>
 800660c:	e7f8      	b.n	8006600 <xTimerGenericCommand+0x44>
 800660e:	bf00      	nop
 8006610:	20001738 	.word	0x20001738

08006614 <prvSampleTimeNow>:
 8006614:	e92d 47ff 	stmdb	sp!, {r0, r1, r2, r3, r4, r5, r6, r7, r8, r9, sl, lr}
 8006618:	f8df 80a0 	ldr.w	r8, [pc, #160]	; 80066bc <prvSampleTimeNow+0xa8>
 800661c:	4606      	mov	r6, r0
 800661e:	f7ff fc75 	bl	8005f0c <xTaskGetTickCount>
 8006622:	f8d8 3000 	ldr.w	r3, [r8]
 8006626:	4283      	cmp	r3, r0
 8006628:	4605      	mov	r5, r0
 800662a:	d940      	bls.n	80066ae <prvSampleTimeNow+0x9a>
 800662c:	4f21      	ldr	r7, [pc, #132]	; (80066b4 <prvSampleTimeNow+0xa0>)
 800662e:	f04f 0900 	mov.w	r9, #0
 8006632:	683b      	ldr	r3, [r7, #0]
 8006634:	681a      	ldr	r2, [r3, #0]
 8006636:	b95a      	cbnz	r2, 8006650 <prvSampleTimeNow+0x3c>
 8006638:	4a1f      	ldr	r2, [pc, #124]	; (80066b8 <prvSampleTimeNow+0xa4>)
 800663a:	6811      	ldr	r1, [r2, #0]
 800663c:	6039      	str	r1, [r7, #0]
 800663e:	6013      	str	r3, [r2, #0]
 8006640:	2301      	movs	r3, #1
 8006642:	4628      	mov	r0, r5
 8006644:	6033      	str	r3, [r6, #0]
 8006646:	f8c8 5000 	str.w	r5, [r8]
 800664a:	b004      	add	sp, #16
 800664c:	e8bd 87f0 	ldmia.w	sp!, {r4, r5, r6, r7, r8, r9, sl, pc}
 8006650:	68db      	ldr	r3, [r3, #12]
 8006652:	68dc      	ldr	r4, [r3, #12]
 8006654:	f8d3 a000 	ldr.w	sl, [r3]
 8006658:	1d21      	adds	r1, r4, #4
 800665a:	4608      	mov	r0, r1
 800665c:	9103      	str	r1, [sp, #12]
 800665e:	f7fe ff2a 	bl	80054b6 <uxListRemove>
 8006662:	6a23      	ldr	r3, [r4, #32]
 8006664:	4620      	mov	r0, r4
 8006666:	4798      	blx	r3
 8006668:	f894 3028 	ldrb.w	r3, [r4, #40]	; 0x28
 800666c:	9903      	ldr	r1, [sp, #12]
 800666e:	f013 0f04 	tst.w	r3, #4
 8006672:	d0de      	beq.n	8006632 <prvSampleTimeNow+0x1e>
 8006674:	69a3      	ldr	r3, [r4, #24]
 8006676:	4453      	add	r3, sl
 8006678:	459a      	cmp	sl, r3
 800667a:	d205      	bcs.n	8006688 <prvSampleTimeNow+0x74>
 800667c:	6838      	ldr	r0, [r7, #0]
 800667e:	6063      	str	r3, [r4, #4]
 8006680:	6124      	str	r4, [r4, #16]
 8006682:	f7fe ff01 	bl	8005488 <vListInsert>
 8006686:	e7d4      	b.n	8006632 <prvSampleTimeNow+0x1e>
 8006688:	2300      	movs	r3, #0
 800668a:	f8cd 9000 	str.w	r9, [sp]
 800668e:	4652      	mov	r2, sl
 8006690:	4619      	mov	r1, r3
 8006692:	4620      	mov	r0, r4
 8006694:	f7ff ff92 	bl	80065bc <xTimerGenericCommand>
 8006698:	2800      	cmp	r0, #0
 800669a:	d1ca      	bne.n	8006632 <prvSampleTimeNow+0x1e>
 800669c:	f04f 0350 	mov.w	r3, #80	; 0x50
 80066a0:	f383 8811 	msr	BASEPRI, r3
 80066a4:	f3bf 8f6f 	isb	sy
 80066a8:	f3bf 8f4f 	dsb	sy
 80066ac:	e7fe      	b.n	80066ac <prvSampleTimeNow+0x98>
 80066ae:	2300      	movs	r3, #0
 80066b0:	e7c7      	b.n	8006642 <prvSampleTimeNow+0x2e>
 80066b2:	bf00      	nop
 80066b4:	20001614 	.word	0x20001614
 80066b8:	20001618 	.word	0x20001618
 80066bc:	200016e4 	.word	0x200016e4

080066c0 <prvTimerTask>:
 80066c0:	e92d 43f0 	stmdb	sp!, {r4, r5, r6, r7, r8, r9, lr}
 80066c4:	4d6e      	ldr	r5, [pc, #440]	; (8006880 <prvTimerTask+0x1c0>)
 80066c6:	4e6f      	ldr	r6, [pc, #444]	; (8006884 <prvTimerTask+0x1c4>)
 80066c8:	b089      	sub	sp, #36	; 0x24
 80066ca:	682b      	ldr	r3, [r5, #0]
 80066cc:	f8d3 8000 	ldr.w	r8, [r3]
 80066d0:	f1b8 0f00 	cmp.w	r8, #0
 80066d4:	d035      	beq.n	8006742 <prvTimerTask+0x82>
 80066d6:	68db      	ldr	r3, [r3, #12]
 80066d8:	f8d3 8000 	ldr.w	r8, [r3]
 80066dc:	2400      	movs	r4, #0
 80066de:	f7ff fc0d 	bl	8005efc <vTaskSuspendAll>
 80066e2:	a804      	add	r0, sp, #16
 80066e4:	f7ff ff96 	bl	8006614 <prvSampleTimeNow>
 80066e8:	9b04      	ldr	r3, [sp, #16]
 80066ea:	4681      	mov	r9, r0
 80066ec:	2b00      	cmp	r3, #0
 80066ee:	d169      	bne.n	80067c4 <prvTimerTask+0x104>
 80066f0:	2c00      	cmp	r4, #0
 80066f2:	d14c      	bne.n	800678e <prvTimerTask+0xce>
 80066f4:	4540      	cmp	r0, r8
 80066f6:	d350      	bcc.n	800679a <prvTimerTask+0xda>
 80066f8:	f7ff fca4 	bl	8006044 <xTaskResumeAll>
 80066fc:	682b      	ldr	r3, [r5, #0]
 80066fe:	68db      	ldr	r3, [r3, #12]
 8006700:	68df      	ldr	r7, [r3, #12]
 8006702:	1d38      	adds	r0, r7, #4
 8006704:	f7fe fed7 	bl	80054b6 <uxListRemove>
 8006708:	f897 3028 	ldrb.w	r3, [r7, #40]	; 0x28
 800670c:	0758      	lsls	r0, r3, #29
 800670e:	d51a      	bpl.n	8006746 <prvTimerTask+0x86>
 8006710:	69b9      	ldr	r1, [r7, #24]
 8006712:	4643      	mov	r3, r8
 8006714:	464a      	mov	r2, r9
 8006716:	4441      	add	r1, r8
 8006718:	4638      	mov	r0, r7
 800671a:	f7ff feff 	bl	800651c <prvInsertTimerInActiveList>
 800671e:	b1b0      	cbz	r0, 800674e <prvTimerTask+0x8e>
 8006720:	9400      	str	r4, [sp, #0]
 8006722:	4623      	mov	r3, r4
 8006724:	4642      	mov	r2, r8
 8006726:	4621      	mov	r1, r4
 8006728:	4638      	mov	r0, r7
 800672a:	f7ff ff47 	bl	80065bc <xTimerGenericCommand>
 800672e:	b970      	cbnz	r0, 800674e <prvTimerTask+0x8e>
 8006730:	f04f 0350 	mov.w	r3, #80	; 0x50
 8006734:	f383 8811 	msr	BASEPRI, r3
 8006738:	f3bf 8f6f 	isb	sy
 800673c:	f3bf 8f4f 	dsb	sy
 8006740:	e7fe      	b.n	8006740 <prvTimerTask+0x80>
 8006742:	2401      	movs	r4, #1
 8006744:	e7cb      	b.n	80066de <prvTimerTask+0x1e>
 8006746:	f023 0301 	bic.w	r3, r3, #1
 800674a:	f887 3028 	strb.w	r3, [r7, #40]	; 0x28
 800674e:	6a3b      	ldr	r3, [r7, #32]
 8006750:	4638      	mov	r0, r7
 8006752:	4798      	blx	r3
 8006754:	6830      	ldr	r0, [r6, #0]
 8006756:	2200      	movs	r2, #0
 8006758:	a904      	add	r1, sp, #16
 800675a:	f7ff f8ec 	bl	8005936 <xQueueReceive>
 800675e:	2800      	cmp	r0, #0
 8006760:	d0b3      	beq.n	80066ca <prvTimerTask+0xa>
 8006762:	9b04      	ldr	r3, [sp, #16]
 8006764:	9806      	ldr	r0, [sp, #24]
 8006766:	2b00      	cmp	r3, #0
 8006768:	db2f      	blt.n	80067ca <prvTimerTask+0x10a>
 800676a:	9c06      	ldr	r4, [sp, #24]
 800676c:	6963      	ldr	r3, [r4, #20]
 800676e:	2b00      	cmp	r3, #0
 8006770:	d132      	bne.n	80067d8 <prvTimerTask+0x118>
 8006772:	a803      	add	r0, sp, #12
 8006774:	f7ff ff4e 	bl	8006614 <prvSampleTimeNow>
 8006778:	9b04      	ldr	r3, [sp, #16]
 800677a:	4602      	mov	r2, r0
 800677c:	2b09      	cmp	r3, #9
 800677e:	d8e9      	bhi.n	8006754 <prvTimerTask+0x94>
 8006780:	e8df f003 	tbb	[pc, r3]
 8006784:	572e2e2e 	.word	0x572e2e2e
 8006788:	2e2e765e 	.word	0x2e2e765e
 800678c:	5e57      	.short	0x5e57
 800678e:	4b3e      	ldr	r3, [pc, #248]	; (8006888 <prvTimerTask+0x1c8>)
 8006790:	681b      	ldr	r3, [r3, #0]
 8006792:	681c      	ldr	r4, [r3, #0]
 8006794:	fab4 f484 	clz	r4, r4
 8006798:	0964      	lsrs	r4, r4, #5
 800679a:	6830      	ldr	r0, [r6, #0]
 800679c:	4622      	mov	r2, r4
 800679e:	eba8 0109 	sub.w	r1, r8, r9
 80067a2:	f7ff f979 	bl	8005a98 <vQueueWaitForMessageRestricted>
 80067a6:	f7ff fc4d 	bl	8006044 <xTaskResumeAll>
 80067aa:	2800      	cmp	r0, #0
 80067ac:	d1d2      	bne.n	8006754 <prvTimerTask+0x94>
 80067ae:	f04f 23e0 	mov.w	r3, #3758153728	; 0xe000e000
 80067b2:	f04f 5280 	mov.w	r2, #268435456	; 0x10000000
 80067b6:	f8c3 2d04 	str.w	r2, [r3, #3332]	; 0xd04
 80067ba:	f3bf 8f4f 	dsb	sy
 80067be:	f3bf 8f6f 	isb	sy
 80067c2:	e7c7      	b.n	8006754 <prvTimerTask+0x94>
 80067c4:	f7ff fc3e 	bl	8006044 <xTaskResumeAll>
 80067c8:	e7c4      	b.n	8006754 <prvTimerTask+0x94>
 80067ca:	9b05      	ldr	r3, [sp, #20]
 80067cc:	9907      	ldr	r1, [sp, #28]
 80067ce:	4798      	blx	r3
 80067d0:	9b04      	ldr	r3, [sp, #16]
 80067d2:	2b00      	cmp	r3, #0
 80067d4:	dbbe      	blt.n	8006754 <prvTimerTask+0x94>
 80067d6:	e7c8      	b.n	800676a <prvTimerTask+0xaa>
 80067d8:	1d20      	adds	r0, r4, #4
 80067da:	f7fe fe6c 	bl	80054b6 <uxListRemove>
 80067de:	e7c8      	b.n	8006772 <prvTimerTask+0xb2>
 80067e0:	f894 3028 	ldrb.w	r3, [r4, #40]	; 0x28
 80067e4:	69a1      	ldr	r1, [r4, #24]
 80067e6:	f043 0301 	orr.w	r3, r3, #1
 80067ea:	f884 3028 	strb.w	r3, [r4, #40]	; 0x28
 80067ee:	9b05      	ldr	r3, [sp, #20]
 80067f0:	4620      	mov	r0, r4
 80067f2:	4419      	add	r1, r3
 80067f4:	f7ff fe92 	bl	800651c <prvInsertTimerInActiveList>
 80067f8:	2800      	cmp	r0, #0
 80067fa:	d0ab      	beq.n	8006754 <prvTimerTask+0x94>
 80067fc:	6a23      	ldr	r3, [r4, #32]
 80067fe:	4620      	mov	r0, r4
 8006800:	4798      	blx	r3
 8006802:	f894 3028 	ldrb.w	r3, [r4, #40]	; 0x28
 8006806:	0759      	lsls	r1, r3, #29
 8006808:	d5a4      	bpl.n	8006754 <prvTimerTask+0x94>
 800680a:	69a2      	ldr	r2, [r4, #24]
 800680c:	9905      	ldr	r1, [sp, #20]
 800680e:	2300      	movs	r3, #0
 8006810:	440a      	add	r2, r1
 8006812:	9300      	str	r3, [sp, #0]
 8006814:	4619      	mov	r1, r3
 8006816:	4620      	mov	r0, r4
 8006818:	f7ff fed0 	bl	80065bc <xTimerGenericCommand>
 800681c:	2800      	cmp	r0, #0
 800681e:	d199      	bne.n	8006754 <prvTimerTask+0x94>
 8006820:	f04f 0350 	mov.w	r3, #80	; 0x50
 8006824:	f383 8811 	msr	BASEPRI, r3
 8006828:	f3bf 8f6f 	isb	sy
 800682c:	f3bf 8f4f 	dsb	sy
 8006830:	e7fe      	b.n	8006830 <prvTimerTask+0x170>
 8006832:	f894 3028 	ldrb.w	r3, [r4, #40]	; 0x28
 8006836:	f023 0301 	bic.w	r3, r3, #1
 800683a:	f884 3028 	strb.w	r3, [r4, #40]	; 0x28
 800683e:	e789      	b.n	8006754 <prvTimerTask+0x94>
 8006840:	f894 3028 	ldrb.w	r3, [r4, #40]	; 0x28
 8006844:	f043 0301 	orr.w	r3, r3, #1
 8006848:	f884 3028 	strb.w	r3, [r4, #40]	; 0x28
 800684c:	9905      	ldr	r1, [sp, #20]
 800684e:	61a1      	str	r1, [r4, #24]
 8006850:	b941      	cbnz	r1, 8006864 <prvTimerTask+0x1a4>
 8006852:	f04f 0350 	mov.w	r3, #80	; 0x50
 8006856:	f383 8811 	msr	BASEPRI, r3
 800685a:	f3bf 8f6f 	isb	sy
 800685e:	f3bf 8f4f 	dsb	sy
 8006862:	e7fe      	b.n	8006862 <prvTimerTask+0x1a2>
 8006864:	4603      	mov	r3, r0
 8006866:	4401      	add	r1, r0
 8006868:	4620      	mov	r0, r4
 800686a:	f7ff fe57 	bl	800651c <prvInsertTimerInActiveList>
 800686e:	e771      	b.n	8006754 <prvTimerTask+0x94>
 8006870:	f894 3028 	ldrb.w	r3, [r4, #40]	; 0x28
 8006874:	079a      	lsls	r2, r3, #30
 8006876:	d4de      	bmi.n	8006836 <prvTimerTask+0x176>
 8006878:	4620      	mov	r0, r4
 800687a:	f000 fa73 	bl	8006d64 <vPortFree>
 800687e:	e769      	b.n	8006754 <prvTimerTask+0x94>
 8006880:	20001614 	.word	0x20001614
 8006884:	20001738 	.word	0x20001738
 8006888:	20001618 	.word	0x20001618

0800688c <prvPortStartFirstTask>:
 800688c:	4808      	ldr	r0, [pc, #32]	; (80068b0 <prvPortStartFirstTask+0x24>)
 800688e:	6800      	ldr	r0, [r0, #0]
 8006890:	6800      	ldr	r0, [r0, #0]
 8006892:	f380 8808 	msr	MSP, r0
 8006896:	f04f 0000 	mov.w	r0, #0
 800689a:	f380 8814 	msr	CONTROL, r0
 800689e:	b662      	cpsie	i
 80068a0:	b661      	cpsie	f
 80068a2:	f3bf 8f4f 	dsb	sy
 80068a6:	f3bf 8f6f 	isb	sy
 80068aa:	df00      	svc	0
 80068ac:	bf00      	nop
 80068ae:	0000      	.short	0x0000
 80068b0:	e000ed08 	.word	0xe000ed08

080068b4 <vPortEnableVFP>:
 80068b4:	f8df 000c 	ldr.w	r0, [pc, #12]	; 80068c4 <vPortEnableVFP+0x10>
 80068b8:	6801      	ldr	r1, [r0, #0]
 80068ba:	f441 0170 	orr.w	r1, r1, #15728640	; 0xf00000
 80068be:	6001      	str	r1, [r0, #0]
 80068c0:	4770      	bx	lr
 80068c2:	0000      	.short	0x0000
 80068c4:	e000ed88 	.word	0xe000ed88

080068c8 <prvTaskExitError>:
 80068c8:	b082      	sub	sp, #8
 80068ca:	2300      	movs	r3, #0
 80068cc:	9301      	str	r3, [sp, #4]
 80068ce:	4b0d      	ldr	r3, [pc, #52]	; (8006904 <prvTaskExitError+0x3c>)
 80068d0:	681b      	ldr	r3, [r3, #0]
 80068d2:	3301      	adds	r3, #1
 80068d4:	d008      	beq.n	80068e8 <prvTaskExitError+0x20>
 80068d6:	f04f 0350 	mov.w	r3, #80	; 0x50
 80068da:	f383 8811 	msr	BASEPRI, r3
 80068de:	f3bf 8f6f 	isb	sy
 80068e2:	f3bf 8f4f 	dsb	sy
 80068e6:	e7fe      	b.n	80068e6 <prvTaskExitError+0x1e>
 80068e8:	f04f 0350 	mov.w	r3, #80	; 0x50
 80068ec:	f383 8811 	msr	BASEPRI, r3
 80068f0:	f3bf 8f6f 	isb	sy
 80068f4:	f3bf 8f4f 	dsb	sy
 80068f8:	9b01      	ldr	r3, [sp, #4]
 80068fa:	2b00      	cmp	r3, #0
 80068fc:	d0fc      	beq.n	80068f8 <prvTaskExitError+0x30>
 80068fe:	b002      	add	sp, #8
 8006900:	4770      	bx	lr
 8006902:	bf00      	nop
 8006904:	20000038 	.word	0x20000038

08006908 <pxPortInitialiseStack>:
 8006908:	f04f 7380 	mov.w	r3, #16777216	; 0x1000000
 800690c:	f840 3c04 	str.w	r3, [r0, #-4]
 8006910:	4b07      	ldr	r3, [pc, #28]	; (8006930 <pxPortInitialiseStack+0x28>)
 8006912:	f840 3c0c 	str.w	r3, [r0, #-12]
 8006916:	f021 0101 	bic.w	r1, r1, #1
 800691a:	f06f 0302 	mvn.w	r3, #2
 800691e:	f840 1c08 	str.w	r1, [r0, #-8]
 8006922:	f840 2c20 	str.w	r2, [r0, #-32]
 8006926:	f840 3c24 	str.w	r3, [r0, #-36]
 800692a:	3844      	subs	r0, #68	; 0x44
 800692c:	4770      	bx	lr
 800692e:	bf00      	nop
 8006930:	080068c9 	.word	0x080068c9
	...

08006940 <SVC_Handler>:
 8006940:	4b07      	ldr	r3, [pc, #28]	; (8006960 <pxCurrentTCBConst2>)
 8006942:	6819      	ldr	r1, [r3, #0]
 8006944:	6808      	ldr	r0, [r1, #0]
 8006946:	e8b0 4ff0 	ldmia.w	r0!, {r4, r5, r6, r7, r8, r9, sl, fp, lr}
 800694a:	f380 8809 	msr	PSP, r0
 800694e:	f3bf 8f6f 	isb	sy
 8006952:	f04f 0000 	mov.w	r0, #0
 8006956:	f380 8811 	msr	BASEPRI, r0
 800695a:	4770      	bx	lr
 800695c:	f3af 8000 	nop.w

08006960 <pxCurrentTCBConst2>:
 8006960:	20001118 	.word	0x20001118

08006964 <vPortEnterCritical>:
 8006964:	f04f 0350 	mov.w	r3, #80	; 0x50
 8006968:	f383 8811 	msr	BASEPRI, r3
 800696c:	f3bf 8f6f 	isb	sy
 8006970:	f3bf 8f4f 	dsb	sy
 8006974:	4a0a      	ldr	r2, [pc, #40]	; (80069a0 <vPortEnterCritical+0x3c>)
 8006976:	6813      	ldr	r3, [r2, #0]
 8006978:	3301      	adds	r3, #1
 800697a:	2b01      	cmp	r3, #1
 800697c:	6013      	str	r3, [r2, #0]
 800697e:	d10e      	bne.n	800699e <vPortEnterCritical+0x3a>
 8006980:	f04f 23e0 	mov.w	r3, #3758153728	; 0xe000e000
 8006984:	f8d3 3d04 	ldr.w	r3, [r3, #3332]	; 0xd04
 8006988:	b2db      	uxtb	r3, r3
 800698a:	b143      	cbz	r3, 800699e <vPortEnterCritical+0x3a>
 800698c:	f04f 0350 	mov.w	r3, #80	; 0x50
 8006990:	f383 8811 	msr	BASEPRI, r3
 8006994:	f3bf 8f6f 	isb	sy
 8006998:	f3bf 8f4f 	dsb	sy
 800699c:	e7fe      	b.n	800699c <vPortEnterCritical+0x38>
 800699e:	4770      	bx	lr
 80069a0:	20000038 	.word	0x20000038

080069a4 <vPortExitCritical>:
 80069a4:	4a08      	ldr	r2, [pc, #32]	; (80069c8 <vPortExitCritical+0x24>)
 80069a6:	6813      	ldr	r3, [r2, #0]
 80069a8:	b943      	cbnz	r3, 80069bc <vPortExitCritical+0x18>
 80069aa:	f04f 0350 	mov.w	r3, #80	; 0x50
 80069ae:	f383 8811 	msr	BASEPRI, r3
 80069b2:	f3bf 8f6f 	isb	sy
 80069b6:	f3bf 8f4f 	dsb	sy
 80069ba:	e7fe      	b.n	80069ba <vPortExitCritical+0x16>
 80069bc:	3b01      	subs	r3, #1
 80069be:	6013      	str	r3, [r2, #0]
 80069c0:	b90b      	cbnz	r3, 80069c6 <vPortExitCritical+0x22>
 80069c2:	f383 8811 	msr	BASEPRI, r3
 80069c6:	4770      	bx	lr
 80069c8:	20000038 	.word	0x20000038
 80069cc:	00000000 	.word	0x00000000

080069d0 <PendSV_Handler>:
 80069d0:	f3ef 8009 	mrs	r0, PSP
 80069d4:	f3bf 8f6f 	isb	sy
 80069d8:	4b15      	ldr	r3, [pc, #84]	; (8006a30 <pxCurrentTCBConst>)
 80069da:	681a      	ldr	r2, [r3, #0]
 80069dc:	f01e 0f10 	tst.w	lr, #16
 80069e0:	bf08      	it	eq
 80069e2:	ed20 8a10 	vstmdbeq	r0!, {s16-s31}
 80069e6:	e920 4ff0 	stmdb	r0!, {r4, r5, r6, r7, r8, r9, sl, fp, lr}
 80069ea:	6010      	str	r0, [r2, #0]
 80069ec:	e92d 0009 	stmdb	sp!, {r0, r3}
 80069f0:	f04f 0050 	mov.w	r0, #80	; 0x50
 80069f4:	f380 8811 	msr	BASEPRI, r0
 80069f8:	f3bf 8f4f 	dsb	sy
 80069fc:	f3bf 8f6f 	isb	sy
 8006a00:	f7ff fc00 	bl	8006204 <vTaskSwitchContext>
 8006a04:	f04f 0000 	mov.w	r0, #0
 8006a08:	f380 8811 	msr	BASEPRI, r0
 8006a0c:	bc09      	pop	{r0, r3}
 8006a0e:	6819      	ldr	r1, [r3, #0]
 8006a10:	6808      	ldr	r0, [r1, #0]
 8006a12:	e8b0 4ff0 	ldmia.w	r0!, {r4, r5, r6, r7, r8, r9, sl, fp, lr}
 8006a16:	f01e 0f10 	tst.w	lr, #16
 8006a1a:	bf08      	it	eq
 8006a1c:	ecb0 8a10 	vldmiaeq	r0!, {s16-s31}
 8006a20:	f380 8809 	msr	PSP, r0
 8006a24:	f3bf 8f6f 	isb	sy
 8006a28:	4770      	bx	lr
 8006a2a:	bf00      	nop
 8006a2c:	f3af 8000 	nop.w

08006a30 <pxCurrentTCBConst>:
 8006a30:	20001118 	.word	0x20001118

08006a34 <xPortSysTickHandler>:
 8006a34:	b508      	push	{r3, lr}
 8006a36:	f04f 0350 	mov.w	r3, #80	; 0x50
 8006a3a:	f383 8811 	msr	BASEPRI, r3
 8006a3e:	f3bf 8f6f 	isb	sy
 8006a42:	f3bf 8f4f 	dsb	sy
 8006a46:	f7ff fa67 	bl	8005f18 <xTaskIncrementTick>
 8006a4a:	b128      	cbz	r0, 8006a58 <xPortSysTickHandler+0x24>
 8006a4c:	f04f 23e0 	mov.w	r3, #3758153728	; 0xe000e000
 8006a50:	f04f 5280 	mov.w	r2, #268435456	; 0x10000000
 8006a54:	f8c3 2d04 	str.w	r2, [r3, #3332]	; 0xd04
 8006a58:	2300      	movs	r3, #0
 8006a5a:	f383 8811 	msr	BASEPRI, r3
 8006a5e:	bd08      	pop	{r3, pc}

08006a60 <vPortSetupTimerInterrupt>:
 8006a60:	f04f 22e0 	mov.w	r2, #3758153728	; 0xe000e000
 8006a64:	2300      	movs	r3, #0
 8006a66:	6113      	str	r3, [r2, #16]
 8006a68:	6193      	str	r3, [r2, #24]
 8006a6a:	4b05      	ldr	r3, [pc, #20]	; (8006a80 <vPortSetupTimerInterrupt+0x20>)
 8006a6c:	f44f 717a 	mov.w	r1, #1000	; 0x3e8
 8006a70:	681b      	ldr	r3, [r3, #0]
 8006a72:	fbb3 f3f1 	udiv	r3, r3, r1
 8006a76:	3b01      	subs	r3, #1
 8006a78:	6153      	str	r3, [r2, #20]
 8006a7a:	2307      	movs	r3, #7
 8006a7c:	6113      	str	r3, [r2, #16]
 8006a7e:	4770      	bx	lr
 8006a80:	2000002c 	.word	0x2000002c

08006a84 <xPortStartScheduler>:
 8006a84:	f04f 23e0 	mov.w	r3, #3758153728	; 0xe000e000
 8006a88:	b537      	push	{r0, r1, r2, r4, r5, lr}
 8006a8a:	f8d3 1d00 	ldr.w	r1, [r3, #3328]	; 0xd00
 8006a8e:	4a3a      	ldr	r2, [pc, #232]	; (8006b78 <xPortStartScheduler+0xf4>)
 8006a90:	4291      	cmp	r1, r2
 8006a92:	d108      	bne.n	8006aa6 <xPortStartScheduler+0x22>
 8006a94:	f04f 0350 	mov.w	r3, #80	; 0x50
 8006a98:	f383 8811 	msr	BASEPRI, r3
 8006a9c:	f3bf 8f6f 	isb	sy
 8006aa0:	f3bf 8f4f 	dsb	sy
 8006aa4:	e7fe      	b.n	8006aa4 <xPortStartScheduler+0x20>
 8006aa6:	f8d3 2d00 	ldr.w	r2, [r3, #3328]	; 0xd00
 8006aaa:	4b34      	ldr	r3, [pc, #208]	; (8006b7c <xPortStartScheduler+0xf8>)
 8006aac:	429a      	cmp	r2, r3
 8006aae:	d108      	bne.n	8006ac2 <xPortStartScheduler+0x3e>
 8006ab0:	f04f 0350 	mov.w	r3, #80	; 0x50
 8006ab4:	f383 8811 	msr	BASEPRI, r3
 8006ab8:	f3bf 8f6f 	isb	sy
 8006abc:	f3bf 8f4f 	dsb	sy
 8006ac0:	e7fe      	b.n	8006ac0 <xPortStartScheduler+0x3c>
 8006ac2:	4b2f      	ldr	r3, [pc, #188]	; (8006b80 <xPortStartScheduler+0xfc>)
 8006ac4:	781a      	ldrb	r2, [r3, #0]
 8006ac6:	b2d2      	uxtb	r2, r2
 8006ac8:	9201      	str	r2, [sp, #4]
 8006aca:	22ff      	movs	r2, #255	; 0xff
 8006acc:	701a      	strb	r2, [r3, #0]
 8006ace:	781b      	ldrb	r3, [r3, #0]
 8006ad0:	4a2c      	ldr	r2, [pc, #176]	; (8006b84 <xPortStartScheduler+0x100>)
 8006ad2:	b2db      	uxtb	r3, r3
 8006ad4:	f88d 3003 	strb.w	r3, [sp, #3]
 8006ad8:	f89d 3003 	ldrb.w	r3, [sp, #3]
 8006adc:	f003 0350 	and.w	r3, r3, #80	; 0x50
 8006ae0:	7013      	strb	r3, [r2, #0]
 8006ae2:	4a29      	ldr	r2, [pc, #164]	; (8006b88 <xPortStartScheduler+0x104>)
 8006ae4:	2307      	movs	r3, #7
 8006ae6:	6013      	str	r3, [r2, #0]
 8006ae8:	2100      	movs	r1, #0
 8006aea:	f89d 0003 	ldrb.w	r0, [sp, #3]
 8006aee:	0600      	lsls	r0, r0, #24
 8006af0:	f103 34ff 	add.w	r4, r3, #4294967295
 8006af4:	d40c      	bmi.n	8006b10 <xPortStartScheduler+0x8c>
 8006af6:	b111      	cbz	r1, 8006afe <xPortStartScheduler+0x7a>
 8006af8:	2b03      	cmp	r3, #3
 8006afa:	6013      	str	r3, [r2, #0]
 8006afc:	d011      	beq.n	8006b22 <xPortStartScheduler+0x9e>
 8006afe:	f04f 0350 	mov.w	r3, #80	; 0x50
 8006b02:	f383 8811 	msr	BASEPRI, r3
 8006b06:	f3bf 8f6f 	isb	sy
 8006b0a:	f3bf 8f4f 	dsb	sy
 8006b0e:	e7fe      	b.n	8006b0e <xPortStartScheduler+0x8a>
 8006b10:	f89d 3003 	ldrb.w	r3, [sp, #3]
 8006b14:	005b      	lsls	r3, r3, #1
 8006b16:	b2db      	uxtb	r3, r3
 8006b18:	f88d 3003 	strb.w	r3, [sp, #3]
 8006b1c:	2101      	movs	r1, #1
 8006b1e:	4623      	mov	r3, r4
 8006b20:	e7e3      	b.n	8006aea <xPortStartScheduler+0x66>
 8006b22:	f44f 7340 	mov.w	r3, #768	; 0x300
 8006b26:	6013      	str	r3, [r2, #0]
 8006b28:	9b01      	ldr	r3, [sp, #4]
 8006b2a:	4a15      	ldr	r2, [pc, #84]	; (8006b80 <xPortStartScheduler+0xfc>)
 8006b2c:	f04f 24e0 	mov.w	r4, #3758153728	; 0xe000e000
 8006b30:	b2db      	uxtb	r3, r3
 8006b32:	7013      	strb	r3, [r2, #0]
 8006b34:	f8d4 3d20 	ldr.w	r3, [r4, #3360]	; 0xd20
 8006b38:	f443 0370 	orr.w	r3, r3, #15728640	; 0xf00000
 8006b3c:	f8c4 3d20 	str.w	r3, [r4, #3360]	; 0xd20
 8006b40:	f8d4 3d20 	ldr.w	r3, [r4, #3360]	; 0xd20
 8006b44:	f043 4370 	orr.w	r3, r3, #4026531840	; 0xf0000000
 8006b48:	f8c4 3d20 	str.w	r3, [r4, #3360]	; 0xd20
 8006b4c:	f7ff ff88 	bl	8006a60 <vPortSetupTimerInterrupt>
 8006b50:	4b0e      	ldr	r3, [pc, #56]	; (8006b8c <xPortStartScheduler+0x108>)
 8006b52:	2500      	movs	r5, #0
 8006b54:	601d      	str	r5, [r3, #0]
 8006b56:	f7ff fead 	bl	80068b4 <vPortEnableVFP>
 8006b5a:	f8d4 3f34 	ldr.w	r3, [r4, #3892]	; 0xf34
 8006b5e:	f043 4340 	orr.w	r3, r3, #3221225472	; 0xc0000000
 8006b62:	f8c4 3f34 	str.w	r3, [r4, #3892]	; 0xf34
 8006b66:	f7ff fe91 	bl	800688c <prvPortStartFirstTask>
 8006b6a:	f7ff fb4b 	bl	8006204 <vTaskSwitchContext>
 8006b6e:	f7ff feab 	bl	80068c8 <prvTaskExitError>
 8006b72:	4628      	mov	r0, r5
 8006b74:	b003      	add	sp, #12
 8006b76:	bd30      	pop	{r4, r5, pc}
 8006b78:	410fc271 	.word	0x410fc271
 8006b7c:	410fc270 	.word	0x410fc270
 8006b80:	e000e400 	.word	0xe000e400
 8006b84:	20001740 	.word	0x20001740
 8006b88:	20001744 	.word	0x20001744
 8006b8c:	20000038 	.word	0x20000038

08006b90 <vPortValidateInterruptPriority>:
 8006b90:	f3ef 8305 	mrs	r3, IPSR
 8006b94:	2b0f      	cmp	r3, #15
 8006b96:	d90e      	bls.n	8006bb6 <vPortValidateInterruptPriority+0x26>
 8006b98:	4a11      	ldr	r2, [pc, #68]	; (8006be0 <vPortValidateInterruptPriority+0x50>)
 8006b9a:	5c9b      	ldrb	r3, [r3, r2]
 8006b9c:	4a11      	ldr	r2, [pc, #68]	; (8006be4 <vPortValidateInterruptPriority+0x54>)
 8006b9e:	7812      	ldrb	r2, [r2, #0]
 8006ba0:	429a      	cmp	r2, r3
 8006ba2:	d908      	bls.n	8006bb6 <vPortValidateInterruptPriority+0x26>
 8006ba4:	f04f 0350 	mov.w	r3, #80	; 0x50
 8006ba8:	f383 8811 	msr	BASEPRI, r3
 8006bac:	f3bf 8f6f 	isb	sy
 8006bb0:	f3bf 8f4f 	dsb	sy
 8006bb4:	e7fe      	b.n	8006bb4 <vPortValidateInterruptPriority+0x24>
 8006bb6:	f04f 23e0 	mov.w	r3, #3758153728	; 0xe000e000
 8006bba:	4a0b      	ldr	r2, [pc, #44]	; (8006be8 <vPortValidateInterruptPriority+0x58>)
 8006bbc:	f8d3 3d0c 	ldr.w	r3, [r3, #3340]	; 0xd0c
 8006bc0:	6812      	ldr	r2, [r2, #0]
 8006bc2:	f403 63e0 	and.w	r3, r3, #1792	; 0x700
 8006bc6:	4293      	cmp	r3, r2
 8006bc8:	d908      	bls.n	8006bdc <vPortValidateInterruptPriority+0x4c>
 8006bca:	f04f 0350 	mov.w	r3, #80	; 0x50
 8006bce:	f383 8811 	msr	BASEPRI, r3
 8006bd2:	f3bf 8f6f 	isb	sy
 8006bd6:	f3bf 8f4f 	dsb	sy
 8006bda:	e7fe      	b.n	8006bda <vPortValidateInterruptPriority+0x4a>
 8006bdc:	4770      	bx	lr
 8006bde:	bf00      	nop
 8006be0:	e000e3f0 	.word	0xe000e3f0
 8006be4:	20001740 	.word	0x20001740
 8006be8:	20001744 	.word	0x20001744

08006bec <prvInsertBlockIntoFreeList>:
 8006bec:	b510      	push	{r4, lr}
 8006bee:	4b0f      	ldr	r3, [pc, #60]	; (8006c2c <prvInsertBlockIntoFreeList+0x40>)
 8006bf0:	461a      	mov	r2, r3
 8006bf2:	681b      	ldr	r3, [r3, #0]
 8006bf4:	4283      	cmp	r3, r0
 8006bf6:	d3fb      	bcc.n	8006bf0 <prvInsertBlockIntoFreeList+0x4>
 8006bf8:	6854      	ldr	r4, [r2, #4]
 8006bfa:	1911      	adds	r1, r2, r4
 8006bfc:	4288      	cmp	r0, r1
 8006bfe:	bf01      	itttt	eq
 8006c00:	6841      	ldreq	r1, [r0, #4]
 8006c02:	4610      	moveq	r0, r2
 8006c04:	1909      	addeq	r1, r1, r4
 8006c06:	6051      	streq	r1, [r2, #4]
 8006c08:	6844      	ldr	r4, [r0, #4]
 8006c0a:	1901      	adds	r1, r0, r4
 8006c0c:	428b      	cmp	r3, r1
 8006c0e:	d107      	bne.n	8006c20 <prvInsertBlockIntoFreeList+0x34>
 8006c10:	4907      	ldr	r1, [pc, #28]	; (8006c30 <prvInsertBlockIntoFreeList+0x44>)
 8006c12:	6809      	ldr	r1, [r1, #0]
 8006c14:	428b      	cmp	r3, r1
 8006c16:	bf1f      	itttt	ne
 8006c18:	6859      	ldrne	r1, [r3, #4]
 8006c1a:	681b      	ldrne	r3, [r3, #0]
 8006c1c:	1909      	addne	r1, r1, r4
 8006c1e:	6041      	strne	r1, [r0, #4]
 8006c20:	4290      	cmp	r0, r2
 8006c22:	6003      	str	r3, [r0, #0]
 8006c24:	bf18      	it	ne
 8006c26:	6010      	strne	r0, [r2, #0]
 8006c28:	bd10      	pop	{r4, pc}
 8006c2a:	bf00      	nop
 8006c2c:	20005360 	.word	0x20005360
 8006c30:	20001748 	.word	0x20001748

08006c34 <pvPortMalloc>:
 8006c34:	e92d 41f0 	stmdb	sp!, {r4, r5, r6, r7, r8, lr}
 8006c38:	4604      	mov	r4, r0
 8006c3a:	f7ff f95f 	bl	8005efc <vTaskSuspendAll>
 8006c3e:	4842      	ldr	r0, [pc, #264]	; (8006d48 <pvPortMalloc+0x114>)
 8006c40:	4d42      	ldr	r5, [pc, #264]	; (8006d4c <pvPortMalloc+0x118>)
 8006c42:	6803      	ldr	r3, [r0, #0]
 8006c44:	bb0b      	cbnz	r3, 8006c8a <pvPortMalloc+0x56>
 8006c46:	4942      	ldr	r1, [pc, #264]	; (8006d50 <pvPortMalloc+0x11c>)
 8006c48:	074e      	lsls	r6, r1, #29
 8006c4a:	bf1f      	itttt	ne
 8006c4c:	1dcb      	addne	r3, r1, #7
 8006c4e:	f023 0307 	bicne.w	r3, r3, #7
 8006c52:	f501 5270 	addne.w	r2, r1, #15360	; 0x3c00
 8006c56:	1ad2      	subne	r2, r2, r3
 8006c58:	bf14      	ite	ne
 8006c5a:	4619      	movne	r1, r3
 8006c5c:	f44f 5270 	moveq.w	r2, #15360	; 0x3c00
 8006c60:	440a      	add	r2, r1
 8006c62:	4e3c      	ldr	r6, [pc, #240]	; (8006d54 <pvPortMalloc+0x120>)
 8006c64:	3a08      	subs	r2, #8
 8006c66:	f022 0207 	bic.w	r2, r2, #7
 8006c6a:	2300      	movs	r3, #0
 8006c6c:	6073      	str	r3, [r6, #4]
 8006c6e:	6031      	str	r1, [r6, #0]
 8006c70:	e9c2 3300 	strd	r3, r3, [r2]
 8006c74:	1a53      	subs	r3, r2, r1
 8006c76:	e9c1 2300 	strd	r2, r3, [r1]
 8006c7a:	6002      	str	r2, [r0, #0]
 8006c7c:	4a36      	ldr	r2, [pc, #216]	; (8006d58 <pvPortMalloc+0x124>)
 8006c7e:	6013      	str	r3, [r2, #0]
 8006c80:	4a36      	ldr	r2, [pc, #216]	; (8006d5c <pvPortMalloc+0x128>)
 8006c82:	6013      	str	r3, [r2, #0]
 8006c84:	f04f 4300 	mov.w	r3, #2147483648	; 0x80000000
 8006c88:	602b      	str	r3, [r5, #0]
 8006c8a:	682f      	ldr	r7, [r5, #0]
 8006c8c:	4227      	tst	r7, r4
 8006c8e:	d155      	bne.n	8006d3c <pvPortMalloc+0x108>
 8006c90:	2c00      	cmp	r4, #0
 8006c92:	d046      	beq.n	8006d22 <pvPortMalloc+0xee>
 8006c94:	f104 0308 	add.w	r3, r4, #8
 8006c98:	0761      	lsls	r1, r4, #29
 8006c9a:	bf1c      	itt	ne
 8006c9c:	f023 0307 	bicne.w	r3, r3, #7
 8006ca0:	3308      	addne	r3, #8
 8006ca2:	2b00      	cmp	r3, #0
 8006ca4:	d04a      	beq.n	8006d3c <pvPortMalloc+0x108>
 8006ca6:	4c2d      	ldr	r4, [pc, #180]	; (8006d5c <pvPortMalloc+0x128>)
 8006ca8:	6826      	ldr	r6, [r4, #0]
 8006caa:	429e      	cmp	r6, r3
 8006cac:	d346      	bcc.n	8006d3c <pvPortMalloc+0x108>
 8006cae:	4a29      	ldr	r2, [pc, #164]	; (8006d54 <pvPortMalloc+0x120>)
 8006cb0:	6815      	ldr	r5, [r2, #0]
 8006cb2:	6869      	ldr	r1, [r5, #4]
 8006cb4:	4299      	cmp	r1, r3
 8006cb6:	d204      	bcs.n	8006cc2 <pvPortMalloc+0x8e>
 8006cb8:	f8d5 c000 	ldr.w	ip, [r5]
 8006cbc:	f1bc 0f00 	cmp.w	ip, #0
 8006cc0:	d115      	bne.n	8006cee <pvPortMalloc+0xba>
 8006cc2:	6800      	ldr	r0, [r0, #0]
 8006cc4:	42a8      	cmp	r0, r5
 8006cc6:	d039      	beq.n	8006d3c <pvPortMalloc+0x108>
 8006cc8:	1ac9      	subs	r1, r1, r3
 8006cca:	6828      	ldr	r0, [r5, #0]
 8006ccc:	f8d2 8000 	ldr.w	r8, [r2]
 8006cd0:	6010      	str	r0, [r2, #0]
 8006cd2:	2910      	cmp	r1, #16
 8006cd4:	d912      	bls.n	8006cfc <pvPortMalloc+0xc8>
 8006cd6:	18e8      	adds	r0, r5, r3
 8006cd8:	0742      	lsls	r2, r0, #29
 8006cda:	d00b      	beq.n	8006cf4 <pvPortMalloc+0xc0>
 8006cdc:	f04f 0350 	mov.w	r3, #80	; 0x50
 8006ce0:	f383 8811 	msr	BASEPRI, r3
 8006ce4:	f3bf 8f6f 	isb	sy
 8006ce8:	f3bf 8f4f 	dsb	sy
 8006cec:	e7fe      	b.n	8006cec <pvPortMalloc+0xb8>
 8006cee:	462a      	mov	r2, r5
 8006cf0:	4665      	mov	r5, ip
 8006cf2:	e7de      	b.n	8006cb2 <pvPortMalloc+0x7e>
 8006cf4:	6041      	str	r1, [r0, #4]
 8006cf6:	606b      	str	r3, [r5, #4]
 8006cf8:	f7ff ff78 	bl	8006bec <prvInsertBlockIntoFreeList>
 8006cfc:	686b      	ldr	r3, [r5, #4]
 8006cfe:	4916      	ldr	r1, [pc, #88]	; (8006d58 <pvPortMalloc+0x124>)
 8006d00:	4a17      	ldr	r2, [pc, #92]	; (8006d60 <pvPortMalloc+0x12c>)
 8006d02:	6808      	ldr	r0, [r1, #0]
 8006d04:	1af6      	subs	r6, r6, r3
 8006d06:	431f      	orrs	r7, r3
 8006d08:	2300      	movs	r3, #0
 8006d0a:	602b      	str	r3, [r5, #0]
 8006d0c:	6813      	ldr	r3, [r2, #0]
 8006d0e:	6026      	str	r6, [r4, #0]
 8006d10:	4286      	cmp	r6, r0
 8006d12:	f103 0301 	add.w	r3, r3, #1
 8006d16:	bf38      	it	cc
 8006d18:	600e      	strcc	r6, [r1, #0]
 8006d1a:	f108 0408 	add.w	r4, r8, #8
 8006d1e:	606f      	str	r7, [r5, #4]
 8006d20:	6013      	str	r3, [r2, #0]
 8006d22:	f7ff f98f 	bl	8006044 <xTaskResumeAll>
 8006d26:	0763      	lsls	r3, r4, #29
 8006d28:	d00a      	beq.n	8006d40 <pvPortMalloc+0x10c>
 8006d2a:	f04f 0350 	mov.w	r3, #80	; 0x50
 8006d2e:	f383 8811 	msr	BASEPRI, r3
 8006d32:	f3bf 8f6f 	isb	sy
 8006d36:	f3bf 8f4f 	dsb	sy
 8006d3a:	e7fe      	b.n	8006d3a <pvPortMalloc+0x106>
 8006d3c:	2400      	movs	r4, #0
 8006d3e:	e7f0      	b.n	8006d22 <pvPortMalloc+0xee>
 8006d40:	4620      	mov	r0, r4
 8006d42:	e8bd 81f0 	ldmia.w	sp!, {r4, r5, r6, r7, r8, pc}
 8006d46:	bf00      	nop
 8006d48:	20001748 	.word	0x20001748
 8006d4c:	2000534c 	.word	0x2000534c
 8006d50:	2000174c 	.word	0x2000174c
 8006d54:	20005360 	.word	0x20005360
 8006d58:	20005354 	.word	0x20005354
 8006d5c:	20005350 	.word	0x20005350
 8006d60:	20005358 	.word	0x20005358

08006d64 <vPortFree>:
 8006d64:	b510      	push	{r4, lr}
 8006d66:	4604      	mov	r4, r0
 8006d68:	b390      	cbz	r0, 8006dd0 <vPortFree+0x6c>
 8006d6a:	4a1a      	ldr	r2, [pc, #104]	; (8006dd4 <vPortFree+0x70>)
 8006d6c:	f850 3c04 	ldr.w	r3, [r0, #-4]
 8006d70:	6812      	ldr	r2, [r2, #0]
 8006d72:	4213      	tst	r3, r2
 8006d74:	d108      	bne.n	8006d88 <vPortFree+0x24>
 8006d76:	f04f 0350 	mov.w	r3, #80	; 0x50
 8006d7a:	f383 8811 	msr	BASEPRI, r3
 8006d7e:	f3bf 8f6f 	isb	sy
 8006d82:	f3bf 8f4f 	dsb	sy
 8006d86:	e7fe      	b.n	8006d86 <vPortFree+0x22>
 8006d88:	f850 1c08 	ldr.w	r1, [r0, #-8]
 8006d8c:	b141      	cbz	r1, 8006da0 <vPortFree+0x3c>
 8006d8e:	f04f 0350 	mov.w	r3, #80	; 0x50
 8006d92:	f383 8811 	msr	BASEPRI, r3
 8006d96:	f3bf 8f6f 	isb	sy
 8006d9a:	f3bf 8f4f 	dsb	sy
 8006d9e:	e7fe      	b.n	8006d9e <vPortFree+0x3a>
 8006da0:	ea23 0302 	bic.w	r3, r3, r2
 8006da4:	f840 3c04 	str.w	r3, [r0, #-4]
 8006da8:	f7ff f8a8 	bl	8005efc <vTaskSuspendAll>
 8006dac:	4a0a      	ldr	r2, [pc, #40]	; (8006dd8 <vPortFree+0x74>)
 8006dae:	f854 3c04 	ldr.w	r3, [r4, #-4]
 8006db2:	6811      	ldr	r1, [r2, #0]
 8006db4:	f1a4 0008 	sub.w	r0, r4, #8
 8006db8:	440b      	add	r3, r1
 8006dba:	6013      	str	r3, [r2, #0]
 8006dbc:	f7ff ff16 	bl	8006bec <prvInsertBlockIntoFreeList>
 8006dc0:	4a06      	ldr	r2, [pc, #24]	; (8006ddc <vPortFree+0x78>)
 8006dc2:	6813      	ldr	r3, [r2, #0]
 8006dc4:	e8bd 4010 	ldmia.w	sp!, {r4, lr}
 8006dc8:	3301      	adds	r3, #1
 8006dca:	6013      	str	r3, [r2, #0]
 8006dcc:	f7ff b93a 	b.w	8006044 <xTaskResumeAll>
 8006dd0:	bd10      	pop	{r4, pc}
 8006dd2:	bf00      	nop
 8006dd4:	2000534c 	.word	0x2000534c
 8006dd8:	20005350 	.word	0x20005350
 8006ddc:	2000535c 	.word	0x2000535c

08006de0 <atoi>:
 8006de0:	220a      	movs	r2, #10
 8006de2:	2100      	movs	r1, #0
 8006de4:	f000 bdb0 	b.w	8007948 <strtol>

08006de8 <__errno>:
 8006de8:	4b01      	ldr	r3, [pc, #4]	; (8006df0 <__errno+0x8>)
 8006dea:	6818      	ldr	r0, [r3, #0]
 8006dec:	4770      	bx	lr
 8006dee:	bf00      	nop
 8006df0:	2000003c 	.word	0x2000003c

08006df4 <__libc_init_array>:
 8006df4:	b570      	push	{r4, r5, r6, lr}
 8006df6:	4d0d      	ldr	r5, [pc, #52]	; (8006e2c <__libc_init_array+0x38>)
 8006df8:	4c0d      	ldr	r4, [pc, #52]	; (8006e30 <__libc_init_array+0x3c>)
 8006dfa:	1b64      	subs	r4, r4, r5
 8006dfc:	10a4      	asrs	r4, r4, #2
 8006dfe:	2600      	movs	r6, #0
 8006e00:	42a6      	cmp	r6, r4
 8006e02:	d109      	bne.n	8006e18 <__libc_init_array+0x24>
 8006e04:	4d0b      	ldr	r5, [pc, #44]	; (8006e34 <__libc_init_array+0x40>)
 8006e06:	4c0c      	ldr	r4, [pc, #48]	; (8006e38 <__libc_init_array+0x44>)
 8006e08:	f002 fff2 	bl	8009df0 <_init>
 8006e0c:	1b64      	subs	r4, r4, r5
 8006e0e:	10a4      	asrs	r4, r4, #2
 8006e10:	2600      	movs	r6, #0
 8006e12:	42a6      	cmp	r6, r4
 8006e14:	d105      	bne.n	8006e22 <__libc_init_array+0x2e>
 8006e16:	bd70      	pop	{r4, r5, r6, pc}
 8006e18:	f855 3b04 	ldr.w	r3, [r5], #4
 8006e1c:	4798      	blx	r3
 8006e1e:	3601      	adds	r6, #1
 8006e20:	e7ee      	b.n	8006e00 <__libc_init_array+0xc>
 8006e22:	f855 3b04 	ldr.w	r3, [r5], #4
 8006e26:	4798      	blx	r3
 8006e28:	3601      	adds	r6, #1
 8006e2a:	e7f2      	b.n	8006e12 <__libc_init_array+0x1e>
 8006e2c:	0800ae44 	.word	0x0800ae44
 8006e30:	0800ae44 	.word	0x0800ae44
 8006e34:	0800ae44 	.word	0x0800ae44
 8006e38:	0800ae48 	.word	0x0800ae48

08006e3c <memcpy>:
 8006e3c:	440a      	add	r2, r1
 8006e3e:	4291      	cmp	r1, r2
 8006e40:	f100 33ff 	add.w	r3, r0, #4294967295
 8006e44:	d100      	bne.n	8006e48 <memcpy+0xc>
 8006e46:	4770      	bx	lr
 8006e48:	b510      	push	{r4, lr}
 8006e4a:	f811 4b01 	ldrb.w	r4, [r1], #1
 8006e4e:	f803 4f01 	strb.w	r4, [r3, #1]!
 8006e52:	4291      	cmp	r1, r2
 8006e54:	d1f9      	bne.n	8006e4a <memcpy+0xe>
 8006e56:	bd10      	pop	{r4, pc}

08006e58 <memset>:
 8006e58:	4402      	add	r2, r0
 8006e5a:	4603      	mov	r3, r0
 8006e5c:	4293      	cmp	r3, r2
 8006e5e:	d100      	bne.n	8006e62 <memset+0xa>
 8006e60:	4770      	bx	lr
 8006e62:	f803 1b01 	strb.w	r1, [r3], #1
 8006e66:	e7f9      	b.n	8006e5c <memset+0x4>

08006e68 <__cvt>:
 8006e68:	e92d 47ff 	stmdb	sp!, {r0, r1, r2, r3, r4, r5, r6, r7, r8, r9, sl, lr}
 8006e6c:	ec55 4b10 	vmov	r4, r5, d0
 8006e70:	2d00      	cmp	r5, #0
 8006e72:	460e      	mov	r6, r1
 8006e74:	4619      	mov	r1, r3
 8006e76:	462b      	mov	r3, r5
 8006e78:	bfbb      	ittet	lt
 8006e7a:	f105 4300 	addlt.w	r3, r5, #2147483648	; 0x80000000
 8006e7e:	461d      	movlt	r5, r3
 8006e80:	2300      	movge	r3, #0
 8006e82:	232d      	movlt	r3, #45	; 0x2d
 8006e84:	700b      	strb	r3, [r1, #0]
 8006e86:	9b0d      	ldr	r3, [sp, #52]	; 0x34
 8006e88:	f8dd a030 	ldr.w	sl, [sp, #48]	; 0x30
 8006e8c:	4691      	mov	r9, r2
 8006e8e:	f023 0820 	bic.w	r8, r3, #32
 8006e92:	bfbc      	itt	lt
 8006e94:	4622      	movlt	r2, r4
 8006e96:	4614      	movlt	r4, r2
 8006e98:	f1b8 0f46 	cmp.w	r8, #70	; 0x46
 8006e9c:	d005      	beq.n	8006eaa <__cvt+0x42>
 8006e9e:	f1b8 0f45 	cmp.w	r8, #69	; 0x45
 8006ea2:	d100      	bne.n	8006ea6 <__cvt+0x3e>
 8006ea4:	3601      	adds	r6, #1
 8006ea6:	2102      	movs	r1, #2
 8006ea8:	e000      	b.n	8006eac <__cvt+0x44>
 8006eaa:	2103      	movs	r1, #3
 8006eac:	ab03      	add	r3, sp, #12
 8006eae:	9301      	str	r3, [sp, #4]
 8006eb0:	ab02      	add	r3, sp, #8
 8006eb2:	9300      	str	r3, [sp, #0]
 8006eb4:	ec45 4b10 	vmov	d0, r4, r5
 8006eb8:	4653      	mov	r3, sl
 8006eba:	4632      	mov	r2, r6
 8006ebc:	f000 fdf8 	bl	8007ab0 <_dtoa_r>
 8006ec0:	f1b8 0f47 	cmp.w	r8, #71	; 0x47
 8006ec4:	4607      	mov	r7, r0
 8006ec6:	d102      	bne.n	8006ece <__cvt+0x66>
 8006ec8:	f019 0f01 	tst.w	r9, #1
 8006ecc:	d022      	beq.n	8006f14 <__cvt+0xac>
 8006ece:	f1b8 0f46 	cmp.w	r8, #70	; 0x46
 8006ed2:	eb07 0906 	add.w	r9, r7, r6
 8006ed6:	d110      	bne.n	8006efa <__cvt+0x92>
 8006ed8:	783b      	ldrb	r3, [r7, #0]
 8006eda:	2b30      	cmp	r3, #48	; 0x30
 8006edc:	d10a      	bne.n	8006ef4 <__cvt+0x8c>
 8006ede:	2200      	movs	r2, #0
 8006ee0:	2300      	movs	r3, #0
 8006ee2:	4620      	mov	r0, r4
 8006ee4:	4629      	mov	r1, r5
 8006ee6:	f7f9 fdef 	bl	8000ac8 <__aeabi_dcmpeq>
 8006eea:	b918      	cbnz	r0, 8006ef4 <__cvt+0x8c>
 8006eec:	f1c6 0601 	rsb	r6, r6, #1
 8006ef0:	f8ca 6000 	str.w	r6, [sl]
 8006ef4:	f8da 3000 	ldr.w	r3, [sl]
 8006ef8:	4499      	add	r9, r3
 8006efa:	2200      	movs	r2, #0
 8006efc:	2300      	movs	r3, #0
 8006efe:	4620      	mov	r0, r4
 8006f00:	4629      	mov	r1, r5
 8006f02:	f7f9 fde1 	bl	8000ac8 <__aeabi_dcmpeq>
 8006f06:	b108      	cbz	r0, 8006f0c <__cvt+0xa4>
 8006f08:	f8cd 900c 	str.w	r9, [sp, #12]
 8006f0c:	2230      	movs	r2, #48	; 0x30
 8006f0e:	9b03      	ldr	r3, [sp, #12]
 8006f10:	454b      	cmp	r3, r9
 8006f12:	d307      	bcc.n	8006f24 <__cvt+0xbc>
 8006f14:	9b03      	ldr	r3, [sp, #12]
 8006f16:	9a0e      	ldr	r2, [sp, #56]	; 0x38
 8006f18:	1bdb      	subs	r3, r3, r7
 8006f1a:	4638      	mov	r0, r7
 8006f1c:	6013      	str	r3, [r2, #0]
 8006f1e:	b004      	add	sp, #16
 8006f20:	e8bd 87f0 	ldmia.w	sp!, {r4, r5, r6, r7, r8, r9, sl, pc}
 8006f24:	1c59      	adds	r1, r3, #1
 8006f26:	9103      	str	r1, [sp, #12]
 8006f28:	701a      	strb	r2, [r3, #0]
 8006f2a:	e7f0      	b.n	8006f0e <__cvt+0xa6>

08006f2c <__exponent>:
 8006f2c:	b5f7      	push	{r0, r1, r2, r4, r5, r6, r7, lr}
 8006f2e:	4603      	mov	r3, r0
 8006f30:	2900      	cmp	r1, #0
 8006f32:	bfb8      	it	lt
 8006f34:	4249      	neglt	r1, r1
 8006f36:	f803 2b02 	strb.w	r2, [r3], #2
 8006f3a:	bfb4      	ite	lt
 8006f3c:	222d      	movlt	r2, #45	; 0x2d
 8006f3e:	222b      	movge	r2, #43	; 0x2b
 8006f40:	2909      	cmp	r1, #9
 8006f42:	7042      	strb	r2, [r0, #1]
 8006f44:	dd2a      	ble.n	8006f9c <__exponent+0x70>
 8006f46:	f10d 0407 	add.w	r4, sp, #7
 8006f4a:	46a4      	mov	ip, r4
 8006f4c:	270a      	movs	r7, #10
 8006f4e:	46a6      	mov	lr, r4
 8006f50:	460a      	mov	r2, r1
 8006f52:	fb91 f6f7 	sdiv	r6, r1, r7
 8006f56:	fb07 1516 	mls	r5, r7, r6, r1
 8006f5a:	3530      	adds	r5, #48	; 0x30
 8006f5c:	2a63      	cmp	r2, #99	; 0x63
 8006f5e:	f104 34ff 	add.w	r4, r4, #4294967295
 8006f62:	f80e 5c01 	strb.w	r5, [lr, #-1]
 8006f66:	4631      	mov	r1, r6
 8006f68:	dcf1      	bgt.n	8006f4e <__exponent+0x22>
 8006f6a:	3130      	adds	r1, #48	; 0x30
 8006f6c:	f1ae 0502 	sub.w	r5, lr, #2
 8006f70:	f804 1c01 	strb.w	r1, [r4, #-1]
 8006f74:	1c44      	adds	r4, r0, #1
 8006f76:	4629      	mov	r1, r5
 8006f78:	4561      	cmp	r1, ip
 8006f7a:	d30a      	bcc.n	8006f92 <__exponent+0x66>
 8006f7c:	f10d 0209 	add.w	r2, sp, #9
 8006f80:	eba2 020e 	sub.w	r2, r2, lr
 8006f84:	4565      	cmp	r5, ip
 8006f86:	bf88      	it	hi
 8006f88:	2200      	movhi	r2, #0
 8006f8a:	4413      	add	r3, r2
 8006f8c:	1a18      	subs	r0, r3, r0
 8006f8e:	b003      	add	sp, #12
 8006f90:	bdf0      	pop	{r4, r5, r6, r7, pc}
 8006f92:	f811 2b01 	ldrb.w	r2, [r1], #1
 8006f96:	f804 2f01 	strb.w	r2, [r4, #1]!
 8006f9a:	e7ed      	b.n	8006f78 <__exponent+0x4c>
 8006f9c:	2330      	movs	r3, #48	; 0x30
 8006f9e:	3130      	adds	r1, #48	; 0x30
 8006fa0:	7083      	strb	r3, [r0, #2]
 8006fa2:	70c1      	strb	r1, [r0, #3]
 8006fa4:	1d03      	adds	r3, r0, #4
 8006fa6:	e7f1      	b.n	8006f8c <__exponent+0x60>

08006fa8 <_printf_float>:
 8006fa8:	e92d 4ff0 	stmdb	sp!, {r4, r5, r6, r7, r8, r9, sl, fp, lr}
 8006fac:	ed2d 8b02 	vpush	{d8}
 8006fb0:	b08d      	sub	sp, #52	; 0x34
 8006fb2:	460c      	mov	r4, r1
 8006fb4:	f8dd 8060 	ldr.w	r8, [sp, #96]	; 0x60
 8006fb8:	4616      	mov	r6, r2
 8006fba:	461f      	mov	r7, r3
 8006fbc:	4605      	mov	r5, r0
 8006fbe:	f001 fb77 	bl	80086b0 <_localeconv_r>
 8006fc2:	f8d0 a000 	ldr.w	sl, [r0]
 8006fc6:	4650      	mov	r0, sl
 8006fc8:	f7f9 f902 	bl	80001d0 <strlen>
 8006fcc:	2300      	movs	r3, #0
 8006fce:	930a      	str	r3, [sp, #40]	; 0x28
 8006fd0:	6823      	ldr	r3, [r4, #0]
 8006fd2:	9305      	str	r3, [sp, #20]
 8006fd4:	f8d8 3000 	ldr.w	r3, [r8]
 8006fd8:	f894 b018 	ldrb.w	fp, [r4, #24]
 8006fdc:	3307      	adds	r3, #7
 8006fde:	f023 0307 	bic.w	r3, r3, #7
 8006fe2:	f103 0208 	add.w	r2, r3, #8
 8006fe6:	f8c8 2000 	str.w	r2, [r8]
 8006fea:	e9d3 2300 	ldrd	r2, r3, [r3]
 8006fee:	e9c4 2312 	strd	r2, r3, [r4, #72]	; 0x48
 8006ff2:	e9d4 8912 	ldrd	r8, r9, [r4, #72]	; 0x48
 8006ff6:	f029 4300 	bic.w	r3, r9, #2147483648	; 0x80000000
 8006ffa:	9307      	str	r3, [sp, #28]
 8006ffc:	f8cd 8018 	str.w	r8, [sp, #24]
 8007000:	ee08 0a10 	vmov	s16, r0
 8007004:	4b9f      	ldr	r3, [pc, #636]	; (8007284 <_printf_float+0x2dc>)
 8007006:	e9dd 0106 	ldrd	r0, r1, [sp, #24]
 800700a:	f04f 32ff 	mov.w	r2, #4294967295
 800700e:	f7f9 fd8d 	bl	8000b2c <__aeabi_dcmpun>
 8007012:	bb88      	cbnz	r0, 8007078 <_printf_float+0xd0>
 8007014:	e9dd 0106 	ldrd	r0, r1, [sp, #24]
 8007018:	4b9a      	ldr	r3, [pc, #616]	; (8007284 <_printf_float+0x2dc>)
 800701a:	f04f 32ff 	mov.w	r2, #4294967295
 800701e:	f7f9 fd67 	bl	8000af0 <__aeabi_dcmple>
 8007022:	bb48      	cbnz	r0, 8007078 <_printf_float+0xd0>
 8007024:	2200      	movs	r2, #0
 8007026:	2300      	movs	r3, #0
 8007028:	4640      	mov	r0, r8
 800702a:	4649      	mov	r1, r9
 800702c:	f7f9 fd56 	bl	8000adc <__aeabi_dcmplt>
 8007030:	b110      	cbz	r0, 8007038 <_printf_float+0x90>
 8007032:	232d      	movs	r3, #45	; 0x2d
 8007034:	f884 3043 	strb.w	r3, [r4, #67]	; 0x43
 8007038:	4b93      	ldr	r3, [pc, #588]	; (8007288 <_printf_float+0x2e0>)
 800703a:	4894      	ldr	r0, [pc, #592]	; (800728c <_printf_float+0x2e4>)
 800703c:	f1bb 0f47 	cmp.w	fp, #71	; 0x47
 8007040:	bf94      	ite	ls
 8007042:	4698      	movls	r8, r3
 8007044:	4680      	movhi	r8, r0
 8007046:	2303      	movs	r3, #3
 8007048:	6123      	str	r3, [r4, #16]
 800704a:	9b05      	ldr	r3, [sp, #20]
 800704c:	f023 0204 	bic.w	r2, r3, #4
 8007050:	6022      	str	r2, [r4, #0]
 8007052:	f04f 0900 	mov.w	r9, #0
 8007056:	9700      	str	r7, [sp, #0]
 8007058:	4633      	mov	r3, r6
 800705a:	aa0b      	add	r2, sp, #44	; 0x2c
 800705c:	4621      	mov	r1, r4
 800705e:	4628      	mov	r0, r5
 8007060:	f000 f9d8 	bl	8007414 <_printf_common>
 8007064:	3001      	adds	r0, #1
 8007066:	f040 8090 	bne.w	800718a <_printf_float+0x1e2>
 800706a:	f04f 30ff 	mov.w	r0, #4294967295
 800706e:	b00d      	add	sp, #52	; 0x34
 8007070:	ecbd 8b02 	vpop	{d8}
 8007074:	e8bd 8ff0 	ldmia.w	sp!, {r4, r5, r6, r7, r8, r9, sl, fp, pc}
 8007078:	4642      	mov	r2, r8
 800707a:	464b      	mov	r3, r9
 800707c:	4640      	mov	r0, r8
 800707e:	4649      	mov	r1, r9
 8007080:	f7f9 fd54 	bl	8000b2c <__aeabi_dcmpun>
 8007084:	b140      	cbz	r0, 8007098 <_printf_float+0xf0>
 8007086:	464b      	mov	r3, r9
 8007088:	2b00      	cmp	r3, #0
 800708a:	bfbc      	itt	lt
 800708c:	232d      	movlt	r3, #45	; 0x2d
 800708e:	f884 3043 	strblt.w	r3, [r4, #67]	; 0x43
 8007092:	487f      	ldr	r0, [pc, #508]	; (8007290 <_printf_float+0x2e8>)
 8007094:	4b7f      	ldr	r3, [pc, #508]	; (8007294 <_printf_float+0x2ec>)
 8007096:	e7d1      	b.n	800703c <_printf_float+0x94>
 8007098:	6863      	ldr	r3, [r4, #4]
 800709a:	f00b 02df 	and.w	r2, fp, #223	; 0xdf
 800709e:	9206      	str	r2, [sp, #24]
 80070a0:	1c5a      	adds	r2, r3, #1
 80070a2:	d13f      	bne.n	8007124 <_printf_float+0x17c>
 80070a4:	2306      	movs	r3, #6
 80070a6:	6063      	str	r3, [r4, #4]
 80070a8:	9b05      	ldr	r3, [sp, #20]
 80070aa:	6861      	ldr	r1, [r4, #4]
 80070ac:	f443 6280 	orr.w	r2, r3, #1024	; 0x400
 80070b0:	2300      	movs	r3, #0
 80070b2:	9303      	str	r3, [sp, #12]
 80070b4:	ab0a      	add	r3, sp, #40	; 0x28
 80070b6:	e9cd b301 	strd	fp, r3, [sp, #4]
 80070ba:	ab09      	add	r3, sp, #36	; 0x24
 80070bc:	ec49 8b10 	vmov	d0, r8, r9
 80070c0:	9300      	str	r3, [sp, #0]
 80070c2:	6022      	str	r2, [r4, #0]
 80070c4:	f10d 0323 	add.w	r3, sp, #35	; 0x23
 80070c8:	4628      	mov	r0, r5
 80070ca:	f7ff fecd 	bl	8006e68 <__cvt>
 80070ce:	9b06      	ldr	r3, [sp, #24]
 80070d0:	9909      	ldr	r1, [sp, #36]	; 0x24
 80070d2:	2b47      	cmp	r3, #71	; 0x47
 80070d4:	4680      	mov	r8, r0
 80070d6:	d108      	bne.n	80070ea <_printf_float+0x142>
 80070d8:	1cc8      	adds	r0, r1, #3
 80070da:	db02      	blt.n	80070e2 <_printf_float+0x13a>
 80070dc:	6863      	ldr	r3, [r4, #4]
 80070de:	4299      	cmp	r1, r3
 80070e0:	dd41      	ble.n	8007166 <_printf_float+0x1be>
 80070e2:	f1ab 0b02 	sub.w	fp, fp, #2
 80070e6:	fa5f fb8b 	uxtb.w	fp, fp
 80070ea:	f1bb 0f65 	cmp.w	fp, #101	; 0x65
 80070ee:	d820      	bhi.n	8007132 <_printf_float+0x18a>
 80070f0:	3901      	subs	r1, #1
 80070f2:	465a      	mov	r2, fp
 80070f4:	f104 0050 	add.w	r0, r4, #80	; 0x50
 80070f8:	9109      	str	r1, [sp, #36]	; 0x24
 80070fa:	f7ff ff17 	bl	8006f2c <__exponent>
 80070fe:	9a0a      	ldr	r2, [sp, #40]	; 0x28
 8007100:	1813      	adds	r3, r2, r0
 8007102:	2a01      	cmp	r2, #1
 8007104:	4681      	mov	r9, r0
 8007106:	6123      	str	r3, [r4, #16]
 8007108:	dc02      	bgt.n	8007110 <_printf_float+0x168>
 800710a:	6822      	ldr	r2, [r4, #0]
 800710c:	07d2      	lsls	r2, r2, #31
 800710e:	d501      	bpl.n	8007114 <_printf_float+0x16c>
 8007110:	3301      	adds	r3, #1
 8007112:	6123      	str	r3, [r4, #16]
 8007114:	f89d 3023 	ldrb.w	r3, [sp, #35]	; 0x23
 8007118:	2b00      	cmp	r3, #0
 800711a:	d09c      	beq.n	8007056 <_printf_float+0xae>
 800711c:	232d      	movs	r3, #45	; 0x2d
 800711e:	f884 3043 	strb.w	r3, [r4, #67]	; 0x43
 8007122:	e798      	b.n	8007056 <_printf_float+0xae>
 8007124:	9a06      	ldr	r2, [sp, #24]
 8007126:	2a47      	cmp	r2, #71	; 0x47
 8007128:	d1be      	bne.n	80070a8 <_printf_float+0x100>
 800712a:	2b00      	cmp	r3, #0
 800712c:	d1bc      	bne.n	80070a8 <_printf_float+0x100>
 800712e:	2301      	movs	r3, #1
 8007130:	e7b9      	b.n	80070a6 <_printf_float+0xfe>
 8007132:	f1bb 0f66 	cmp.w	fp, #102	; 0x66
 8007136:	d118      	bne.n	800716a <_printf_float+0x1c2>
 8007138:	2900      	cmp	r1, #0
 800713a:	6863      	ldr	r3, [r4, #4]
 800713c:	dd0b      	ble.n	8007156 <_printf_float+0x1ae>
 800713e:	6121      	str	r1, [r4, #16]
 8007140:	b913      	cbnz	r3, 8007148 <_printf_float+0x1a0>
 8007142:	6822      	ldr	r2, [r4, #0]
 8007144:	07d0      	lsls	r0, r2, #31
 8007146:	d502      	bpl.n	800714e <_printf_float+0x1a6>
 8007148:	3301      	adds	r3, #1
 800714a:	440b      	add	r3, r1
 800714c:	6123      	str	r3, [r4, #16]
 800714e:	65a1      	str	r1, [r4, #88]	; 0x58
 8007150:	f04f 0900 	mov.w	r9, #0
 8007154:	e7de      	b.n	8007114 <_printf_float+0x16c>
 8007156:	b913      	cbnz	r3, 800715e <_printf_float+0x1b6>
 8007158:	6822      	ldr	r2, [r4, #0]
 800715a:	07d2      	lsls	r2, r2, #31
 800715c:	d501      	bpl.n	8007162 <_printf_float+0x1ba>
 800715e:	3302      	adds	r3, #2
 8007160:	e7f4      	b.n	800714c <_printf_float+0x1a4>
 8007162:	2301      	movs	r3, #1
 8007164:	e7f2      	b.n	800714c <_printf_float+0x1a4>
 8007166:	f04f 0b67 	mov.w	fp, #103	; 0x67
 800716a:	9b0a      	ldr	r3, [sp, #40]	; 0x28
 800716c:	4299      	cmp	r1, r3
 800716e:	db05      	blt.n	800717c <_printf_float+0x1d4>
 8007170:	6823      	ldr	r3, [r4, #0]
 8007172:	6121      	str	r1, [r4, #16]
 8007174:	07d8      	lsls	r0, r3, #31
 8007176:	d5ea      	bpl.n	800714e <_printf_float+0x1a6>
 8007178:	1c4b      	adds	r3, r1, #1
 800717a:	e7e7      	b.n	800714c <_printf_float+0x1a4>
 800717c:	2900      	cmp	r1, #0
 800717e:	bfd4      	ite	le
 8007180:	f1c1 0202 	rsble	r2, r1, #2
 8007184:	2201      	movgt	r2, #1
 8007186:	4413      	add	r3, r2
 8007188:	e7e0      	b.n	800714c <_printf_float+0x1a4>
 800718a:	6823      	ldr	r3, [r4, #0]
 800718c:	055a      	lsls	r2, r3, #21
 800718e:	d407      	bmi.n	80071a0 <_printf_float+0x1f8>
 8007190:	6923      	ldr	r3, [r4, #16]
 8007192:	4642      	mov	r2, r8
 8007194:	4631      	mov	r1, r6
 8007196:	4628      	mov	r0, r5
 8007198:	47b8      	blx	r7
 800719a:	3001      	adds	r0, #1
 800719c:	d12c      	bne.n	80071f8 <_printf_float+0x250>
 800719e:	e764      	b.n	800706a <_printf_float+0xc2>
 80071a0:	f1bb 0f65 	cmp.w	fp, #101	; 0x65
 80071a4:	f240 80e0 	bls.w	8007368 <_printf_float+0x3c0>
 80071a8:	e9d4 0112 	ldrd	r0, r1, [r4, #72]	; 0x48
 80071ac:	2200      	movs	r2, #0
 80071ae:	2300      	movs	r3, #0
 80071b0:	f7f9 fc8a 	bl	8000ac8 <__aeabi_dcmpeq>
 80071b4:	2800      	cmp	r0, #0
 80071b6:	d034      	beq.n	8007222 <_printf_float+0x27a>
 80071b8:	4a37      	ldr	r2, [pc, #220]	; (8007298 <_printf_float+0x2f0>)
 80071ba:	2301      	movs	r3, #1
 80071bc:	4631      	mov	r1, r6
 80071be:	4628      	mov	r0, r5
 80071c0:	47b8      	blx	r7
 80071c2:	3001      	adds	r0, #1
 80071c4:	f43f af51 	beq.w	800706a <_printf_float+0xc2>
 80071c8:	e9dd 2309 	ldrd	r2, r3, [sp, #36]	; 0x24
 80071cc:	429a      	cmp	r2, r3
 80071ce:	db02      	blt.n	80071d6 <_printf_float+0x22e>
 80071d0:	6823      	ldr	r3, [r4, #0]
 80071d2:	07d8      	lsls	r0, r3, #31
 80071d4:	d510      	bpl.n	80071f8 <_printf_float+0x250>
 80071d6:	ee18 3a10 	vmov	r3, s16
 80071da:	4652      	mov	r2, sl
 80071dc:	4631      	mov	r1, r6
 80071de:	4628      	mov	r0, r5
 80071e0:	47b8      	blx	r7
 80071e2:	3001      	adds	r0, #1
 80071e4:	f43f af41 	beq.w	800706a <_printf_float+0xc2>
 80071e8:	f04f 0800 	mov.w	r8, #0
 80071ec:	f104 091a 	add.w	r9, r4, #26
 80071f0:	9b0a      	ldr	r3, [sp, #40]	; 0x28
 80071f2:	3b01      	subs	r3, #1
 80071f4:	4543      	cmp	r3, r8
 80071f6:	dc09      	bgt.n	800720c <_printf_float+0x264>
 80071f8:	6823      	ldr	r3, [r4, #0]
 80071fa:	079b      	lsls	r3, r3, #30
 80071fc:	f100 8105 	bmi.w	800740a <_printf_float+0x462>
 8007200:	68e0      	ldr	r0, [r4, #12]
 8007202:	9b0b      	ldr	r3, [sp, #44]	; 0x2c
 8007204:	4298      	cmp	r0, r3
 8007206:	bfb8      	it	lt
 8007208:	4618      	movlt	r0, r3
 800720a:	e730      	b.n	800706e <_printf_float+0xc6>
 800720c:	2301      	movs	r3, #1
 800720e:	464a      	mov	r2, r9
 8007210:	4631      	mov	r1, r6
 8007212:	4628      	mov	r0, r5
 8007214:	47b8      	blx	r7
 8007216:	3001      	adds	r0, #1
 8007218:	f43f af27 	beq.w	800706a <_printf_float+0xc2>
 800721c:	f108 0801 	add.w	r8, r8, #1
 8007220:	e7e6      	b.n	80071f0 <_printf_float+0x248>
 8007222:	9b09      	ldr	r3, [sp, #36]	; 0x24
 8007224:	2b00      	cmp	r3, #0
 8007226:	dc39      	bgt.n	800729c <_printf_float+0x2f4>
 8007228:	4a1b      	ldr	r2, [pc, #108]	; (8007298 <_printf_float+0x2f0>)
 800722a:	2301      	movs	r3, #1
 800722c:	4631      	mov	r1, r6
 800722e:	4628      	mov	r0, r5
 8007230:	47b8      	blx	r7
 8007232:	3001      	adds	r0, #1
 8007234:	f43f af19 	beq.w	800706a <_printf_float+0xc2>
 8007238:	e9dd 2309 	ldrd	r2, r3, [sp, #36]	; 0x24
 800723c:	4313      	orrs	r3, r2
 800723e:	d102      	bne.n	8007246 <_printf_float+0x29e>
 8007240:	6823      	ldr	r3, [r4, #0]
 8007242:	07d9      	lsls	r1, r3, #31
 8007244:	d5d8      	bpl.n	80071f8 <_printf_float+0x250>
 8007246:	ee18 3a10 	vmov	r3, s16
 800724a:	4652      	mov	r2, sl
 800724c:	4631      	mov	r1, r6
 800724e:	4628      	mov	r0, r5
 8007250:	47b8      	blx	r7
 8007252:	3001      	adds	r0, #1
 8007254:	f43f af09 	beq.w	800706a <_printf_float+0xc2>
 8007258:	f04f 0900 	mov.w	r9, #0
 800725c:	f104 0a1a 	add.w	sl, r4, #26
 8007260:	9b09      	ldr	r3, [sp, #36]	; 0x24
 8007262:	425b      	negs	r3, r3
 8007264:	454b      	cmp	r3, r9
 8007266:	dc01      	bgt.n	800726c <_printf_float+0x2c4>
 8007268:	9b0a      	ldr	r3, [sp, #40]	; 0x28
 800726a:	e792      	b.n	8007192 <_printf_float+0x1ea>
 800726c:	2301      	movs	r3, #1
 800726e:	4652      	mov	r2, sl
 8007270:	4631      	mov	r1, r6
 8007272:	4628      	mov	r0, r5
 8007274:	47b8      	blx	r7
 8007276:	3001      	adds	r0, #1
 8007278:	f43f aef7 	beq.w	800706a <_printf_float+0xc2>
 800727c:	f109 0901 	add.w	r9, r9, #1
 8007280:	e7ee      	b.n	8007260 <_printf_float+0x2b8>
 8007282:	bf00      	nop
 8007284:	7fefffff 	.word	0x7fefffff
 8007288:	0800aa04 	.word	0x0800aa04
 800728c:	0800aa08 	.word	0x0800aa08
 8007290:	0800aa10 	.word	0x0800aa10
 8007294:	0800aa0c 	.word	0x0800aa0c
 8007298:	0800aa14 	.word	0x0800aa14
 800729c:	9a0a      	ldr	r2, [sp, #40]	; 0x28
 800729e:	6da3      	ldr	r3, [r4, #88]	; 0x58
 80072a0:	429a      	cmp	r2, r3
 80072a2:	bfa8      	it	ge
 80072a4:	461a      	movge	r2, r3
 80072a6:	2a00      	cmp	r2, #0
 80072a8:	4691      	mov	r9, r2
 80072aa:	dc37      	bgt.n	800731c <_printf_float+0x374>
 80072ac:	f04f 0b00 	mov.w	fp, #0
 80072b0:	ea29 79e9 	bic.w	r9, r9, r9, asr #31
 80072b4:	f104 021a 	add.w	r2, r4, #26
 80072b8:	6da3      	ldr	r3, [r4, #88]	; 0x58
 80072ba:	9305      	str	r3, [sp, #20]
 80072bc:	eba3 0309 	sub.w	r3, r3, r9
 80072c0:	455b      	cmp	r3, fp
 80072c2:	dc33      	bgt.n	800732c <_printf_float+0x384>
 80072c4:	e9dd 2309 	ldrd	r2, r3, [sp, #36]	; 0x24
 80072c8:	429a      	cmp	r2, r3
 80072ca:	db3b      	blt.n	8007344 <_printf_float+0x39c>
 80072cc:	6823      	ldr	r3, [r4, #0]
 80072ce:	07da      	lsls	r2, r3, #31
 80072d0:	d438      	bmi.n	8007344 <_printf_float+0x39c>
 80072d2:	9b0a      	ldr	r3, [sp, #40]	; 0x28
 80072d4:	9a05      	ldr	r2, [sp, #20]
 80072d6:	9909      	ldr	r1, [sp, #36]	; 0x24
 80072d8:	1a9a      	subs	r2, r3, r2
 80072da:	eba3 0901 	sub.w	r9, r3, r1
 80072de:	4591      	cmp	r9, r2
 80072e0:	bfa8      	it	ge
 80072e2:	4691      	movge	r9, r2
 80072e4:	f1b9 0f00 	cmp.w	r9, #0
 80072e8:	dc35      	bgt.n	8007356 <_printf_float+0x3ae>
 80072ea:	f04f 0800 	mov.w	r8, #0
 80072ee:	ea29 79e9 	bic.w	r9, r9, r9, asr #31
 80072f2:	f104 0a1a 	add.w	sl, r4, #26
 80072f6:	e9dd 2309 	ldrd	r2, r3, [sp, #36]	; 0x24
 80072fa:	1a9b      	subs	r3, r3, r2
 80072fc:	eba3 0309 	sub.w	r3, r3, r9
 8007300:	4543      	cmp	r3, r8
 8007302:	f77f af79 	ble.w	80071f8 <_printf_float+0x250>
 8007306:	2301      	movs	r3, #1
 8007308:	4652      	mov	r2, sl
 800730a:	4631      	mov	r1, r6
 800730c:	4628      	mov	r0, r5
 800730e:	47b8      	blx	r7
 8007310:	3001      	adds	r0, #1
 8007312:	f43f aeaa 	beq.w	800706a <_printf_float+0xc2>
 8007316:	f108 0801 	add.w	r8, r8, #1
 800731a:	e7ec      	b.n	80072f6 <_printf_float+0x34e>
 800731c:	4613      	mov	r3, r2
 800731e:	4631      	mov	r1, r6
 8007320:	4642      	mov	r2, r8
 8007322:	4628      	mov	r0, r5
 8007324:	47b8      	blx	r7
 8007326:	3001      	adds	r0, #1
 8007328:	d1c0      	bne.n	80072ac <_printf_float+0x304>
 800732a:	e69e      	b.n	800706a <_printf_float+0xc2>
 800732c:	2301      	movs	r3, #1
 800732e:	4631      	mov	r1, r6
 8007330:	4628      	mov	r0, r5
 8007332:	9205      	str	r2, [sp, #20]
 8007334:	47b8      	blx	r7
 8007336:	3001      	adds	r0, #1
 8007338:	f43f ae97 	beq.w	800706a <_printf_float+0xc2>
 800733c:	9a05      	ldr	r2, [sp, #20]
 800733e:	f10b 0b01 	add.w	fp, fp, #1
 8007342:	e7b9      	b.n	80072b8 <_printf_float+0x310>
 8007344:	ee18 3a10 	vmov	r3, s16
 8007348:	4652      	mov	r2, sl
 800734a:	4631      	mov	r1, r6
 800734c:	4628      	mov	r0, r5
 800734e:	47b8      	blx	r7
 8007350:	3001      	adds	r0, #1
 8007352:	d1be      	bne.n	80072d2 <_printf_float+0x32a>
 8007354:	e689      	b.n	800706a <_printf_float+0xc2>
 8007356:	9a05      	ldr	r2, [sp, #20]
 8007358:	464b      	mov	r3, r9
 800735a:	4442      	add	r2, r8
 800735c:	4631      	mov	r1, r6
 800735e:	4628      	mov	r0, r5
 8007360:	47b8      	blx	r7
 8007362:	3001      	adds	r0, #1
 8007364:	d1c1      	bne.n	80072ea <_printf_float+0x342>
 8007366:	e680      	b.n	800706a <_printf_float+0xc2>
 8007368:	9a0a      	ldr	r2, [sp, #40]	; 0x28
 800736a:	2a01      	cmp	r2, #1
 800736c:	dc01      	bgt.n	8007372 <_printf_float+0x3ca>
 800736e:	07db      	lsls	r3, r3, #31
 8007370:	d538      	bpl.n	80073e4 <_printf_float+0x43c>
 8007372:	2301      	movs	r3, #1
 8007374:	4642      	mov	r2, r8
 8007376:	4631      	mov	r1, r6
 8007378:	4628      	mov	r0, r5
 800737a:	47b8      	blx	r7
 800737c:	3001      	adds	r0, #1
 800737e:	f43f ae74 	beq.w	800706a <_printf_float+0xc2>
 8007382:	ee18 3a10 	vmov	r3, s16
 8007386:	4652      	mov	r2, sl
 8007388:	4631      	mov	r1, r6
 800738a:	4628      	mov	r0, r5
 800738c:	47b8      	blx	r7
 800738e:	3001      	adds	r0, #1
 8007390:	f43f ae6b 	beq.w	800706a <_printf_float+0xc2>
 8007394:	e9d4 0112 	ldrd	r0, r1, [r4, #72]	; 0x48
 8007398:	2200      	movs	r2, #0
 800739a:	2300      	movs	r3, #0
 800739c:	f7f9 fb94 	bl	8000ac8 <__aeabi_dcmpeq>
 80073a0:	b9d8      	cbnz	r0, 80073da <_printf_float+0x432>
 80073a2:	9b0a      	ldr	r3, [sp, #40]	; 0x28
 80073a4:	f108 0201 	add.w	r2, r8, #1
 80073a8:	3b01      	subs	r3, #1
 80073aa:	4631      	mov	r1, r6
 80073ac:	4628      	mov	r0, r5
 80073ae:	47b8      	blx	r7
 80073b0:	3001      	adds	r0, #1
 80073b2:	d10e      	bne.n	80073d2 <_printf_float+0x42a>
 80073b4:	e659      	b.n	800706a <_printf_float+0xc2>
 80073b6:	2301      	movs	r3, #1
 80073b8:	4652      	mov	r2, sl
 80073ba:	4631      	mov	r1, r6
 80073bc:	4628      	mov	r0, r5
 80073be:	47b8      	blx	r7
 80073c0:	3001      	adds	r0, #1
 80073c2:	f43f ae52 	beq.w	800706a <_printf_float+0xc2>
 80073c6:	f108 0801 	add.w	r8, r8, #1
 80073ca:	9b0a      	ldr	r3, [sp, #40]	; 0x28
 80073cc:	3b01      	subs	r3, #1
 80073ce:	4543      	cmp	r3, r8
 80073d0:	dcf1      	bgt.n	80073b6 <_printf_float+0x40e>
 80073d2:	464b      	mov	r3, r9
 80073d4:	f104 0250 	add.w	r2, r4, #80	; 0x50
 80073d8:	e6dc      	b.n	8007194 <_printf_float+0x1ec>
 80073da:	f04f 0800 	mov.w	r8, #0
 80073de:	f104 0a1a 	add.w	sl, r4, #26
 80073e2:	e7f2      	b.n	80073ca <_printf_float+0x422>
 80073e4:	2301      	movs	r3, #1
 80073e6:	4642      	mov	r2, r8
 80073e8:	e7df      	b.n	80073aa <_printf_float+0x402>
 80073ea:	2301      	movs	r3, #1
 80073ec:	464a      	mov	r2, r9
 80073ee:	4631      	mov	r1, r6
 80073f0:	4628      	mov	r0, r5
 80073f2:	47b8      	blx	r7
 80073f4:	3001      	adds	r0, #1
 80073f6:	f43f ae38 	beq.w	800706a <_printf_float+0xc2>
 80073fa:	f108 0801 	add.w	r8, r8, #1
 80073fe:	68e3      	ldr	r3, [r4, #12]
 8007400:	990b      	ldr	r1, [sp, #44]	; 0x2c
 8007402:	1a5b      	subs	r3, r3, r1
 8007404:	4543      	cmp	r3, r8
 8007406:	dcf0      	bgt.n	80073ea <_printf_float+0x442>
 8007408:	e6fa      	b.n	8007200 <_printf_float+0x258>
 800740a:	f04f 0800 	mov.w	r8, #0
 800740e:	f104 0919 	add.w	r9, r4, #25
 8007412:	e7f4      	b.n	80073fe <_printf_float+0x456>

08007414 <_printf_common>:
 8007414:	e92d 47f0 	stmdb	sp!, {r4, r5, r6, r7, r8, r9, sl, lr}
 8007418:	4616      	mov	r6, r2
 800741a:	4699      	mov	r9, r3
 800741c:	688a      	ldr	r2, [r1, #8]
 800741e:	690b      	ldr	r3, [r1, #16]
 8007420:	f8dd 8020 	ldr.w	r8, [sp, #32]
 8007424:	4293      	cmp	r3, r2
 8007426:	bfb8      	it	lt
 8007428:	4613      	movlt	r3, r2
 800742a:	6033      	str	r3, [r6, #0]
 800742c:	f891 2043 	ldrb.w	r2, [r1, #67]	; 0x43
 8007430:	4607      	mov	r7, r0
 8007432:	460c      	mov	r4, r1
 8007434:	b10a      	cbz	r2, 800743a <_printf_common+0x26>
 8007436:	3301      	adds	r3, #1
 8007438:	6033      	str	r3, [r6, #0]
 800743a:	6823      	ldr	r3, [r4, #0]
 800743c:	0699      	lsls	r1, r3, #26
 800743e:	bf42      	ittt	mi
 8007440:	6833      	ldrmi	r3, [r6, #0]
 8007442:	3302      	addmi	r3, #2
 8007444:	6033      	strmi	r3, [r6, #0]
 8007446:	6825      	ldr	r5, [r4, #0]
 8007448:	f015 0506 	ands.w	r5, r5, #6
 800744c:	d106      	bne.n	800745c <_printf_common+0x48>
 800744e:	f104 0a19 	add.w	sl, r4, #25
 8007452:	68e3      	ldr	r3, [r4, #12]
 8007454:	6832      	ldr	r2, [r6, #0]
 8007456:	1a9b      	subs	r3, r3, r2
 8007458:	42ab      	cmp	r3, r5
 800745a:	dc26      	bgt.n	80074aa <_printf_common+0x96>
 800745c:	f894 2043 	ldrb.w	r2, [r4, #67]	; 0x43
 8007460:	1e13      	subs	r3, r2, #0
 8007462:	6822      	ldr	r2, [r4, #0]
 8007464:	bf18      	it	ne
 8007466:	2301      	movne	r3, #1
 8007468:	0692      	lsls	r2, r2, #26
 800746a:	d42b      	bmi.n	80074c4 <_printf_common+0xb0>
 800746c:	f104 0243 	add.w	r2, r4, #67	; 0x43
 8007470:	4649      	mov	r1, r9
 8007472:	4638      	mov	r0, r7
 8007474:	47c0      	blx	r8
 8007476:	3001      	adds	r0, #1
 8007478:	d01e      	beq.n	80074b8 <_printf_common+0xa4>
 800747a:	6823      	ldr	r3, [r4, #0]
 800747c:	68e5      	ldr	r5, [r4, #12]
 800747e:	6832      	ldr	r2, [r6, #0]
 8007480:	f003 0306 	and.w	r3, r3, #6
 8007484:	2b04      	cmp	r3, #4
 8007486:	bf08      	it	eq
 8007488:	1aad      	subeq	r5, r5, r2
 800748a:	68a3      	ldr	r3, [r4, #8]
 800748c:	6922      	ldr	r2, [r4, #16]
 800748e:	bf0c      	ite	eq
 8007490:	ea25 75e5 	biceq.w	r5, r5, r5, asr #31
 8007494:	2500      	movne	r5, #0
 8007496:	4293      	cmp	r3, r2
 8007498:	bfc4      	itt	gt
 800749a:	1a9b      	subgt	r3, r3, r2
 800749c:	18ed      	addgt	r5, r5, r3
 800749e:	2600      	movs	r6, #0
 80074a0:	341a      	adds	r4, #26
 80074a2:	42b5      	cmp	r5, r6
 80074a4:	d11a      	bne.n	80074dc <_printf_common+0xc8>
 80074a6:	2000      	movs	r0, #0
 80074a8:	e008      	b.n	80074bc <_printf_common+0xa8>
 80074aa:	2301      	movs	r3, #1
 80074ac:	4652      	mov	r2, sl
 80074ae:	4649      	mov	r1, r9
 80074b0:	4638      	mov	r0, r7
 80074b2:	47c0      	blx	r8
 80074b4:	3001      	adds	r0, #1
 80074b6:	d103      	bne.n	80074c0 <_printf_common+0xac>
 80074b8:	f04f 30ff 	mov.w	r0, #4294967295
 80074bc:	e8bd 87f0 	ldmia.w	sp!, {r4, r5, r6, r7, r8, r9, sl, pc}
 80074c0:	3501      	adds	r5, #1
 80074c2:	e7c6      	b.n	8007452 <_printf_common+0x3e>
 80074c4:	18e1      	adds	r1, r4, r3
 80074c6:	1c5a      	adds	r2, r3, #1
 80074c8:	2030      	movs	r0, #48	; 0x30
 80074ca:	f881 0043 	strb.w	r0, [r1, #67]	; 0x43
 80074ce:	4422      	add	r2, r4
 80074d0:	f894 1045 	ldrb.w	r1, [r4, #69]	; 0x45
 80074d4:	f882 1043 	strb.w	r1, [r2, #67]	; 0x43
 80074d8:	3302      	adds	r3, #2
 80074da:	e7c7      	b.n	800746c <_printf_common+0x58>
 80074dc:	2301      	movs	r3, #1
 80074de:	4622      	mov	r2, r4
 80074e0:	4649      	mov	r1, r9
 80074e2:	4638      	mov	r0, r7
 80074e4:	47c0      	blx	r8
 80074e6:	3001      	adds	r0, #1
 80074e8:	d0e6      	beq.n	80074b8 <_printf_common+0xa4>
 80074ea:	3601      	adds	r6, #1
 80074ec:	e7d9      	b.n	80074a2 <_printf_common+0x8e>
	...

080074f0 <_printf_i>:
 80074f0:	e92d 47ff 	stmdb	sp!, {r0, r1, r2, r3, r4, r5, r6, r7, r8, r9, sl, lr}
 80074f4:	7e0f      	ldrb	r7, [r1, #24]
 80074f6:	9d0c      	ldr	r5, [sp, #48]	; 0x30
 80074f8:	2f78      	cmp	r7, #120	; 0x78
 80074fa:	4691      	mov	r9, r2
 80074fc:	4680      	mov	r8, r0
 80074fe:	460c      	mov	r4, r1
 8007500:	469a      	mov	sl, r3
 8007502:	f101 0243 	add.w	r2, r1, #67	; 0x43
 8007506:	d807      	bhi.n	8007518 <_printf_i+0x28>
 8007508:	2f62      	cmp	r7, #98	; 0x62
 800750a:	d80a      	bhi.n	8007522 <_printf_i+0x32>
 800750c:	2f00      	cmp	r7, #0
 800750e:	f000 80d8 	beq.w	80076c2 <_printf_i+0x1d2>
 8007512:	2f58      	cmp	r7, #88	; 0x58
 8007514:	f000 80a3 	beq.w	800765e <_printf_i+0x16e>
 8007518:	f104 0542 	add.w	r5, r4, #66	; 0x42
 800751c:	f884 7042 	strb.w	r7, [r4, #66]	; 0x42
 8007520:	e03a      	b.n	8007598 <_printf_i+0xa8>
 8007522:	f1a7 0363 	sub.w	r3, r7, #99	; 0x63
 8007526:	2b15      	cmp	r3, #21
 8007528:	d8f6      	bhi.n	8007518 <_printf_i+0x28>
 800752a:	a101      	add	r1, pc, #4	; (adr r1, 8007530 <_printf_i+0x40>)
 800752c:	f851 f023 	ldr.w	pc, [r1, r3, lsl #2]
 8007530:	08007589 	.word	0x08007589
 8007534:	0800759d 	.word	0x0800759d
 8007538:	08007519 	.word	0x08007519
 800753c:	08007519 	.word	0x08007519
 8007540:	08007519 	.word	0x08007519
 8007544:	08007519 	.word	0x08007519
 8007548:	0800759d 	.word	0x0800759d
 800754c:	08007519 	.word	0x08007519
 8007550:	08007519 	.word	0x08007519
 8007554:	08007519 	.word	0x08007519
 8007558:	08007519 	.word	0x08007519
 800755c:	080076a9 	.word	0x080076a9
 8007560:	080075cd 	.word	0x080075cd
 8007564:	0800768b 	.word	0x0800768b
 8007568:	08007519 	.word	0x08007519
 800756c:	08007519 	.word	0x08007519
 8007570:	080076cb 	.word	0x080076cb
 8007574:	08007519 	.word	0x08007519
 8007578:	080075cd 	.word	0x080075cd
 800757c:	08007519 	.word	0x08007519
 8007580:	08007519 	.word	0x08007519
 8007584:	08007693 	.word	0x08007693
 8007588:	682b      	ldr	r3, [r5, #0]
 800758a:	1d1a      	adds	r2, r3, #4
 800758c:	681b      	ldr	r3, [r3, #0]
 800758e:	602a      	str	r2, [r5, #0]
 8007590:	f104 0542 	add.w	r5, r4, #66	; 0x42
 8007594:	f884 3042 	strb.w	r3, [r4, #66]	; 0x42
 8007598:	2301      	movs	r3, #1
 800759a:	e0a3      	b.n	80076e4 <_printf_i+0x1f4>
 800759c:	6820      	ldr	r0, [r4, #0]
 800759e:	6829      	ldr	r1, [r5, #0]
 80075a0:	0606      	lsls	r6, r0, #24
 80075a2:	f101 0304 	add.w	r3, r1, #4
 80075a6:	d50a      	bpl.n	80075be <_printf_i+0xce>
 80075a8:	680e      	ldr	r6, [r1, #0]
 80075aa:	602b      	str	r3, [r5, #0]
 80075ac:	2e00      	cmp	r6, #0
 80075ae:	da03      	bge.n	80075b8 <_printf_i+0xc8>
 80075b0:	232d      	movs	r3, #45	; 0x2d
 80075b2:	4276      	negs	r6, r6
 80075b4:	f884 3043 	strb.w	r3, [r4, #67]	; 0x43
 80075b8:	485e      	ldr	r0, [pc, #376]	; (8007734 <_printf_i+0x244>)
 80075ba:	230a      	movs	r3, #10
 80075bc:	e019      	b.n	80075f2 <_printf_i+0x102>
 80075be:	680e      	ldr	r6, [r1, #0]
 80075c0:	602b      	str	r3, [r5, #0]
 80075c2:	f010 0f40 	tst.w	r0, #64	; 0x40
 80075c6:	bf18      	it	ne
 80075c8:	b236      	sxthne	r6, r6
 80075ca:	e7ef      	b.n	80075ac <_printf_i+0xbc>
 80075cc:	682b      	ldr	r3, [r5, #0]
 80075ce:	6820      	ldr	r0, [r4, #0]
 80075d0:	1d19      	adds	r1, r3, #4
 80075d2:	6029      	str	r1, [r5, #0]
 80075d4:	0601      	lsls	r1, r0, #24
 80075d6:	d501      	bpl.n	80075dc <_printf_i+0xec>
 80075d8:	681e      	ldr	r6, [r3, #0]
 80075da:	e002      	b.n	80075e2 <_printf_i+0xf2>
 80075dc:	0646      	lsls	r6, r0, #25
 80075de:	d5fb      	bpl.n	80075d8 <_printf_i+0xe8>
 80075e0:	881e      	ldrh	r6, [r3, #0]
 80075e2:	4854      	ldr	r0, [pc, #336]	; (8007734 <_printf_i+0x244>)
 80075e4:	2f6f      	cmp	r7, #111	; 0x6f
 80075e6:	bf0c      	ite	eq
 80075e8:	2308      	moveq	r3, #8
 80075ea:	230a      	movne	r3, #10
 80075ec:	2100      	movs	r1, #0
 80075ee:	f884 1043 	strb.w	r1, [r4, #67]	; 0x43
 80075f2:	6865      	ldr	r5, [r4, #4]
 80075f4:	60a5      	str	r5, [r4, #8]
 80075f6:	2d00      	cmp	r5, #0
 80075f8:	bfa2      	ittt	ge
 80075fa:	6821      	ldrge	r1, [r4, #0]
 80075fc:	f021 0104 	bicge.w	r1, r1, #4
 8007600:	6021      	strge	r1, [r4, #0]
 8007602:	b90e      	cbnz	r6, 8007608 <_printf_i+0x118>
 8007604:	2d00      	cmp	r5, #0
 8007606:	d04d      	beq.n	80076a4 <_printf_i+0x1b4>
 8007608:	4615      	mov	r5, r2
 800760a:	fbb6 f1f3 	udiv	r1, r6, r3
 800760e:	fb03 6711 	mls	r7, r3, r1, r6
 8007612:	5dc7      	ldrb	r7, [r0, r7]
 8007614:	f805 7d01 	strb.w	r7, [r5, #-1]!
 8007618:	4637      	mov	r7, r6
 800761a:	42bb      	cmp	r3, r7
 800761c:	460e      	mov	r6, r1
 800761e:	d9f4      	bls.n	800760a <_printf_i+0x11a>
 8007620:	2b08      	cmp	r3, #8
 8007622:	d10b      	bne.n	800763c <_printf_i+0x14c>
 8007624:	6823      	ldr	r3, [r4, #0]
 8007626:	07de      	lsls	r6, r3, #31
 8007628:	d508      	bpl.n	800763c <_printf_i+0x14c>
 800762a:	6923      	ldr	r3, [r4, #16]
 800762c:	6861      	ldr	r1, [r4, #4]
 800762e:	4299      	cmp	r1, r3
 8007630:	bfde      	ittt	le
 8007632:	2330      	movle	r3, #48	; 0x30
 8007634:	f805 3c01 	strble.w	r3, [r5, #-1]
 8007638:	f105 35ff 	addle.w	r5, r5, #4294967295
 800763c:	1b52      	subs	r2, r2, r5
 800763e:	6122      	str	r2, [r4, #16]
 8007640:	f8cd a000 	str.w	sl, [sp]
 8007644:	464b      	mov	r3, r9
 8007646:	aa03      	add	r2, sp, #12
 8007648:	4621      	mov	r1, r4
 800764a:	4640      	mov	r0, r8
 800764c:	f7ff fee2 	bl	8007414 <_printf_common>
 8007650:	3001      	adds	r0, #1
 8007652:	d14c      	bne.n	80076ee <_printf_i+0x1fe>
 8007654:	f04f 30ff 	mov.w	r0, #4294967295
 8007658:	b004      	add	sp, #16
 800765a:	e8bd 87f0 	ldmia.w	sp!, {r4, r5, r6, r7, r8, r9, sl, pc}
 800765e:	4835      	ldr	r0, [pc, #212]	; (8007734 <_printf_i+0x244>)
 8007660:	f881 7045 	strb.w	r7, [r1, #69]	; 0x45
 8007664:	6829      	ldr	r1, [r5, #0]
 8007666:	6823      	ldr	r3, [r4, #0]
 8007668:	f851 6b04 	ldr.w	r6, [r1], #4
 800766c:	6029      	str	r1, [r5, #0]
 800766e:	061d      	lsls	r5, r3, #24
 8007670:	d514      	bpl.n	800769c <_printf_i+0x1ac>
 8007672:	07df      	lsls	r7, r3, #31
 8007674:	bf44      	itt	mi
 8007676:	f043 0320 	orrmi.w	r3, r3, #32
 800767a:	6023      	strmi	r3, [r4, #0]
 800767c:	b91e      	cbnz	r6, 8007686 <_printf_i+0x196>
 800767e:	6823      	ldr	r3, [r4, #0]
 8007680:	f023 0320 	bic.w	r3, r3, #32
 8007684:	6023      	str	r3, [r4, #0]
 8007686:	2310      	movs	r3, #16
 8007688:	e7b0      	b.n	80075ec <_printf_i+0xfc>
 800768a:	6823      	ldr	r3, [r4, #0]
 800768c:	f043 0320 	orr.w	r3, r3, #32
 8007690:	6023      	str	r3, [r4, #0]
 8007692:	2378      	movs	r3, #120	; 0x78
 8007694:	4828      	ldr	r0, [pc, #160]	; (8007738 <_printf_i+0x248>)
 8007696:	f884 3045 	strb.w	r3, [r4, #69]	; 0x45
 800769a:	e7e3      	b.n	8007664 <_printf_i+0x174>
 800769c:	0659      	lsls	r1, r3, #25
 800769e:	bf48      	it	mi
 80076a0:	b2b6      	uxthmi	r6, r6
 80076a2:	e7e6      	b.n	8007672 <_printf_i+0x182>
 80076a4:	4615      	mov	r5, r2
 80076a6:	e7bb      	b.n	8007620 <_printf_i+0x130>
 80076a8:	682b      	ldr	r3, [r5, #0]
 80076aa:	6826      	ldr	r6, [r4, #0]
 80076ac:	6961      	ldr	r1, [r4, #20]
 80076ae:	1d18      	adds	r0, r3, #4
 80076b0:	6028      	str	r0, [r5, #0]
 80076b2:	0635      	lsls	r5, r6, #24
 80076b4:	681b      	ldr	r3, [r3, #0]
 80076b6:	d501      	bpl.n	80076bc <_printf_i+0x1cc>
 80076b8:	6019      	str	r1, [r3, #0]
 80076ba:	e002      	b.n	80076c2 <_printf_i+0x1d2>
 80076bc:	0670      	lsls	r0, r6, #25
 80076be:	d5fb      	bpl.n	80076b8 <_printf_i+0x1c8>
 80076c0:	8019      	strh	r1, [r3, #0]
 80076c2:	2300      	movs	r3, #0
 80076c4:	6123      	str	r3, [r4, #16]
 80076c6:	4615      	mov	r5, r2
 80076c8:	e7ba      	b.n	8007640 <_printf_i+0x150>
 80076ca:	682b      	ldr	r3, [r5, #0]
 80076cc:	1d1a      	adds	r2, r3, #4
 80076ce:	602a      	str	r2, [r5, #0]
 80076d0:	681d      	ldr	r5, [r3, #0]
 80076d2:	6862      	ldr	r2, [r4, #4]
 80076d4:	2100      	movs	r1, #0
 80076d6:	4628      	mov	r0, r5
 80076d8:	f7f8 fd82 	bl	80001e0 <memchr>
 80076dc:	b108      	cbz	r0, 80076e2 <_printf_i+0x1f2>
 80076de:	1b40      	subs	r0, r0, r5
 80076e0:	6060      	str	r0, [r4, #4]
 80076e2:	6863      	ldr	r3, [r4, #4]
 80076e4:	6123      	str	r3, [r4, #16]
 80076e6:	2300      	movs	r3, #0
 80076e8:	f884 3043 	strb.w	r3, [r4, #67]	; 0x43
 80076ec:	e7a8      	b.n	8007640 <_printf_i+0x150>
 80076ee:	6923      	ldr	r3, [r4, #16]
 80076f0:	462a      	mov	r2, r5
 80076f2:	4649      	mov	r1, r9
 80076f4:	4640      	mov	r0, r8
 80076f6:	47d0      	blx	sl
 80076f8:	3001      	adds	r0, #1
 80076fa:	d0ab      	beq.n	8007654 <_printf_i+0x164>
 80076fc:	6823      	ldr	r3, [r4, #0]
 80076fe:	079b      	lsls	r3, r3, #30
 8007700:	d413      	bmi.n	800772a <_printf_i+0x23a>
 8007702:	68e0      	ldr	r0, [r4, #12]
 8007704:	9b03      	ldr	r3, [sp, #12]
 8007706:	4298      	cmp	r0, r3
 8007708:	bfb8      	it	lt
 800770a:	4618      	movlt	r0, r3
 800770c:	e7a4      	b.n	8007658 <_printf_i+0x168>
 800770e:	2301      	movs	r3, #1
 8007710:	4632      	mov	r2, r6
 8007712:	4649      	mov	r1, r9
 8007714:	4640      	mov	r0, r8
 8007716:	47d0      	blx	sl
 8007718:	3001      	adds	r0, #1
 800771a:	d09b      	beq.n	8007654 <_printf_i+0x164>
 800771c:	3501      	adds	r5, #1
 800771e:	68e3      	ldr	r3, [r4, #12]
 8007720:	9903      	ldr	r1, [sp, #12]
 8007722:	1a5b      	subs	r3, r3, r1
 8007724:	42ab      	cmp	r3, r5
 8007726:	dcf2      	bgt.n	800770e <_printf_i+0x21e>
 8007728:	e7eb      	b.n	8007702 <_printf_i+0x212>
 800772a:	2500      	movs	r5, #0
 800772c:	f104 0619 	add.w	r6, r4, #25
 8007730:	e7f5      	b.n	800771e <_printf_i+0x22e>
 8007732:	bf00      	nop
 8007734:	0800aa16 	.word	0x0800aa16
 8007738:	0800aa27 	.word	0x0800aa27

0800773c <siprintf>:
 800773c:	b40e      	push	{r1, r2, r3}
 800773e:	b500      	push	{lr}
 8007740:	b09c      	sub	sp, #112	; 0x70
 8007742:	ab1d      	add	r3, sp, #116	; 0x74
 8007744:	9002      	str	r0, [sp, #8]
 8007746:	9006      	str	r0, [sp, #24]
 8007748:	f06f 4100 	mvn.w	r1, #2147483648	; 0x80000000
 800774c:	4809      	ldr	r0, [pc, #36]	; (8007774 <siprintf+0x38>)
 800774e:	9107      	str	r1, [sp, #28]
 8007750:	9104      	str	r1, [sp, #16]
 8007752:	4909      	ldr	r1, [pc, #36]	; (8007778 <siprintf+0x3c>)
 8007754:	f853 2b04 	ldr.w	r2, [r3], #4
 8007758:	9105      	str	r1, [sp, #20]
 800775a:	6800      	ldr	r0, [r0, #0]
 800775c:	9301      	str	r3, [sp, #4]
 800775e:	a902      	add	r1, sp, #8
 8007760:	f001 fc88 	bl	8009074 <_svfiprintf_r>
 8007764:	9b02      	ldr	r3, [sp, #8]
 8007766:	2200      	movs	r2, #0
 8007768:	701a      	strb	r2, [r3, #0]
 800776a:	b01c      	add	sp, #112	; 0x70
 800776c:	f85d eb04 	ldr.w	lr, [sp], #4
 8007770:	b003      	add	sp, #12
 8007772:	4770      	bx	lr
 8007774:	2000003c 	.word	0x2000003c
 8007778:	ffff0208 	.word	0xffff0208

0800777c <strcpy>:
 800777c:	4603      	mov	r3, r0
 800777e:	f811 2b01 	ldrb.w	r2, [r1], #1
 8007782:	f803 2b01 	strb.w	r2, [r3], #1
 8007786:	2a00      	cmp	r2, #0
 8007788:	d1f9      	bne.n	800777e <strcpy+0x2>
 800778a:	4770      	bx	lr

0800778c <strtok>:
 800778c:	4b16      	ldr	r3, [pc, #88]	; (80077e8 <strtok+0x5c>)
 800778e:	b573      	push	{r0, r1, r4, r5, r6, lr}
 8007790:	681e      	ldr	r6, [r3, #0]
 8007792:	6db4      	ldr	r4, [r6, #88]	; 0x58
 8007794:	4605      	mov	r5, r0
 8007796:	b9fc      	cbnz	r4, 80077d8 <strtok+0x4c>
 8007798:	2050      	movs	r0, #80	; 0x50
 800779a:	9101      	str	r1, [sp, #4]
 800779c:	f000 ff8c 	bl	80086b8 <malloc>
 80077a0:	9901      	ldr	r1, [sp, #4]
 80077a2:	65b0      	str	r0, [r6, #88]	; 0x58
 80077a4:	4602      	mov	r2, r0
 80077a6:	b920      	cbnz	r0, 80077b2 <strtok+0x26>
 80077a8:	4b10      	ldr	r3, [pc, #64]	; (80077ec <strtok+0x60>)
 80077aa:	4811      	ldr	r0, [pc, #68]	; (80077f0 <strtok+0x64>)
 80077ac:	2157      	movs	r1, #87	; 0x57
 80077ae:	f000 f8d5 	bl	800795c <__assert_func>
 80077b2:	e9c0 4400 	strd	r4, r4, [r0]
 80077b6:	e9c0 4402 	strd	r4, r4, [r0, #8]
 80077ba:	e9c0 4404 	strd	r4, r4, [r0, #16]
 80077be:	e9c0 440a 	strd	r4, r4, [r0, #40]	; 0x28
 80077c2:	e9c0 440c 	strd	r4, r4, [r0, #48]	; 0x30
 80077c6:	e9c0 440e 	strd	r4, r4, [r0, #56]	; 0x38
 80077ca:	e9c0 4410 	strd	r4, r4, [r0, #64]	; 0x40
 80077ce:	e9c0 4412 	strd	r4, r4, [r0, #72]	; 0x48
 80077d2:	6184      	str	r4, [r0, #24]
 80077d4:	7704      	strb	r4, [r0, #28]
 80077d6:	6244      	str	r4, [r0, #36]	; 0x24
 80077d8:	6db2      	ldr	r2, [r6, #88]	; 0x58
 80077da:	2301      	movs	r3, #1
 80077dc:	4628      	mov	r0, r5
 80077de:	b002      	add	sp, #8
 80077e0:	e8bd 4070 	ldmia.w	sp!, {r4, r5, r6, lr}
 80077e4:	f000 b806 	b.w	80077f4 <__strtok_r>
 80077e8:	2000003c 	.word	0x2000003c
 80077ec:	0800aa38 	.word	0x0800aa38
 80077f0:	0800aa4f 	.word	0x0800aa4f

080077f4 <__strtok_r>:
 80077f4:	b5f0      	push	{r4, r5, r6, r7, lr}
 80077f6:	b908      	cbnz	r0, 80077fc <__strtok_r+0x8>
 80077f8:	6810      	ldr	r0, [r2, #0]
 80077fa:	b188      	cbz	r0, 8007820 <__strtok_r+0x2c>
 80077fc:	4604      	mov	r4, r0
 80077fe:	4620      	mov	r0, r4
 8007800:	f814 5b01 	ldrb.w	r5, [r4], #1
 8007804:	460f      	mov	r7, r1
 8007806:	f817 6b01 	ldrb.w	r6, [r7], #1
 800780a:	b91e      	cbnz	r6, 8007814 <__strtok_r+0x20>
 800780c:	b965      	cbnz	r5, 8007828 <__strtok_r+0x34>
 800780e:	6015      	str	r5, [r2, #0]
 8007810:	4628      	mov	r0, r5
 8007812:	e005      	b.n	8007820 <__strtok_r+0x2c>
 8007814:	42b5      	cmp	r5, r6
 8007816:	d1f6      	bne.n	8007806 <__strtok_r+0x12>
 8007818:	2b00      	cmp	r3, #0
 800781a:	d1f0      	bne.n	80077fe <__strtok_r+0xa>
 800781c:	6014      	str	r4, [r2, #0]
 800781e:	7003      	strb	r3, [r0, #0]
 8007820:	bdf0      	pop	{r4, r5, r6, r7, pc}
 8007822:	461c      	mov	r4, r3
 8007824:	e00c      	b.n	8007840 <__strtok_r+0x4c>
 8007826:	b915      	cbnz	r5, 800782e <__strtok_r+0x3a>
 8007828:	f814 3b01 	ldrb.w	r3, [r4], #1
 800782c:	460e      	mov	r6, r1
 800782e:	f816 5b01 	ldrb.w	r5, [r6], #1
 8007832:	42ab      	cmp	r3, r5
 8007834:	d1f7      	bne.n	8007826 <__strtok_r+0x32>
 8007836:	2b00      	cmp	r3, #0
 8007838:	d0f3      	beq.n	8007822 <__strtok_r+0x2e>
 800783a:	2300      	movs	r3, #0
 800783c:	f804 3c01 	strb.w	r3, [r4, #-1]
 8007840:	6014      	str	r4, [r2, #0]
 8007842:	e7ed      	b.n	8007820 <__strtok_r+0x2c>

08007844 <_strtol_l.constprop.0>:
 8007844:	2b01      	cmp	r3, #1
 8007846:	e92d 47f0 	stmdb	sp!, {r4, r5, r6, r7, r8, r9, sl, lr}
 800784a:	d001      	beq.n	8007850 <_strtol_l.constprop.0+0xc>
 800784c:	2b24      	cmp	r3, #36	; 0x24
 800784e:	d906      	bls.n	800785e <_strtol_l.constprop.0+0x1a>
 8007850:	f7ff faca 	bl	8006de8 <__errno>
 8007854:	2316      	movs	r3, #22
 8007856:	6003      	str	r3, [r0, #0]
 8007858:	2000      	movs	r0, #0
 800785a:	e8bd 87f0 	ldmia.w	sp!, {r4, r5, r6, r7, r8, r9, sl, pc}
 800785e:	f8df c0e4 	ldr.w	ip, [pc, #228]	; 8007944 <_strtol_l.constprop.0+0x100>
 8007862:	460d      	mov	r5, r1
 8007864:	462e      	mov	r6, r5
 8007866:	f815 4b01 	ldrb.w	r4, [r5], #1
 800786a:	f814 700c 	ldrb.w	r7, [r4, ip]
 800786e:	f017 0708 	ands.w	r7, r7, #8
 8007872:	d1f7      	bne.n	8007864 <_strtol_l.constprop.0+0x20>
 8007874:	2c2d      	cmp	r4, #45	; 0x2d
 8007876:	d132      	bne.n	80078de <_strtol_l.constprop.0+0x9a>
 8007878:	782c      	ldrb	r4, [r5, #0]
 800787a:	2701      	movs	r7, #1
 800787c:	1cb5      	adds	r5, r6, #2
 800787e:	2b00      	cmp	r3, #0
 8007880:	d05b      	beq.n	800793a <_strtol_l.constprop.0+0xf6>
 8007882:	2b10      	cmp	r3, #16
 8007884:	d109      	bne.n	800789a <_strtol_l.constprop.0+0x56>
 8007886:	2c30      	cmp	r4, #48	; 0x30
 8007888:	d107      	bne.n	800789a <_strtol_l.constprop.0+0x56>
 800788a:	782c      	ldrb	r4, [r5, #0]
 800788c:	f004 04df 	and.w	r4, r4, #223	; 0xdf
 8007890:	2c58      	cmp	r4, #88	; 0x58
 8007892:	d14d      	bne.n	8007930 <_strtol_l.constprop.0+0xec>
 8007894:	786c      	ldrb	r4, [r5, #1]
 8007896:	2310      	movs	r3, #16
 8007898:	3502      	adds	r5, #2
 800789a:	f107 4800 	add.w	r8, r7, #2147483648	; 0x80000000
 800789e:	f108 38ff 	add.w	r8, r8, #4294967295
 80078a2:	f04f 0c00 	mov.w	ip, #0
 80078a6:	fbb8 f9f3 	udiv	r9, r8, r3
 80078aa:	4666      	mov	r6, ip
 80078ac:	fb03 8a19 	mls	sl, r3, r9, r8
 80078b0:	f1a4 0e30 	sub.w	lr, r4, #48	; 0x30
 80078b4:	f1be 0f09 	cmp.w	lr, #9
 80078b8:	d816      	bhi.n	80078e8 <_strtol_l.constprop.0+0xa4>
 80078ba:	4674      	mov	r4, lr
 80078bc:	42a3      	cmp	r3, r4
 80078be:	dd24      	ble.n	800790a <_strtol_l.constprop.0+0xc6>
 80078c0:	f1bc 0f00 	cmp.w	ip, #0
 80078c4:	db1e      	blt.n	8007904 <_strtol_l.constprop.0+0xc0>
 80078c6:	45b1      	cmp	r9, r6
 80078c8:	d31c      	bcc.n	8007904 <_strtol_l.constprop.0+0xc0>
 80078ca:	d101      	bne.n	80078d0 <_strtol_l.constprop.0+0x8c>
 80078cc:	45a2      	cmp	sl, r4
 80078ce:	db19      	blt.n	8007904 <_strtol_l.constprop.0+0xc0>
 80078d0:	fb06 4603 	mla	r6, r6, r3, r4
 80078d4:	f04f 0c01 	mov.w	ip, #1
 80078d8:	f815 4b01 	ldrb.w	r4, [r5], #1
 80078dc:	e7e8      	b.n	80078b0 <_strtol_l.constprop.0+0x6c>
 80078de:	2c2b      	cmp	r4, #43	; 0x2b
 80078e0:	bf04      	itt	eq
 80078e2:	782c      	ldrbeq	r4, [r5, #0]
 80078e4:	1cb5      	addeq	r5, r6, #2
 80078e6:	e7ca      	b.n	800787e <_strtol_l.constprop.0+0x3a>
 80078e8:	f1a4 0e41 	sub.w	lr, r4, #65	; 0x41
 80078ec:	f1be 0f19 	cmp.w	lr, #25
 80078f0:	d801      	bhi.n	80078f6 <_strtol_l.constprop.0+0xb2>
 80078f2:	3c37      	subs	r4, #55	; 0x37
 80078f4:	e7e2      	b.n	80078bc <_strtol_l.constprop.0+0x78>
 80078f6:	f1a4 0e61 	sub.w	lr, r4, #97	; 0x61
 80078fa:	f1be 0f19 	cmp.w	lr, #25
 80078fe:	d804      	bhi.n	800790a <_strtol_l.constprop.0+0xc6>
 8007900:	3c57      	subs	r4, #87	; 0x57
 8007902:	e7db      	b.n	80078bc <_strtol_l.constprop.0+0x78>
 8007904:	f04f 3cff 	mov.w	ip, #4294967295
 8007908:	e7e6      	b.n	80078d8 <_strtol_l.constprop.0+0x94>
 800790a:	f1bc 0f00 	cmp.w	ip, #0
 800790e:	da05      	bge.n	800791c <_strtol_l.constprop.0+0xd8>
 8007910:	2322      	movs	r3, #34	; 0x22
 8007912:	6003      	str	r3, [r0, #0]
 8007914:	4646      	mov	r6, r8
 8007916:	b942      	cbnz	r2, 800792a <_strtol_l.constprop.0+0xe6>
 8007918:	4630      	mov	r0, r6
 800791a:	e79e      	b.n	800785a <_strtol_l.constprop.0+0x16>
 800791c:	b107      	cbz	r7, 8007920 <_strtol_l.constprop.0+0xdc>
 800791e:	4276      	negs	r6, r6
 8007920:	2a00      	cmp	r2, #0
 8007922:	d0f9      	beq.n	8007918 <_strtol_l.constprop.0+0xd4>
 8007924:	f1bc 0f00 	cmp.w	ip, #0
 8007928:	d000      	beq.n	800792c <_strtol_l.constprop.0+0xe8>
 800792a:	1e69      	subs	r1, r5, #1
 800792c:	6011      	str	r1, [r2, #0]
 800792e:	e7f3      	b.n	8007918 <_strtol_l.constprop.0+0xd4>
 8007930:	2430      	movs	r4, #48	; 0x30
 8007932:	2b00      	cmp	r3, #0
 8007934:	d1b1      	bne.n	800789a <_strtol_l.constprop.0+0x56>
 8007936:	2308      	movs	r3, #8
 8007938:	e7af      	b.n	800789a <_strtol_l.constprop.0+0x56>
 800793a:	2c30      	cmp	r4, #48	; 0x30
 800793c:	d0a5      	beq.n	800788a <_strtol_l.constprop.0+0x46>
 800793e:	230a      	movs	r3, #10
 8007940:	e7ab      	b.n	800789a <_strtol_l.constprop.0+0x56>
 8007942:	bf00      	nop
 8007944:	0800aae9 	.word	0x0800aae9

08007948 <strtol>:
 8007948:	4613      	mov	r3, r2
 800794a:	460a      	mov	r2, r1
 800794c:	4601      	mov	r1, r0
 800794e:	4802      	ldr	r0, [pc, #8]	; (8007958 <strtol+0x10>)
 8007950:	6800      	ldr	r0, [r0, #0]
 8007952:	f7ff bf77 	b.w	8007844 <_strtol_l.constprop.0>
 8007956:	bf00      	nop
 8007958:	2000003c 	.word	0x2000003c

0800795c <__assert_func>:
 800795c:	b51f      	push	{r0, r1, r2, r3, r4, lr}
 800795e:	4614      	mov	r4, r2
 8007960:	461a      	mov	r2, r3
 8007962:	4b09      	ldr	r3, [pc, #36]	; (8007988 <__assert_func+0x2c>)
 8007964:	681b      	ldr	r3, [r3, #0]
 8007966:	4605      	mov	r5, r0
 8007968:	68d8      	ldr	r0, [r3, #12]
 800796a:	b14c      	cbz	r4, 8007980 <__assert_func+0x24>
 800796c:	4b07      	ldr	r3, [pc, #28]	; (800798c <__assert_func+0x30>)
 800796e:	9100      	str	r1, [sp, #0]
 8007970:	e9cd 3401 	strd	r3, r4, [sp, #4]
 8007974:	4906      	ldr	r1, [pc, #24]	; (8007990 <__assert_func+0x34>)
 8007976:	462b      	mov	r3, r5
 8007978:	f000 fe88 	bl	800868c <fiprintf>
 800797c:	f001 fea4 	bl	80096c8 <abort>
 8007980:	4b04      	ldr	r3, [pc, #16]	; (8007994 <__assert_func+0x38>)
 8007982:	461c      	mov	r4, r3
 8007984:	e7f3      	b.n	800796e <__assert_func+0x12>
 8007986:	bf00      	nop
 8007988:	2000003c 	.word	0x2000003c
 800798c:	0800aaac 	.word	0x0800aaac
 8007990:	0800aab9 	.word	0x0800aab9
 8007994:	0800aae7 	.word	0x0800aae7

08007998 <quorem>:
 8007998:	e92d 4ff7 	stmdb	sp!, {r0, r1, r2, r4, r5, r6, r7, r8, r9, sl, fp, lr}
 800799c:	6903      	ldr	r3, [r0, #16]
 800799e:	690c      	ldr	r4, [r1, #16]
 80079a0:	42a3      	cmp	r3, r4
 80079a2:	4607      	mov	r7, r0
 80079a4:	f2c0 8081 	blt.w	8007aaa <quorem+0x112>
 80079a8:	3c01      	subs	r4, #1
 80079aa:	f101 0814 	add.w	r8, r1, #20
 80079ae:	f100 0514 	add.w	r5, r0, #20
 80079b2:	eb05 0384 	add.w	r3, r5, r4, lsl #2
 80079b6:	9301      	str	r3, [sp, #4]
 80079b8:	f858 3024 	ldr.w	r3, [r8, r4, lsl #2]
 80079bc:	f855 2024 	ldr.w	r2, [r5, r4, lsl #2]
 80079c0:	3301      	adds	r3, #1
 80079c2:	429a      	cmp	r2, r3
 80079c4:	ea4f 0b84 	mov.w	fp, r4, lsl #2
 80079c8:	eb08 0984 	add.w	r9, r8, r4, lsl #2
 80079cc:	fbb2 f6f3 	udiv	r6, r2, r3
 80079d0:	d331      	bcc.n	8007a36 <quorem+0x9e>
 80079d2:	f04f 0e00 	mov.w	lr, #0
 80079d6:	4640      	mov	r0, r8
 80079d8:	46ac      	mov	ip, r5
 80079da:	46f2      	mov	sl, lr
 80079dc:	f850 2b04 	ldr.w	r2, [r0], #4
 80079e0:	b293      	uxth	r3, r2
 80079e2:	fb06 e303 	mla	r3, r6, r3, lr
 80079e6:	ea4f 4e13 	mov.w	lr, r3, lsr #16
 80079ea:	b29b      	uxth	r3, r3
 80079ec:	ebaa 0303 	sub.w	r3, sl, r3
 80079f0:	f8dc a000 	ldr.w	sl, [ip]
 80079f4:	0c12      	lsrs	r2, r2, #16
 80079f6:	fa13 f38a 	uxtah	r3, r3, sl
 80079fa:	fb06 e202 	mla	r2, r6, r2, lr
 80079fe:	9300      	str	r3, [sp, #0]
 8007a00:	9b00      	ldr	r3, [sp, #0]
 8007a02:	ea4f 4e12 	mov.w	lr, r2, lsr #16
 8007a06:	b292      	uxth	r2, r2
 8007a08:	ebc2 421a 	rsb	r2, r2, sl, lsr #16
 8007a0c:	eb02 4223 	add.w	r2, r2, r3, asr #16
 8007a10:	f8bd 3000 	ldrh.w	r3, [sp]
 8007a14:	4581      	cmp	r9, r0
 8007a16:	ea43 4302 	orr.w	r3, r3, r2, lsl #16
 8007a1a:	f84c 3b04 	str.w	r3, [ip], #4
 8007a1e:	ea4f 4a22 	mov.w	sl, r2, asr #16
 8007a22:	d2db      	bcs.n	80079dc <quorem+0x44>
 8007a24:	f855 300b 	ldr.w	r3, [r5, fp]
 8007a28:	b92b      	cbnz	r3, 8007a36 <quorem+0x9e>
 8007a2a:	9b01      	ldr	r3, [sp, #4]
 8007a2c:	3b04      	subs	r3, #4
 8007a2e:	429d      	cmp	r5, r3
 8007a30:	461a      	mov	r2, r3
 8007a32:	d32e      	bcc.n	8007a92 <quorem+0xfa>
 8007a34:	613c      	str	r4, [r7, #16]
 8007a36:	4638      	mov	r0, r7
 8007a38:	f001 f8c8 	bl	8008bcc <__mcmp>
 8007a3c:	2800      	cmp	r0, #0
 8007a3e:	db24      	blt.n	8007a8a <quorem+0xf2>
 8007a40:	3601      	adds	r6, #1
 8007a42:	4628      	mov	r0, r5
 8007a44:	f04f 0c00 	mov.w	ip, #0
 8007a48:	f858 2b04 	ldr.w	r2, [r8], #4
 8007a4c:	f8d0 e000 	ldr.w	lr, [r0]
 8007a50:	b293      	uxth	r3, r2
 8007a52:	ebac 0303 	sub.w	r3, ip, r3
 8007a56:	0c12      	lsrs	r2, r2, #16
 8007a58:	fa13 f38e 	uxtah	r3, r3, lr
 8007a5c:	ebc2 421e 	rsb	r2, r2, lr, lsr #16
 8007a60:	eb02 4223 	add.w	r2, r2, r3, asr #16
 8007a64:	b29b      	uxth	r3, r3
 8007a66:	ea43 4302 	orr.w	r3, r3, r2, lsl #16
 8007a6a:	45c1      	cmp	r9, r8
 8007a6c:	f840 3b04 	str.w	r3, [r0], #4
 8007a70:	ea4f 4c22 	mov.w	ip, r2, asr #16
 8007a74:	d2e8      	bcs.n	8007a48 <quorem+0xb0>
 8007a76:	f855 2024 	ldr.w	r2, [r5, r4, lsl #2]
 8007a7a:	eb05 0384 	add.w	r3, r5, r4, lsl #2
 8007a7e:	b922      	cbnz	r2, 8007a8a <quorem+0xf2>
 8007a80:	3b04      	subs	r3, #4
 8007a82:	429d      	cmp	r5, r3
 8007a84:	461a      	mov	r2, r3
 8007a86:	d30a      	bcc.n	8007a9e <quorem+0x106>
 8007a88:	613c      	str	r4, [r7, #16]
 8007a8a:	4630      	mov	r0, r6
 8007a8c:	b003      	add	sp, #12
 8007a8e:	e8bd 8ff0 	ldmia.w	sp!, {r4, r5, r6, r7, r8, r9, sl, fp, pc}
 8007a92:	6812      	ldr	r2, [r2, #0]
 8007a94:	3b04      	subs	r3, #4
 8007a96:	2a00      	cmp	r2, #0
 8007a98:	d1cc      	bne.n	8007a34 <quorem+0x9c>
 8007a9a:	3c01      	subs	r4, #1
 8007a9c:	e7c7      	b.n	8007a2e <quorem+0x96>
 8007a9e:	6812      	ldr	r2, [r2, #0]
 8007aa0:	3b04      	subs	r3, #4
 8007aa2:	2a00      	cmp	r2, #0
 8007aa4:	d1f0      	bne.n	8007a88 <quorem+0xf0>
 8007aa6:	3c01      	subs	r4, #1
 8007aa8:	e7eb      	b.n	8007a82 <quorem+0xea>
 8007aaa:	2000      	movs	r0, #0
 8007aac:	e7ee      	b.n	8007a8c <quorem+0xf4>
	...

08007ab0 <_dtoa_r>:
 8007ab0:	e92d 4ff0 	stmdb	sp!, {r4, r5, r6, r7, r8, r9, sl, fp, lr}
 8007ab4:	ed2d 8b04 	vpush	{d8-d9}
 8007ab8:	ec57 6b10 	vmov	r6, r7, d0
 8007abc:	b093      	sub	sp, #76	; 0x4c
 8007abe:	6a45      	ldr	r5, [r0, #36]	; 0x24
 8007ac0:	f8dd 8080 	ldr.w	r8, [sp, #128]	; 0x80
 8007ac4:	9106      	str	r1, [sp, #24]
 8007ac6:	ee10 aa10 	vmov	sl, s0
 8007aca:	4604      	mov	r4, r0
 8007acc:	9209      	str	r2, [sp, #36]	; 0x24
 8007ace:	930c      	str	r3, [sp, #48]	; 0x30
 8007ad0:	46bb      	mov	fp, r7
 8007ad2:	b975      	cbnz	r5, 8007af2 <_dtoa_r+0x42>
 8007ad4:	2010      	movs	r0, #16
 8007ad6:	f000 fdef 	bl	80086b8 <malloc>
 8007ada:	4602      	mov	r2, r0
 8007adc:	6260      	str	r0, [r4, #36]	; 0x24
 8007ade:	b920      	cbnz	r0, 8007aea <_dtoa_r+0x3a>
 8007ae0:	4ba7      	ldr	r3, [pc, #668]	; (8007d80 <_dtoa_r+0x2d0>)
 8007ae2:	21ea      	movs	r1, #234	; 0xea
 8007ae4:	48a7      	ldr	r0, [pc, #668]	; (8007d84 <_dtoa_r+0x2d4>)
 8007ae6:	f7ff ff39 	bl	800795c <__assert_func>
 8007aea:	e9c0 5501 	strd	r5, r5, [r0, #4]
 8007aee:	6005      	str	r5, [r0, #0]
 8007af0:	60c5      	str	r5, [r0, #12]
 8007af2:	6a63      	ldr	r3, [r4, #36]	; 0x24
 8007af4:	6819      	ldr	r1, [r3, #0]
 8007af6:	b151      	cbz	r1, 8007b0e <_dtoa_r+0x5e>
 8007af8:	685a      	ldr	r2, [r3, #4]
 8007afa:	604a      	str	r2, [r1, #4]
 8007afc:	2301      	movs	r3, #1
 8007afe:	4093      	lsls	r3, r2
 8007b00:	608b      	str	r3, [r1, #8]
 8007b02:	4620      	mov	r0, r4
 8007b04:	f000 fe20 	bl	8008748 <_Bfree>
 8007b08:	6a63      	ldr	r3, [r4, #36]	; 0x24
 8007b0a:	2200      	movs	r2, #0
 8007b0c:	601a      	str	r2, [r3, #0]
 8007b0e:	1e3b      	subs	r3, r7, #0
 8007b10:	bfaa      	itet	ge
 8007b12:	2300      	movge	r3, #0
 8007b14:	f023 4b00 	biclt.w	fp, r3, #2147483648	; 0x80000000
 8007b18:	f8c8 3000 	strge.w	r3, [r8]
 8007b1c:	4b9a      	ldr	r3, [pc, #616]	; (8007d88 <_dtoa_r+0x2d8>)
 8007b1e:	bfbc      	itt	lt
 8007b20:	2201      	movlt	r2, #1
 8007b22:	f8c8 2000 	strlt.w	r2, [r8]
 8007b26:	ea33 030b 	bics.w	r3, r3, fp
 8007b2a:	d11b      	bne.n	8007b64 <_dtoa_r+0xb4>
 8007b2c:	9a0c      	ldr	r2, [sp, #48]	; 0x30
 8007b2e:	f242 730f 	movw	r3, #9999	; 0x270f
 8007b32:	6013      	str	r3, [r2, #0]
 8007b34:	f3cb 0313 	ubfx	r3, fp, #0, #20
 8007b38:	4333      	orrs	r3, r6
 8007b3a:	f000 8592 	beq.w	8008662 <_dtoa_r+0xbb2>
 8007b3e:	9b21      	ldr	r3, [sp, #132]	; 0x84
 8007b40:	b963      	cbnz	r3, 8007b5c <_dtoa_r+0xac>
 8007b42:	4b92      	ldr	r3, [pc, #584]	; (8007d8c <_dtoa_r+0x2dc>)
 8007b44:	e022      	b.n	8007b8c <_dtoa_r+0xdc>
 8007b46:	4b92      	ldr	r3, [pc, #584]	; (8007d90 <_dtoa_r+0x2e0>)
 8007b48:	9301      	str	r3, [sp, #4]
 8007b4a:	3308      	adds	r3, #8
 8007b4c:	9a21      	ldr	r2, [sp, #132]	; 0x84
 8007b4e:	6013      	str	r3, [r2, #0]
 8007b50:	9801      	ldr	r0, [sp, #4]
 8007b52:	b013      	add	sp, #76	; 0x4c
 8007b54:	ecbd 8b04 	vpop	{d8-d9}
 8007b58:	e8bd 8ff0 	ldmia.w	sp!, {r4, r5, r6, r7, r8, r9, sl, fp, pc}
 8007b5c:	4b8b      	ldr	r3, [pc, #556]	; (8007d8c <_dtoa_r+0x2dc>)
 8007b5e:	9301      	str	r3, [sp, #4]
 8007b60:	3303      	adds	r3, #3
 8007b62:	e7f3      	b.n	8007b4c <_dtoa_r+0x9c>
 8007b64:	2200      	movs	r2, #0
 8007b66:	2300      	movs	r3, #0
 8007b68:	4650      	mov	r0, sl
 8007b6a:	4659      	mov	r1, fp
 8007b6c:	f7f8 ffac 	bl	8000ac8 <__aeabi_dcmpeq>
 8007b70:	ec4b ab19 	vmov	d9, sl, fp
 8007b74:	4680      	mov	r8, r0
 8007b76:	b158      	cbz	r0, 8007b90 <_dtoa_r+0xe0>
 8007b78:	9a0c      	ldr	r2, [sp, #48]	; 0x30
 8007b7a:	2301      	movs	r3, #1
 8007b7c:	6013      	str	r3, [r2, #0]
 8007b7e:	9b21      	ldr	r3, [sp, #132]	; 0x84
 8007b80:	2b00      	cmp	r3, #0
 8007b82:	f000 856b 	beq.w	800865c <_dtoa_r+0xbac>
 8007b86:	4883      	ldr	r0, [pc, #524]	; (8007d94 <_dtoa_r+0x2e4>)
 8007b88:	6018      	str	r0, [r3, #0]
 8007b8a:	1e43      	subs	r3, r0, #1
 8007b8c:	9301      	str	r3, [sp, #4]
 8007b8e:	e7df      	b.n	8007b50 <_dtoa_r+0xa0>
 8007b90:	ec4b ab10 	vmov	d0, sl, fp
 8007b94:	aa10      	add	r2, sp, #64	; 0x40
 8007b96:	a911      	add	r1, sp, #68	; 0x44
 8007b98:	4620      	mov	r0, r4
 8007b9a:	f001 f8bd 	bl	8008d18 <__d2b>
 8007b9e:	f3cb 550a 	ubfx	r5, fp, #20, #11
 8007ba2:	ee08 0a10 	vmov	s16, r0
 8007ba6:	2d00      	cmp	r5, #0
 8007ba8:	f000 8084 	beq.w	8007cb4 <_dtoa_r+0x204>
 8007bac:	ee19 3a90 	vmov	r3, s19
 8007bb0:	f3c3 0313 	ubfx	r3, r3, #0, #20
 8007bb4:	f043 577f 	orr.w	r7, r3, #1069547520	; 0x3fc00000
 8007bb8:	4656      	mov	r6, sl
 8007bba:	f447 1740 	orr.w	r7, r7, #3145728	; 0x300000
 8007bbe:	f2a5 35ff 	subw	r5, r5, #1023	; 0x3ff
 8007bc2:	f8cd 8038 	str.w	r8, [sp, #56]	; 0x38
 8007bc6:	4b74      	ldr	r3, [pc, #464]	; (8007d98 <_dtoa_r+0x2e8>)
 8007bc8:	2200      	movs	r2, #0
 8007bca:	4630      	mov	r0, r6
 8007bcc:	4639      	mov	r1, r7
 8007bce:	f7f8 fb5b 	bl	8000288 <__aeabi_dsub>
 8007bd2:	a365      	add	r3, pc, #404	; (adr r3, 8007d68 <_dtoa_r+0x2b8>)
 8007bd4:	e9d3 2300 	ldrd	r2, r3, [r3]
 8007bd8:	f7f8 fd0e 	bl	80005f8 <__aeabi_dmul>
 8007bdc:	a364      	add	r3, pc, #400	; (adr r3, 8007d70 <_dtoa_r+0x2c0>)
 8007bde:	e9d3 2300 	ldrd	r2, r3, [r3]
 8007be2:	f7f8 fb53 	bl	800028c <__adddf3>
 8007be6:	4606      	mov	r6, r0
 8007be8:	4628      	mov	r0, r5
 8007bea:	460f      	mov	r7, r1
 8007bec:	f7f8 fc9a 	bl	8000524 <__aeabi_i2d>
 8007bf0:	a361      	add	r3, pc, #388	; (adr r3, 8007d78 <_dtoa_r+0x2c8>)
 8007bf2:	e9d3 2300 	ldrd	r2, r3, [r3]
 8007bf6:	f7f8 fcff 	bl	80005f8 <__aeabi_dmul>
 8007bfa:	4602      	mov	r2, r0
 8007bfc:	460b      	mov	r3, r1
 8007bfe:	4630      	mov	r0, r6
 8007c00:	4639      	mov	r1, r7
 8007c02:	f7f8 fb43 	bl	800028c <__adddf3>
 8007c06:	4606      	mov	r6, r0
 8007c08:	460f      	mov	r7, r1
 8007c0a:	f7f8 ffa5 	bl	8000b58 <__aeabi_d2iz>
 8007c0e:	2200      	movs	r2, #0
 8007c10:	9000      	str	r0, [sp, #0]
 8007c12:	2300      	movs	r3, #0
 8007c14:	4630      	mov	r0, r6
 8007c16:	4639      	mov	r1, r7
 8007c18:	f7f8 ff60 	bl	8000adc <__aeabi_dcmplt>
 8007c1c:	b150      	cbz	r0, 8007c34 <_dtoa_r+0x184>
 8007c1e:	9800      	ldr	r0, [sp, #0]
 8007c20:	f7f8 fc80 	bl	8000524 <__aeabi_i2d>
 8007c24:	4632      	mov	r2, r6
 8007c26:	463b      	mov	r3, r7
 8007c28:	f7f8 ff4e 	bl	8000ac8 <__aeabi_dcmpeq>
 8007c2c:	b910      	cbnz	r0, 8007c34 <_dtoa_r+0x184>
 8007c2e:	9b00      	ldr	r3, [sp, #0]
 8007c30:	3b01      	subs	r3, #1
 8007c32:	9300      	str	r3, [sp, #0]
 8007c34:	9b00      	ldr	r3, [sp, #0]
 8007c36:	2b16      	cmp	r3, #22
 8007c38:	d85a      	bhi.n	8007cf0 <_dtoa_r+0x240>
 8007c3a:	9a00      	ldr	r2, [sp, #0]
 8007c3c:	4b57      	ldr	r3, [pc, #348]	; (8007d9c <_dtoa_r+0x2ec>)
 8007c3e:	eb03 03c2 	add.w	r3, r3, r2, lsl #3
 8007c42:	e9d3 2300 	ldrd	r2, r3, [r3]
 8007c46:	ec51 0b19 	vmov	r0, r1, d9
 8007c4a:	f7f8 ff47 	bl	8000adc <__aeabi_dcmplt>
 8007c4e:	2800      	cmp	r0, #0
 8007c50:	d050      	beq.n	8007cf4 <_dtoa_r+0x244>
 8007c52:	9b00      	ldr	r3, [sp, #0]
 8007c54:	3b01      	subs	r3, #1
 8007c56:	9300      	str	r3, [sp, #0]
 8007c58:	2300      	movs	r3, #0
 8007c5a:	930b      	str	r3, [sp, #44]	; 0x2c
 8007c5c:	9b10      	ldr	r3, [sp, #64]	; 0x40
 8007c5e:	1b5d      	subs	r5, r3, r5
 8007c60:	1e6b      	subs	r3, r5, #1
 8007c62:	9305      	str	r3, [sp, #20]
 8007c64:	bf45      	ittet	mi
 8007c66:	f1c5 0301 	rsbmi	r3, r5, #1
 8007c6a:	9304      	strmi	r3, [sp, #16]
 8007c6c:	2300      	movpl	r3, #0
 8007c6e:	2300      	movmi	r3, #0
 8007c70:	bf4c      	ite	mi
 8007c72:	9305      	strmi	r3, [sp, #20]
 8007c74:	9304      	strpl	r3, [sp, #16]
 8007c76:	9b00      	ldr	r3, [sp, #0]
 8007c78:	2b00      	cmp	r3, #0
 8007c7a:	db3d      	blt.n	8007cf8 <_dtoa_r+0x248>
 8007c7c:	9b05      	ldr	r3, [sp, #20]
 8007c7e:	9a00      	ldr	r2, [sp, #0]
 8007c80:	920a      	str	r2, [sp, #40]	; 0x28
 8007c82:	4413      	add	r3, r2
 8007c84:	9305      	str	r3, [sp, #20]
 8007c86:	2300      	movs	r3, #0
 8007c88:	9307      	str	r3, [sp, #28]
 8007c8a:	9b06      	ldr	r3, [sp, #24]
 8007c8c:	2b09      	cmp	r3, #9
 8007c8e:	f200 8089 	bhi.w	8007da4 <_dtoa_r+0x2f4>
 8007c92:	2b05      	cmp	r3, #5
 8007c94:	bfc4      	itt	gt
 8007c96:	3b04      	subgt	r3, #4
 8007c98:	9306      	strgt	r3, [sp, #24]
 8007c9a:	9b06      	ldr	r3, [sp, #24]
 8007c9c:	f1a3 0302 	sub.w	r3, r3, #2
 8007ca0:	bfcc      	ite	gt
 8007ca2:	2500      	movgt	r5, #0
 8007ca4:	2501      	movle	r5, #1
 8007ca6:	2b03      	cmp	r3, #3
 8007ca8:	f200 8087 	bhi.w	8007dba <_dtoa_r+0x30a>
 8007cac:	e8df f003 	tbb	[pc, r3]
 8007cb0:	59383a2d 	.word	0x59383a2d
 8007cb4:	e9dd 5310 	ldrd	r5, r3, [sp, #64]	; 0x40
 8007cb8:	441d      	add	r5, r3
 8007cba:	f205 4332 	addw	r3, r5, #1074	; 0x432
 8007cbe:	2b20      	cmp	r3, #32
 8007cc0:	bfc1      	itttt	gt
 8007cc2:	f1c3 0340 	rsbgt	r3, r3, #64	; 0x40
 8007cc6:	f205 4012 	addwgt	r0, r5, #1042	; 0x412
 8007cca:	fa0b f303 	lslgt.w	r3, fp, r3
 8007cce:	fa26 f000 	lsrgt.w	r0, r6, r0
 8007cd2:	bfda      	itte	le
 8007cd4:	f1c3 0320 	rsble	r3, r3, #32
 8007cd8:	fa06 f003 	lslle.w	r0, r6, r3
 8007cdc:	4318      	orrgt	r0, r3
 8007cde:	f7f8 fc11 	bl	8000504 <__aeabi_ui2d>
 8007ce2:	2301      	movs	r3, #1
 8007ce4:	4606      	mov	r6, r0
 8007ce6:	f1a1 77f8 	sub.w	r7, r1, #32505856	; 0x1f00000
 8007cea:	3d01      	subs	r5, #1
 8007cec:	930e      	str	r3, [sp, #56]	; 0x38
 8007cee:	e76a      	b.n	8007bc6 <_dtoa_r+0x116>
 8007cf0:	2301      	movs	r3, #1
 8007cf2:	e7b2      	b.n	8007c5a <_dtoa_r+0x1aa>
 8007cf4:	900b      	str	r0, [sp, #44]	; 0x2c
 8007cf6:	e7b1      	b.n	8007c5c <_dtoa_r+0x1ac>
 8007cf8:	9b04      	ldr	r3, [sp, #16]
 8007cfa:	9a00      	ldr	r2, [sp, #0]
 8007cfc:	1a9b      	subs	r3, r3, r2
 8007cfe:	9304      	str	r3, [sp, #16]
 8007d00:	4253      	negs	r3, r2
 8007d02:	9307      	str	r3, [sp, #28]
 8007d04:	2300      	movs	r3, #0
 8007d06:	930a      	str	r3, [sp, #40]	; 0x28
 8007d08:	e7bf      	b.n	8007c8a <_dtoa_r+0x1da>
 8007d0a:	2300      	movs	r3, #0
 8007d0c:	9308      	str	r3, [sp, #32]
 8007d0e:	9b09      	ldr	r3, [sp, #36]	; 0x24
 8007d10:	2b00      	cmp	r3, #0
 8007d12:	dc55      	bgt.n	8007dc0 <_dtoa_r+0x310>
 8007d14:	2301      	movs	r3, #1
 8007d16:	e9cd 3302 	strd	r3, r3, [sp, #8]
 8007d1a:	461a      	mov	r2, r3
 8007d1c:	9209      	str	r2, [sp, #36]	; 0x24
 8007d1e:	e00c      	b.n	8007d3a <_dtoa_r+0x28a>
 8007d20:	2301      	movs	r3, #1
 8007d22:	e7f3      	b.n	8007d0c <_dtoa_r+0x25c>
 8007d24:	2300      	movs	r3, #0
 8007d26:	9a09      	ldr	r2, [sp, #36]	; 0x24
 8007d28:	9308      	str	r3, [sp, #32]
 8007d2a:	9b00      	ldr	r3, [sp, #0]
 8007d2c:	4413      	add	r3, r2
 8007d2e:	9302      	str	r3, [sp, #8]
 8007d30:	3301      	adds	r3, #1
 8007d32:	2b01      	cmp	r3, #1
 8007d34:	9303      	str	r3, [sp, #12]
 8007d36:	bfb8      	it	lt
 8007d38:	2301      	movlt	r3, #1
 8007d3a:	6a60      	ldr	r0, [r4, #36]	; 0x24
 8007d3c:	2200      	movs	r2, #0
 8007d3e:	6042      	str	r2, [r0, #4]
 8007d40:	2204      	movs	r2, #4
 8007d42:	f102 0614 	add.w	r6, r2, #20
 8007d46:	429e      	cmp	r6, r3
 8007d48:	6841      	ldr	r1, [r0, #4]
 8007d4a:	d93d      	bls.n	8007dc8 <_dtoa_r+0x318>
 8007d4c:	4620      	mov	r0, r4
 8007d4e:	f000 fcbb 	bl	80086c8 <_Balloc>
 8007d52:	9001      	str	r0, [sp, #4]
 8007d54:	2800      	cmp	r0, #0
 8007d56:	d13b      	bne.n	8007dd0 <_dtoa_r+0x320>
 8007d58:	4b11      	ldr	r3, [pc, #68]	; (8007da0 <_dtoa_r+0x2f0>)
 8007d5a:	4602      	mov	r2, r0
 8007d5c:	f44f 71d5 	mov.w	r1, #426	; 0x1aa
 8007d60:	e6c0      	b.n	8007ae4 <_dtoa_r+0x34>
 8007d62:	2301      	movs	r3, #1
 8007d64:	e7df      	b.n	8007d26 <_dtoa_r+0x276>
 8007d66:	bf00      	nop
 8007d68:	636f4361 	.word	0x636f4361
 8007d6c:	3fd287a7 	.word	0x3fd287a7
 8007d70:	8b60c8b3 	.word	0x8b60c8b3
 8007d74:	3fc68a28 	.word	0x3fc68a28
 8007d78:	509f79fb 	.word	0x509f79fb
 8007d7c:	3fd34413 	.word	0x3fd34413
 8007d80:	0800aa38 	.word	0x0800aa38
 8007d84:	0800abf6 	.word	0x0800abf6
 8007d88:	7ff00000 	.word	0x7ff00000
 8007d8c:	0800abf2 	.word	0x0800abf2
 8007d90:	0800abe9 	.word	0x0800abe9
 8007d94:	0800aa15 	.word	0x0800aa15
 8007d98:	3ff80000 	.word	0x3ff80000
 8007d9c:	0800ace8 	.word	0x0800ace8
 8007da0:	0800ac51 	.word	0x0800ac51
 8007da4:	2501      	movs	r5, #1
 8007da6:	2300      	movs	r3, #0
 8007da8:	9306      	str	r3, [sp, #24]
 8007daa:	9508      	str	r5, [sp, #32]
 8007dac:	f04f 33ff 	mov.w	r3, #4294967295
 8007db0:	e9cd 3302 	strd	r3, r3, [sp, #8]
 8007db4:	2200      	movs	r2, #0
 8007db6:	2312      	movs	r3, #18
 8007db8:	e7b0      	b.n	8007d1c <_dtoa_r+0x26c>
 8007dba:	2301      	movs	r3, #1
 8007dbc:	9308      	str	r3, [sp, #32]
 8007dbe:	e7f5      	b.n	8007dac <_dtoa_r+0x2fc>
 8007dc0:	9b09      	ldr	r3, [sp, #36]	; 0x24
 8007dc2:	e9cd 3302 	strd	r3, r3, [sp, #8]
 8007dc6:	e7b8      	b.n	8007d3a <_dtoa_r+0x28a>
 8007dc8:	3101      	adds	r1, #1
 8007dca:	6041      	str	r1, [r0, #4]
 8007dcc:	0052      	lsls	r2, r2, #1
 8007dce:	e7b8      	b.n	8007d42 <_dtoa_r+0x292>
 8007dd0:	6a63      	ldr	r3, [r4, #36]	; 0x24
 8007dd2:	9a01      	ldr	r2, [sp, #4]
 8007dd4:	601a      	str	r2, [r3, #0]
 8007dd6:	9b03      	ldr	r3, [sp, #12]
 8007dd8:	2b0e      	cmp	r3, #14
 8007dda:	f200 809d 	bhi.w	8007f18 <_dtoa_r+0x468>
 8007dde:	2d00      	cmp	r5, #0
 8007de0:	f000 809a 	beq.w	8007f18 <_dtoa_r+0x468>
 8007de4:	9b00      	ldr	r3, [sp, #0]
 8007de6:	2b00      	cmp	r3, #0
 8007de8:	dd32      	ble.n	8007e50 <_dtoa_r+0x3a0>
 8007dea:	4ab7      	ldr	r2, [pc, #732]	; (80080c8 <_dtoa_r+0x618>)
 8007dec:	f003 030f 	and.w	r3, r3, #15
 8007df0:	eb02 03c3 	add.w	r3, r2, r3, lsl #3
 8007df4:	e9d3 8900 	ldrd	r8, r9, [r3]
 8007df8:	9b00      	ldr	r3, [sp, #0]
 8007dfa:	05d8      	lsls	r0, r3, #23
 8007dfc:	ea4f 1723 	mov.w	r7, r3, asr #4
 8007e00:	d516      	bpl.n	8007e30 <_dtoa_r+0x380>
 8007e02:	4bb2      	ldr	r3, [pc, #712]	; (80080cc <_dtoa_r+0x61c>)
 8007e04:	ec51 0b19 	vmov	r0, r1, d9
 8007e08:	e9d3 2308 	ldrd	r2, r3, [r3, #32]
 8007e0c:	f7f8 fd1e 	bl	800084c <__aeabi_ddiv>
 8007e10:	f007 070f 	and.w	r7, r7, #15
 8007e14:	4682      	mov	sl, r0
 8007e16:	468b      	mov	fp, r1
 8007e18:	2503      	movs	r5, #3
 8007e1a:	4eac      	ldr	r6, [pc, #688]	; (80080cc <_dtoa_r+0x61c>)
 8007e1c:	b957      	cbnz	r7, 8007e34 <_dtoa_r+0x384>
 8007e1e:	4642      	mov	r2, r8
 8007e20:	464b      	mov	r3, r9
 8007e22:	4650      	mov	r0, sl
 8007e24:	4659      	mov	r1, fp
 8007e26:	f7f8 fd11 	bl	800084c <__aeabi_ddiv>
 8007e2a:	4682      	mov	sl, r0
 8007e2c:	468b      	mov	fp, r1
 8007e2e:	e028      	b.n	8007e82 <_dtoa_r+0x3d2>
 8007e30:	2502      	movs	r5, #2
 8007e32:	e7f2      	b.n	8007e1a <_dtoa_r+0x36a>
 8007e34:	07f9      	lsls	r1, r7, #31
 8007e36:	d508      	bpl.n	8007e4a <_dtoa_r+0x39a>
 8007e38:	4640      	mov	r0, r8
 8007e3a:	4649      	mov	r1, r9
 8007e3c:	e9d6 2300 	ldrd	r2, r3, [r6]
 8007e40:	f7f8 fbda 	bl	80005f8 <__aeabi_dmul>
 8007e44:	3501      	adds	r5, #1
 8007e46:	4680      	mov	r8, r0
 8007e48:	4689      	mov	r9, r1
 8007e4a:	107f      	asrs	r7, r7, #1
 8007e4c:	3608      	adds	r6, #8
 8007e4e:	e7e5      	b.n	8007e1c <_dtoa_r+0x36c>
 8007e50:	f000 809b 	beq.w	8007f8a <_dtoa_r+0x4da>
 8007e54:	9b00      	ldr	r3, [sp, #0]
 8007e56:	4f9d      	ldr	r7, [pc, #628]	; (80080cc <_dtoa_r+0x61c>)
 8007e58:	425e      	negs	r6, r3
 8007e5a:	4b9b      	ldr	r3, [pc, #620]	; (80080c8 <_dtoa_r+0x618>)
 8007e5c:	f006 020f 	and.w	r2, r6, #15
 8007e60:	eb03 03c2 	add.w	r3, r3, r2, lsl #3
 8007e64:	e9d3 2300 	ldrd	r2, r3, [r3]
 8007e68:	ec51 0b19 	vmov	r0, r1, d9
 8007e6c:	f7f8 fbc4 	bl	80005f8 <__aeabi_dmul>
 8007e70:	1136      	asrs	r6, r6, #4
 8007e72:	4682      	mov	sl, r0
 8007e74:	468b      	mov	fp, r1
 8007e76:	2300      	movs	r3, #0
 8007e78:	2502      	movs	r5, #2
 8007e7a:	2e00      	cmp	r6, #0
 8007e7c:	d17a      	bne.n	8007f74 <_dtoa_r+0x4c4>
 8007e7e:	2b00      	cmp	r3, #0
 8007e80:	d1d3      	bne.n	8007e2a <_dtoa_r+0x37a>
 8007e82:	9b0b      	ldr	r3, [sp, #44]	; 0x2c
 8007e84:	2b00      	cmp	r3, #0
 8007e86:	f000 8082 	beq.w	8007f8e <_dtoa_r+0x4de>
 8007e8a:	4b91      	ldr	r3, [pc, #580]	; (80080d0 <_dtoa_r+0x620>)
 8007e8c:	2200      	movs	r2, #0
 8007e8e:	4650      	mov	r0, sl
 8007e90:	4659      	mov	r1, fp
 8007e92:	f7f8 fe23 	bl	8000adc <__aeabi_dcmplt>
 8007e96:	2800      	cmp	r0, #0
 8007e98:	d079      	beq.n	8007f8e <_dtoa_r+0x4de>
 8007e9a:	9b03      	ldr	r3, [sp, #12]
 8007e9c:	2b00      	cmp	r3, #0
 8007e9e:	d076      	beq.n	8007f8e <_dtoa_r+0x4de>
 8007ea0:	9b02      	ldr	r3, [sp, #8]
 8007ea2:	2b00      	cmp	r3, #0
 8007ea4:	dd36      	ble.n	8007f14 <_dtoa_r+0x464>
 8007ea6:	9b00      	ldr	r3, [sp, #0]
 8007ea8:	4650      	mov	r0, sl
 8007eaa:	4659      	mov	r1, fp
 8007eac:	1e5f      	subs	r7, r3, #1
 8007eae:	2200      	movs	r2, #0
 8007eb0:	4b88      	ldr	r3, [pc, #544]	; (80080d4 <_dtoa_r+0x624>)
 8007eb2:	f7f8 fba1 	bl	80005f8 <__aeabi_dmul>
 8007eb6:	9e02      	ldr	r6, [sp, #8]
 8007eb8:	4682      	mov	sl, r0
 8007eba:	468b      	mov	fp, r1
 8007ebc:	3501      	adds	r5, #1
 8007ebe:	4628      	mov	r0, r5
 8007ec0:	f7f8 fb30 	bl	8000524 <__aeabi_i2d>
 8007ec4:	4652      	mov	r2, sl
 8007ec6:	465b      	mov	r3, fp
 8007ec8:	f7f8 fb96 	bl	80005f8 <__aeabi_dmul>
 8007ecc:	4b82      	ldr	r3, [pc, #520]	; (80080d8 <_dtoa_r+0x628>)
 8007ece:	2200      	movs	r2, #0
 8007ed0:	f7f8 f9dc 	bl	800028c <__adddf3>
 8007ed4:	46d0      	mov	r8, sl
 8007ed6:	46d9      	mov	r9, fp
 8007ed8:	4682      	mov	sl, r0
 8007eda:	f1a1 7b50 	sub.w	fp, r1, #54525952	; 0x3400000
 8007ede:	2e00      	cmp	r6, #0
 8007ee0:	d158      	bne.n	8007f94 <_dtoa_r+0x4e4>
 8007ee2:	4b7e      	ldr	r3, [pc, #504]	; (80080dc <_dtoa_r+0x62c>)
 8007ee4:	2200      	movs	r2, #0
 8007ee6:	4640      	mov	r0, r8
 8007ee8:	4649      	mov	r1, r9
 8007eea:	f7f8 f9cd 	bl	8000288 <__aeabi_dsub>
 8007eee:	4652      	mov	r2, sl
 8007ef0:	465b      	mov	r3, fp
 8007ef2:	4680      	mov	r8, r0
 8007ef4:	4689      	mov	r9, r1
 8007ef6:	f7f8 fe0f 	bl	8000b18 <__aeabi_dcmpgt>
 8007efa:	2800      	cmp	r0, #0
 8007efc:	f040 8295 	bne.w	800842a <_dtoa_r+0x97a>
 8007f00:	4652      	mov	r2, sl
 8007f02:	f10b 4300 	add.w	r3, fp, #2147483648	; 0x80000000
 8007f06:	4640      	mov	r0, r8
 8007f08:	4649      	mov	r1, r9
 8007f0a:	f7f8 fde7 	bl	8000adc <__aeabi_dcmplt>
 8007f0e:	2800      	cmp	r0, #0
 8007f10:	f040 8289 	bne.w	8008426 <_dtoa_r+0x976>
 8007f14:	ec5b ab19 	vmov	sl, fp, d9
 8007f18:	9b11      	ldr	r3, [sp, #68]	; 0x44
 8007f1a:	2b00      	cmp	r3, #0
 8007f1c:	f2c0 8148 	blt.w	80081b0 <_dtoa_r+0x700>
 8007f20:	9a00      	ldr	r2, [sp, #0]
 8007f22:	2a0e      	cmp	r2, #14
 8007f24:	f300 8144 	bgt.w	80081b0 <_dtoa_r+0x700>
 8007f28:	4b67      	ldr	r3, [pc, #412]	; (80080c8 <_dtoa_r+0x618>)
 8007f2a:	eb03 03c2 	add.w	r3, r3, r2, lsl #3
 8007f2e:	e9d3 8900 	ldrd	r8, r9, [r3]
 8007f32:	9b09      	ldr	r3, [sp, #36]	; 0x24
 8007f34:	2b00      	cmp	r3, #0
 8007f36:	f280 80d5 	bge.w	80080e4 <_dtoa_r+0x634>
 8007f3a:	9b03      	ldr	r3, [sp, #12]
 8007f3c:	2b00      	cmp	r3, #0
 8007f3e:	f300 80d1 	bgt.w	80080e4 <_dtoa_r+0x634>
 8007f42:	f040 826f 	bne.w	8008424 <_dtoa_r+0x974>
 8007f46:	4b65      	ldr	r3, [pc, #404]	; (80080dc <_dtoa_r+0x62c>)
 8007f48:	2200      	movs	r2, #0
 8007f4a:	4640      	mov	r0, r8
 8007f4c:	4649      	mov	r1, r9
 8007f4e:	f7f8 fb53 	bl	80005f8 <__aeabi_dmul>
 8007f52:	4652      	mov	r2, sl
 8007f54:	465b      	mov	r3, fp
 8007f56:	f7f8 fdd5 	bl	8000b04 <__aeabi_dcmpge>
 8007f5a:	9e03      	ldr	r6, [sp, #12]
 8007f5c:	4637      	mov	r7, r6
 8007f5e:	2800      	cmp	r0, #0
 8007f60:	f040 8245 	bne.w	80083ee <_dtoa_r+0x93e>
 8007f64:	9d01      	ldr	r5, [sp, #4]
 8007f66:	2331      	movs	r3, #49	; 0x31
 8007f68:	f805 3b01 	strb.w	r3, [r5], #1
 8007f6c:	9b00      	ldr	r3, [sp, #0]
 8007f6e:	3301      	adds	r3, #1
 8007f70:	9300      	str	r3, [sp, #0]
 8007f72:	e240      	b.n	80083f6 <_dtoa_r+0x946>
 8007f74:	07f2      	lsls	r2, r6, #31
 8007f76:	d505      	bpl.n	8007f84 <_dtoa_r+0x4d4>
 8007f78:	e9d7 2300 	ldrd	r2, r3, [r7]
 8007f7c:	f7f8 fb3c 	bl	80005f8 <__aeabi_dmul>
 8007f80:	3501      	adds	r5, #1
 8007f82:	2301      	movs	r3, #1
 8007f84:	1076      	asrs	r6, r6, #1
 8007f86:	3708      	adds	r7, #8
 8007f88:	e777      	b.n	8007e7a <_dtoa_r+0x3ca>
 8007f8a:	2502      	movs	r5, #2
 8007f8c:	e779      	b.n	8007e82 <_dtoa_r+0x3d2>
 8007f8e:	9f00      	ldr	r7, [sp, #0]
 8007f90:	9e03      	ldr	r6, [sp, #12]
 8007f92:	e794      	b.n	8007ebe <_dtoa_r+0x40e>
 8007f94:	9901      	ldr	r1, [sp, #4]
 8007f96:	4b4c      	ldr	r3, [pc, #304]	; (80080c8 <_dtoa_r+0x618>)
 8007f98:	4431      	add	r1, r6
 8007f9a:	910d      	str	r1, [sp, #52]	; 0x34
 8007f9c:	9908      	ldr	r1, [sp, #32]
 8007f9e:	eb03 03c6 	add.w	r3, r3, r6, lsl #3
 8007fa2:	e953 2302 	ldrd	r2, r3, [r3, #-8]
 8007fa6:	2900      	cmp	r1, #0
 8007fa8:	d043      	beq.n	8008032 <_dtoa_r+0x582>
 8007faa:	494d      	ldr	r1, [pc, #308]	; (80080e0 <_dtoa_r+0x630>)
 8007fac:	2000      	movs	r0, #0
 8007fae:	f7f8 fc4d 	bl	800084c <__aeabi_ddiv>
 8007fb2:	4652      	mov	r2, sl
 8007fb4:	465b      	mov	r3, fp
 8007fb6:	f7f8 f967 	bl	8000288 <__aeabi_dsub>
 8007fba:	9d01      	ldr	r5, [sp, #4]
 8007fbc:	4682      	mov	sl, r0
 8007fbe:	468b      	mov	fp, r1
 8007fc0:	4649      	mov	r1, r9
 8007fc2:	4640      	mov	r0, r8
 8007fc4:	f7f8 fdc8 	bl	8000b58 <__aeabi_d2iz>
 8007fc8:	4606      	mov	r6, r0
 8007fca:	f7f8 faab 	bl	8000524 <__aeabi_i2d>
 8007fce:	4602      	mov	r2, r0
 8007fd0:	460b      	mov	r3, r1
 8007fd2:	4640      	mov	r0, r8
 8007fd4:	4649      	mov	r1, r9
 8007fd6:	f7f8 f957 	bl	8000288 <__aeabi_dsub>
 8007fda:	3630      	adds	r6, #48	; 0x30
 8007fdc:	f805 6b01 	strb.w	r6, [r5], #1
 8007fe0:	4652      	mov	r2, sl
 8007fe2:	465b      	mov	r3, fp
 8007fe4:	4680      	mov	r8, r0
 8007fe6:	4689      	mov	r9, r1
 8007fe8:	f7f8 fd78 	bl	8000adc <__aeabi_dcmplt>
 8007fec:	2800      	cmp	r0, #0
 8007fee:	d163      	bne.n	80080b8 <_dtoa_r+0x608>
 8007ff0:	4642      	mov	r2, r8
 8007ff2:	464b      	mov	r3, r9
 8007ff4:	4936      	ldr	r1, [pc, #216]	; (80080d0 <_dtoa_r+0x620>)
 8007ff6:	2000      	movs	r0, #0
 8007ff8:	f7f8 f946 	bl	8000288 <__aeabi_dsub>
 8007ffc:	4652      	mov	r2, sl
 8007ffe:	465b      	mov	r3, fp
 8008000:	f7f8 fd6c 	bl	8000adc <__aeabi_dcmplt>
 8008004:	2800      	cmp	r0, #0
 8008006:	f040 80b5 	bne.w	8008174 <_dtoa_r+0x6c4>
 800800a:	9b0d      	ldr	r3, [sp, #52]	; 0x34
 800800c:	429d      	cmp	r5, r3
 800800e:	d081      	beq.n	8007f14 <_dtoa_r+0x464>
 8008010:	4b30      	ldr	r3, [pc, #192]	; (80080d4 <_dtoa_r+0x624>)
 8008012:	2200      	movs	r2, #0
 8008014:	4650      	mov	r0, sl
 8008016:	4659      	mov	r1, fp
 8008018:	f7f8 faee 	bl	80005f8 <__aeabi_dmul>
 800801c:	4b2d      	ldr	r3, [pc, #180]	; (80080d4 <_dtoa_r+0x624>)
 800801e:	4682      	mov	sl, r0
 8008020:	468b      	mov	fp, r1
 8008022:	4640      	mov	r0, r8
 8008024:	4649      	mov	r1, r9
 8008026:	2200      	movs	r2, #0
 8008028:	f7f8 fae6 	bl	80005f8 <__aeabi_dmul>
 800802c:	4680      	mov	r8, r0
 800802e:	4689      	mov	r9, r1
 8008030:	e7c6      	b.n	8007fc0 <_dtoa_r+0x510>
 8008032:	4650      	mov	r0, sl
 8008034:	4659      	mov	r1, fp
 8008036:	f7f8 fadf 	bl	80005f8 <__aeabi_dmul>
 800803a:	9b0d      	ldr	r3, [sp, #52]	; 0x34
 800803c:	9d01      	ldr	r5, [sp, #4]
 800803e:	930f      	str	r3, [sp, #60]	; 0x3c
 8008040:	4682      	mov	sl, r0
 8008042:	468b      	mov	fp, r1
 8008044:	4649      	mov	r1, r9
 8008046:	4640      	mov	r0, r8
 8008048:	f7f8 fd86 	bl	8000b58 <__aeabi_d2iz>
 800804c:	4606      	mov	r6, r0
 800804e:	f7f8 fa69 	bl	8000524 <__aeabi_i2d>
 8008052:	3630      	adds	r6, #48	; 0x30
 8008054:	4602      	mov	r2, r0
 8008056:	460b      	mov	r3, r1
 8008058:	4640      	mov	r0, r8
 800805a:	4649      	mov	r1, r9
 800805c:	f7f8 f914 	bl	8000288 <__aeabi_dsub>
 8008060:	f805 6b01 	strb.w	r6, [r5], #1
 8008064:	9b0d      	ldr	r3, [sp, #52]	; 0x34
 8008066:	429d      	cmp	r5, r3
 8008068:	4680      	mov	r8, r0
 800806a:	4689      	mov	r9, r1
 800806c:	f04f 0200 	mov.w	r2, #0
 8008070:	d124      	bne.n	80080bc <_dtoa_r+0x60c>
 8008072:	4b1b      	ldr	r3, [pc, #108]	; (80080e0 <_dtoa_r+0x630>)
 8008074:	4650      	mov	r0, sl
 8008076:	4659      	mov	r1, fp
 8008078:	f7f8 f908 	bl	800028c <__adddf3>
 800807c:	4602      	mov	r2, r0
 800807e:	460b      	mov	r3, r1
 8008080:	4640      	mov	r0, r8
 8008082:	4649      	mov	r1, r9
 8008084:	f7f8 fd48 	bl	8000b18 <__aeabi_dcmpgt>
 8008088:	2800      	cmp	r0, #0
 800808a:	d173      	bne.n	8008174 <_dtoa_r+0x6c4>
 800808c:	4652      	mov	r2, sl
 800808e:	465b      	mov	r3, fp
 8008090:	4913      	ldr	r1, [pc, #76]	; (80080e0 <_dtoa_r+0x630>)
 8008092:	2000      	movs	r0, #0
 8008094:	f7f8 f8f8 	bl	8000288 <__aeabi_dsub>
 8008098:	4602      	mov	r2, r0
 800809a:	460b      	mov	r3, r1
 800809c:	4640      	mov	r0, r8
 800809e:	4649      	mov	r1, r9
 80080a0:	f7f8 fd1c 	bl	8000adc <__aeabi_dcmplt>
 80080a4:	2800      	cmp	r0, #0
 80080a6:	f43f af35 	beq.w	8007f14 <_dtoa_r+0x464>
 80080aa:	9d0f      	ldr	r5, [sp, #60]	; 0x3c
 80080ac:	1e6b      	subs	r3, r5, #1
 80080ae:	930f      	str	r3, [sp, #60]	; 0x3c
 80080b0:	f815 3c01 	ldrb.w	r3, [r5, #-1]
 80080b4:	2b30      	cmp	r3, #48	; 0x30
 80080b6:	d0f8      	beq.n	80080aa <_dtoa_r+0x5fa>
 80080b8:	9700      	str	r7, [sp, #0]
 80080ba:	e049      	b.n	8008150 <_dtoa_r+0x6a0>
 80080bc:	4b05      	ldr	r3, [pc, #20]	; (80080d4 <_dtoa_r+0x624>)
 80080be:	f7f8 fa9b 	bl	80005f8 <__aeabi_dmul>
 80080c2:	4680      	mov	r8, r0
 80080c4:	4689      	mov	r9, r1
 80080c6:	e7bd      	b.n	8008044 <_dtoa_r+0x594>
 80080c8:	0800ace8 	.word	0x0800ace8
 80080cc:	0800acc0 	.word	0x0800acc0
 80080d0:	3ff00000 	.word	0x3ff00000
 80080d4:	40240000 	.word	0x40240000
 80080d8:	401c0000 	.word	0x401c0000
 80080dc:	40140000 	.word	0x40140000
 80080e0:	3fe00000 	.word	0x3fe00000
 80080e4:	9d01      	ldr	r5, [sp, #4]
 80080e6:	4656      	mov	r6, sl
 80080e8:	465f      	mov	r7, fp
 80080ea:	4642      	mov	r2, r8
 80080ec:	464b      	mov	r3, r9
 80080ee:	4630      	mov	r0, r6
 80080f0:	4639      	mov	r1, r7
 80080f2:	f7f8 fbab 	bl	800084c <__aeabi_ddiv>
 80080f6:	f7f8 fd2f 	bl	8000b58 <__aeabi_d2iz>
 80080fa:	4682      	mov	sl, r0
 80080fc:	f7f8 fa12 	bl	8000524 <__aeabi_i2d>
 8008100:	4642      	mov	r2, r8
 8008102:	464b      	mov	r3, r9
 8008104:	f7f8 fa78 	bl	80005f8 <__aeabi_dmul>
 8008108:	4602      	mov	r2, r0
 800810a:	460b      	mov	r3, r1
 800810c:	4630      	mov	r0, r6
 800810e:	4639      	mov	r1, r7
 8008110:	f10a 0630 	add.w	r6, sl, #48	; 0x30
 8008114:	f7f8 f8b8 	bl	8000288 <__aeabi_dsub>
 8008118:	f805 6b01 	strb.w	r6, [r5], #1
 800811c:	9e01      	ldr	r6, [sp, #4]
 800811e:	9f03      	ldr	r7, [sp, #12]
 8008120:	1bae      	subs	r6, r5, r6
 8008122:	42b7      	cmp	r7, r6
 8008124:	4602      	mov	r2, r0
 8008126:	460b      	mov	r3, r1
 8008128:	d135      	bne.n	8008196 <_dtoa_r+0x6e6>
 800812a:	f7f8 f8af 	bl	800028c <__adddf3>
 800812e:	4642      	mov	r2, r8
 8008130:	464b      	mov	r3, r9
 8008132:	4606      	mov	r6, r0
 8008134:	460f      	mov	r7, r1
 8008136:	f7f8 fcef 	bl	8000b18 <__aeabi_dcmpgt>
 800813a:	b9d0      	cbnz	r0, 8008172 <_dtoa_r+0x6c2>
 800813c:	4642      	mov	r2, r8
 800813e:	464b      	mov	r3, r9
 8008140:	4630      	mov	r0, r6
 8008142:	4639      	mov	r1, r7
 8008144:	f7f8 fcc0 	bl	8000ac8 <__aeabi_dcmpeq>
 8008148:	b110      	cbz	r0, 8008150 <_dtoa_r+0x6a0>
 800814a:	f01a 0f01 	tst.w	sl, #1
 800814e:	d110      	bne.n	8008172 <_dtoa_r+0x6c2>
 8008150:	4620      	mov	r0, r4
 8008152:	ee18 1a10 	vmov	r1, s16
 8008156:	f000 faf7 	bl	8008748 <_Bfree>
 800815a:	2300      	movs	r3, #0
 800815c:	9800      	ldr	r0, [sp, #0]
 800815e:	702b      	strb	r3, [r5, #0]
 8008160:	9b0c      	ldr	r3, [sp, #48]	; 0x30
 8008162:	3001      	adds	r0, #1
 8008164:	6018      	str	r0, [r3, #0]
 8008166:	9b21      	ldr	r3, [sp, #132]	; 0x84
 8008168:	2b00      	cmp	r3, #0
 800816a:	f43f acf1 	beq.w	8007b50 <_dtoa_r+0xa0>
 800816e:	601d      	str	r5, [r3, #0]
 8008170:	e4ee      	b.n	8007b50 <_dtoa_r+0xa0>
 8008172:	9f00      	ldr	r7, [sp, #0]
 8008174:	462b      	mov	r3, r5
 8008176:	461d      	mov	r5, r3
 8008178:	f813 2d01 	ldrb.w	r2, [r3, #-1]!
 800817c:	2a39      	cmp	r2, #57	; 0x39
 800817e:	d106      	bne.n	800818e <_dtoa_r+0x6de>
 8008180:	9a01      	ldr	r2, [sp, #4]
 8008182:	429a      	cmp	r2, r3
 8008184:	d1f7      	bne.n	8008176 <_dtoa_r+0x6c6>
 8008186:	9901      	ldr	r1, [sp, #4]
 8008188:	2230      	movs	r2, #48	; 0x30
 800818a:	3701      	adds	r7, #1
 800818c:	700a      	strb	r2, [r1, #0]
 800818e:	781a      	ldrb	r2, [r3, #0]
 8008190:	3201      	adds	r2, #1
 8008192:	701a      	strb	r2, [r3, #0]
 8008194:	e790      	b.n	80080b8 <_dtoa_r+0x608>
 8008196:	4ba6      	ldr	r3, [pc, #664]	; (8008430 <_dtoa_r+0x980>)
 8008198:	2200      	movs	r2, #0
 800819a:	f7f8 fa2d 	bl	80005f8 <__aeabi_dmul>
 800819e:	2200      	movs	r2, #0
 80081a0:	2300      	movs	r3, #0
 80081a2:	4606      	mov	r6, r0
 80081a4:	460f      	mov	r7, r1
 80081a6:	f7f8 fc8f 	bl	8000ac8 <__aeabi_dcmpeq>
 80081aa:	2800      	cmp	r0, #0
 80081ac:	d09d      	beq.n	80080ea <_dtoa_r+0x63a>
 80081ae:	e7cf      	b.n	8008150 <_dtoa_r+0x6a0>
 80081b0:	9a08      	ldr	r2, [sp, #32]
 80081b2:	2a00      	cmp	r2, #0
 80081b4:	f000 80d7 	beq.w	8008366 <_dtoa_r+0x8b6>
 80081b8:	9a06      	ldr	r2, [sp, #24]
 80081ba:	2a01      	cmp	r2, #1
 80081bc:	f300 80ba 	bgt.w	8008334 <_dtoa_r+0x884>
 80081c0:	9a0e      	ldr	r2, [sp, #56]	; 0x38
 80081c2:	2a00      	cmp	r2, #0
 80081c4:	f000 80b2 	beq.w	800832c <_dtoa_r+0x87c>
 80081c8:	f203 4333 	addw	r3, r3, #1075	; 0x433
 80081cc:	9e07      	ldr	r6, [sp, #28]
 80081ce:	9d04      	ldr	r5, [sp, #16]
 80081d0:	9a04      	ldr	r2, [sp, #16]
 80081d2:	441a      	add	r2, r3
 80081d4:	9204      	str	r2, [sp, #16]
 80081d6:	9a05      	ldr	r2, [sp, #20]
 80081d8:	2101      	movs	r1, #1
 80081da:	441a      	add	r2, r3
 80081dc:	4620      	mov	r0, r4
 80081de:	9205      	str	r2, [sp, #20]
 80081e0:	f000 fb6a 	bl	80088b8 <__i2b>
 80081e4:	4607      	mov	r7, r0
 80081e6:	2d00      	cmp	r5, #0
 80081e8:	dd0c      	ble.n	8008204 <_dtoa_r+0x754>
 80081ea:	9b05      	ldr	r3, [sp, #20]
 80081ec:	2b00      	cmp	r3, #0
 80081ee:	dd09      	ble.n	8008204 <_dtoa_r+0x754>
 80081f0:	42ab      	cmp	r3, r5
 80081f2:	9a04      	ldr	r2, [sp, #16]
 80081f4:	bfa8      	it	ge
 80081f6:	462b      	movge	r3, r5
 80081f8:	1ad2      	subs	r2, r2, r3
 80081fa:	9204      	str	r2, [sp, #16]
 80081fc:	9a05      	ldr	r2, [sp, #20]
 80081fe:	1aed      	subs	r5, r5, r3
 8008200:	1ad3      	subs	r3, r2, r3
 8008202:	9305      	str	r3, [sp, #20]
 8008204:	9b07      	ldr	r3, [sp, #28]
 8008206:	b31b      	cbz	r3, 8008250 <_dtoa_r+0x7a0>
 8008208:	9b08      	ldr	r3, [sp, #32]
 800820a:	2b00      	cmp	r3, #0
 800820c:	f000 80af 	beq.w	800836e <_dtoa_r+0x8be>
 8008210:	2e00      	cmp	r6, #0
 8008212:	dd13      	ble.n	800823c <_dtoa_r+0x78c>
 8008214:	4639      	mov	r1, r7
 8008216:	4632      	mov	r2, r6
 8008218:	4620      	mov	r0, r4
 800821a:	f000 fc0d 	bl	8008a38 <__pow5mult>
 800821e:	ee18 2a10 	vmov	r2, s16
 8008222:	4601      	mov	r1, r0
 8008224:	4607      	mov	r7, r0
 8008226:	4620      	mov	r0, r4
 8008228:	f000 fb5c 	bl	80088e4 <__multiply>
 800822c:	ee18 1a10 	vmov	r1, s16
 8008230:	4680      	mov	r8, r0
 8008232:	4620      	mov	r0, r4
 8008234:	f000 fa88 	bl	8008748 <_Bfree>
 8008238:	ee08 8a10 	vmov	s16, r8
 800823c:	9b07      	ldr	r3, [sp, #28]
 800823e:	1b9a      	subs	r2, r3, r6
 8008240:	d006      	beq.n	8008250 <_dtoa_r+0x7a0>
 8008242:	ee18 1a10 	vmov	r1, s16
 8008246:	4620      	mov	r0, r4
 8008248:	f000 fbf6 	bl	8008a38 <__pow5mult>
 800824c:	ee08 0a10 	vmov	s16, r0
 8008250:	2101      	movs	r1, #1
 8008252:	4620      	mov	r0, r4
 8008254:	f000 fb30 	bl	80088b8 <__i2b>
 8008258:	9b0a      	ldr	r3, [sp, #40]	; 0x28
 800825a:	2b00      	cmp	r3, #0
 800825c:	4606      	mov	r6, r0
 800825e:	f340 8088 	ble.w	8008372 <_dtoa_r+0x8c2>
 8008262:	461a      	mov	r2, r3
 8008264:	4601      	mov	r1, r0
 8008266:	4620      	mov	r0, r4
 8008268:	f000 fbe6 	bl	8008a38 <__pow5mult>
 800826c:	9b06      	ldr	r3, [sp, #24]
 800826e:	2b01      	cmp	r3, #1
 8008270:	4606      	mov	r6, r0
 8008272:	f340 8081 	ble.w	8008378 <_dtoa_r+0x8c8>
 8008276:	f04f 0800 	mov.w	r8, #0
 800827a:	6933      	ldr	r3, [r6, #16]
 800827c:	eb06 0383 	add.w	r3, r6, r3, lsl #2
 8008280:	6918      	ldr	r0, [r3, #16]
 8008282:	f000 fac9 	bl	8008818 <__hi0bits>
 8008286:	f1c0 0020 	rsb	r0, r0, #32
 800828a:	9b05      	ldr	r3, [sp, #20]
 800828c:	4418      	add	r0, r3
 800828e:	f010 001f 	ands.w	r0, r0, #31
 8008292:	f000 8092 	beq.w	80083ba <_dtoa_r+0x90a>
 8008296:	f1c0 0320 	rsb	r3, r0, #32
 800829a:	2b04      	cmp	r3, #4
 800829c:	f340 808a 	ble.w	80083b4 <_dtoa_r+0x904>
 80082a0:	f1c0 001c 	rsb	r0, r0, #28
 80082a4:	9b04      	ldr	r3, [sp, #16]
 80082a6:	4403      	add	r3, r0
 80082a8:	9304      	str	r3, [sp, #16]
 80082aa:	9b05      	ldr	r3, [sp, #20]
 80082ac:	4403      	add	r3, r0
 80082ae:	4405      	add	r5, r0
 80082b0:	9305      	str	r3, [sp, #20]
 80082b2:	9b04      	ldr	r3, [sp, #16]
 80082b4:	2b00      	cmp	r3, #0
 80082b6:	dd07      	ble.n	80082c8 <_dtoa_r+0x818>
 80082b8:	ee18 1a10 	vmov	r1, s16
 80082bc:	461a      	mov	r2, r3
 80082be:	4620      	mov	r0, r4
 80082c0:	f000 fc14 	bl	8008aec <__lshift>
 80082c4:	ee08 0a10 	vmov	s16, r0
 80082c8:	9b05      	ldr	r3, [sp, #20]
 80082ca:	2b00      	cmp	r3, #0
 80082cc:	dd05      	ble.n	80082da <_dtoa_r+0x82a>
 80082ce:	4631      	mov	r1, r6
 80082d0:	461a      	mov	r2, r3
 80082d2:	4620      	mov	r0, r4
 80082d4:	f000 fc0a 	bl	8008aec <__lshift>
 80082d8:	4606      	mov	r6, r0
 80082da:	9b0b      	ldr	r3, [sp, #44]	; 0x2c
 80082dc:	2b00      	cmp	r3, #0
 80082de:	d06e      	beq.n	80083be <_dtoa_r+0x90e>
 80082e0:	ee18 0a10 	vmov	r0, s16
 80082e4:	4631      	mov	r1, r6
 80082e6:	f000 fc71 	bl	8008bcc <__mcmp>
 80082ea:	2800      	cmp	r0, #0
 80082ec:	da67      	bge.n	80083be <_dtoa_r+0x90e>
 80082ee:	9b00      	ldr	r3, [sp, #0]
 80082f0:	3b01      	subs	r3, #1
 80082f2:	ee18 1a10 	vmov	r1, s16
 80082f6:	9300      	str	r3, [sp, #0]
 80082f8:	220a      	movs	r2, #10
 80082fa:	2300      	movs	r3, #0
 80082fc:	4620      	mov	r0, r4
 80082fe:	f000 fa45 	bl	800878c <__multadd>
 8008302:	9b08      	ldr	r3, [sp, #32]
 8008304:	ee08 0a10 	vmov	s16, r0
 8008308:	2b00      	cmp	r3, #0
 800830a:	f000 81b1 	beq.w	8008670 <_dtoa_r+0xbc0>
 800830e:	2300      	movs	r3, #0
 8008310:	4639      	mov	r1, r7
 8008312:	220a      	movs	r2, #10
 8008314:	4620      	mov	r0, r4
 8008316:	f000 fa39 	bl	800878c <__multadd>
 800831a:	9b02      	ldr	r3, [sp, #8]
 800831c:	2b00      	cmp	r3, #0
 800831e:	4607      	mov	r7, r0
 8008320:	f300 808e 	bgt.w	8008440 <_dtoa_r+0x990>
 8008324:	9b06      	ldr	r3, [sp, #24]
 8008326:	2b02      	cmp	r3, #2
 8008328:	dc51      	bgt.n	80083ce <_dtoa_r+0x91e>
 800832a:	e089      	b.n	8008440 <_dtoa_r+0x990>
 800832c:	9b10      	ldr	r3, [sp, #64]	; 0x40
 800832e:	f1c3 0336 	rsb	r3, r3, #54	; 0x36
 8008332:	e74b      	b.n	80081cc <_dtoa_r+0x71c>
 8008334:	9b03      	ldr	r3, [sp, #12]
 8008336:	1e5e      	subs	r6, r3, #1
 8008338:	9b07      	ldr	r3, [sp, #28]
 800833a:	42b3      	cmp	r3, r6
 800833c:	bfbf      	itttt	lt
 800833e:	9b07      	ldrlt	r3, [sp, #28]
 8008340:	9607      	strlt	r6, [sp, #28]
 8008342:	1af2      	sublt	r2, r6, r3
 8008344:	9b0a      	ldrlt	r3, [sp, #40]	; 0x28
 8008346:	bfb6      	itet	lt
 8008348:	189b      	addlt	r3, r3, r2
 800834a:	1b9e      	subge	r6, r3, r6
 800834c:	930a      	strlt	r3, [sp, #40]	; 0x28
 800834e:	9b03      	ldr	r3, [sp, #12]
 8008350:	bfb8      	it	lt
 8008352:	2600      	movlt	r6, #0
 8008354:	2b00      	cmp	r3, #0
 8008356:	bfb7      	itett	lt
 8008358:	e9dd 2303 	ldrdlt	r2, r3, [sp, #12]
 800835c:	e9dd 3503 	ldrdge	r3, r5, [sp, #12]
 8008360:	1a9d      	sublt	r5, r3, r2
 8008362:	2300      	movlt	r3, #0
 8008364:	e734      	b.n	80081d0 <_dtoa_r+0x720>
 8008366:	9e07      	ldr	r6, [sp, #28]
 8008368:	9d04      	ldr	r5, [sp, #16]
 800836a:	9f08      	ldr	r7, [sp, #32]
 800836c:	e73b      	b.n	80081e6 <_dtoa_r+0x736>
 800836e:	9a07      	ldr	r2, [sp, #28]
 8008370:	e767      	b.n	8008242 <_dtoa_r+0x792>
 8008372:	9b06      	ldr	r3, [sp, #24]
 8008374:	2b01      	cmp	r3, #1
 8008376:	dc18      	bgt.n	80083aa <_dtoa_r+0x8fa>
 8008378:	f1ba 0f00 	cmp.w	sl, #0
 800837c:	d115      	bne.n	80083aa <_dtoa_r+0x8fa>
 800837e:	f3cb 0313 	ubfx	r3, fp, #0, #20
 8008382:	b993      	cbnz	r3, 80083aa <_dtoa_r+0x8fa>
 8008384:	f02b 4300 	bic.w	r3, fp, #2147483648	; 0x80000000
 8008388:	0d1b      	lsrs	r3, r3, #20
 800838a:	051b      	lsls	r3, r3, #20
 800838c:	b183      	cbz	r3, 80083b0 <_dtoa_r+0x900>
 800838e:	9b04      	ldr	r3, [sp, #16]
 8008390:	3301      	adds	r3, #1
 8008392:	9304      	str	r3, [sp, #16]
 8008394:	9b05      	ldr	r3, [sp, #20]
 8008396:	3301      	adds	r3, #1
 8008398:	9305      	str	r3, [sp, #20]
 800839a:	f04f 0801 	mov.w	r8, #1
 800839e:	9b0a      	ldr	r3, [sp, #40]	; 0x28
 80083a0:	2b00      	cmp	r3, #0
 80083a2:	f47f af6a 	bne.w	800827a <_dtoa_r+0x7ca>
 80083a6:	2001      	movs	r0, #1
 80083a8:	e76f      	b.n	800828a <_dtoa_r+0x7da>
 80083aa:	f04f 0800 	mov.w	r8, #0
 80083ae:	e7f6      	b.n	800839e <_dtoa_r+0x8ee>
 80083b0:	4698      	mov	r8, r3
 80083b2:	e7f4      	b.n	800839e <_dtoa_r+0x8ee>
 80083b4:	f43f af7d 	beq.w	80082b2 <_dtoa_r+0x802>
 80083b8:	4618      	mov	r0, r3
 80083ba:	301c      	adds	r0, #28
 80083bc:	e772      	b.n	80082a4 <_dtoa_r+0x7f4>
 80083be:	9b03      	ldr	r3, [sp, #12]
 80083c0:	2b00      	cmp	r3, #0
 80083c2:	dc37      	bgt.n	8008434 <_dtoa_r+0x984>
 80083c4:	9b06      	ldr	r3, [sp, #24]
 80083c6:	2b02      	cmp	r3, #2
 80083c8:	dd34      	ble.n	8008434 <_dtoa_r+0x984>
 80083ca:	9b03      	ldr	r3, [sp, #12]
 80083cc:	9302      	str	r3, [sp, #8]
 80083ce:	9b02      	ldr	r3, [sp, #8]
 80083d0:	b96b      	cbnz	r3, 80083ee <_dtoa_r+0x93e>
 80083d2:	4631      	mov	r1, r6
 80083d4:	2205      	movs	r2, #5
 80083d6:	4620      	mov	r0, r4
 80083d8:	f000 f9d8 	bl	800878c <__multadd>
 80083dc:	4601      	mov	r1, r0
 80083de:	4606      	mov	r6, r0
 80083e0:	ee18 0a10 	vmov	r0, s16
 80083e4:	f000 fbf2 	bl	8008bcc <__mcmp>
 80083e8:	2800      	cmp	r0, #0
 80083ea:	f73f adbb 	bgt.w	8007f64 <_dtoa_r+0x4b4>
 80083ee:	9b09      	ldr	r3, [sp, #36]	; 0x24
 80083f0:	9d01      	ldr	r5, [sp, #4]
 80083f2:	43db      	mvns	r3, r3
 80083f4:	9300      	str	r3, [sp, #0]
 80083f6:	f04f 0800 	mov.w	r8, #0
 80083fa:	4631      	mov	r1, r6
 80083fc:	4620      	mov	r0, r4
 80083fe:	f000 f9a3 	bl	8008748 <_Bfree>
 8008402:	2f00      	cmp	r7, #0
 8008404:	f43f aea4 	beq.w	8008150 <_dtoa_r+0x6a0>
 8008408:	f1b8 0f00 	cmp.w	r8, #0
 800840c:	d005      	beq.n	800841a <_dtoa_r+0x96a>
 800840e:	45b8      	cmp	r8, r7
 8008410:	d003      	beq.n	800841a <_dtoa_r+0x96a>
 8008412:	4641      	mov	r1, r8
 8008414:	4620      	mov	r0, r4
 8008416:	f000 f997 	bl	8008748 <_Bfree>
 800841a:	4639      	mov	r1, r7
 800841c:	4620      	mov	r0, r4
 800841e:	f000 f993 	bl	8008748 <_Bfree>
 8008422:	e695      	b.n	8008150 <_dtoa_r+0x6a0>
 8008424:	2600      	movs	r6, #0
 8008426:	4637      	mov	r7, r6
 8008428:	e7e1      	b.n	80083ee <_dtoa_r+0x93e>
 800842a:	9700      	str	r7, [sp, #0]
 800842c:	4637      	mov	r7, r6
 800842e:	e599      	b.n	8007f64 <_dtoa_r+0x4b4>
 8008430:	40240000 	.word	0x40240000
 8008434:	9b08      	ldr	r3, [sp, #32]
 8008436:	2b00      	cmp	r3, #0
 8008438:	f000 80ca 	beq.w	80085d0 <_dtoa_r+0xb20>
 800843c:	9b03      	ldr	r3, [sp, #12]
 800843e:	9302      	str	r3, [sp, #8]
 8008440:	2d00      	cmp	r5, #0
 8008442:	dd05      	ble.n	8008450 <_dtoa_r+0x9a0>
 8008444:	4639      	mov	r1, r7
 8008446:	462a      	mov	r2, r5
 8008448:	4620      	mov	r0, r4
 800844a:	f000 fb4f 	bl	8008aec <__lshift>
 800844e:	4607      	mov	r7, r0
 8008450:	f1b8 0f00 	cmp.w	r8, #0
 8008454:	d05b      	beq.n	800850e <_dtoa_r+0xa5e>
 8008456:	6879      	ldr	r1, [r7, #4]
 8008458:	4620      	mov	r0, r4
 800845a:	f000 f935 	bl	80086c8 <_Balloc>
 800845e:	4605      	mov	r5, r0
 8008460:	b928      	cbnz	r0, 800846e <_dtoa_r+0x9be>
 8008462:	4b87      	ldr	r3, [pc, #540]	; (8008680 <_dtoa_r+0xbd0>)
 8008464:	4602      	mov	r2, r0
 8008466:	f240 21ea 	movw	r1, #746	; 0x2ea
 800846a:	f7ff bb3b 	b.w	8007ae4 <_dtoa_r+0x34>
 800846e:	693a      	ldr	r2, [r7, #16]
 8008470:	3202      	adds	r2, #2
 8008472:	0092      	lsls	r2, r2, #2
 8008474:	f107 010c 	add.w	r1, r7, #12
 8008478:	300c      	adds	r0, #12
 800847a:	f7fe fcdf 	bl	8006e3c <memcpy>
 800847e:	2201      	movs	r2, #1
 8008480:	4629      	mov	r1, r5
 8008482:	4620      	mov	r0, r4
 8008484:	f000 fb32 	bl	8008aec <__lshift>
 8008488:	9b01      	ldr	r3, [sp, #4]
 800848a:	f103 0901 	add.w	r9, r3, #1
 800848e:	e9dd 2301 	ldrd	r2, r3, [sp, #4]
 8008492:	4413      	add	r3, r2
 8008494:	9305      	str	r3, [sp, #20]
 8008496:	f00a 0301 	and.w	r3, sl, #1
 800849a:	46b8      	mov	r8, r7
 800849c:	9304      	str	r3, [sp, #16]
 800849e:	4607      	mov	r7, r0
 80084a0:	4631      	mov	r1, r6
 80084a2:	ee18 0a10 	vmov	r0, s16
 80084a6:	f7ff fa77 	bl	8007998 <quorem>
 80084aa:	4641      	mov	r1, r8
 80084ac:	9002      	str	r0, [sp, #8]
 80084ae:	f100 0a30 	add.w	sl, r0, #48	; 0x30
 80084b2:	ee18 0a10 	vmov	r0, s16
 80084b6:	f000 fb89 	bl	8008bcc <__mcmp>
 80084ba:	463a      	mov	r2, r7
 80084bc:	9003      	str	r0, [sp, #12]
 80084be:	4631      	mov	r1, r6
 80084c0:	4620      	mov	r0, r4
 80084c2:	f000 fb9f 	bl	8008c04 <__mdiff>
 80084c6:	68c2      	ldr	r2, [r0, #12]
 80084c8:	f109 3bff 	add.w	fp, r9, #4294967295
 80084cc:	4605      	mov	r5, r0
 80084ce:	bb02      	cbnz	r2, 8008512 <_dtoa_r+0xa62>
 80084d0:	4601      	mov	r1, r0
 80084d2:	ee18 0a10 	vmov	r0, s16
 80084d6:	f000 fb79 	bl	8008bcc <__mcmp>
 80084da:	4602      	mov	r2, r0
 80084dc:	4629      	mov	r1, r5
 80084de:	4620      	mov	r0, r4
 80084e0:	9207      	str	r2, [sp, #28]
 80084e2:	f000 f931 	bl	8008748 <_Bfree>
 80084e6:	e9dd 3206 	ldrd	r3, r2, [sp, #24]
 80084ea:	ea43 0102 	orr.w	r1, r3, r2
 80084ee:	9b04      	ldr	r3, [sp, #16]
 80084f0:	430b      	orrs	r3, r1
 80084f2:	464d      	mov	r5, r9
 80084f4:	d10f      	bne.n	8008516 <_dtoa_r+0xa66>
 80084f6:	f1ba 0f39 	cmp.w	sl, #57	; 0x39
 80084fa:	d02a      	beq.n	8008552 <_dtoa_r+0xaa2>
 80084fc:	9b03      	ldr	r3, [sp, #12]
 80084fe:	2b00      	cmp	r3, #0
 8008500:	dd02      	ble.n	8008508 <_dtoa_r+0xa58>
 8008502:	9b02      	ldr	r3, [sp, #8]
 8008504:	f103 0a31 	add.w	sl, r3, #49	; 0x31
 8008508:	f88b a000 	strb.w	sl, [fp]
 800850c:	e775      	b.n	80083fa <_dtoa_r+0x94a>
 800850e:	4638      	mov	r0, r7
 8008510:	e7ba      	b.n	8008488 <_dtoa_r+0x9d8>
 8008512:	2201      	movs	r2, #1
 8008514:	e7e2      	b.n	80084dc <_dtoa_r+0xa2c>
 8008516:	9b03      	ldr	r3, [sp, #12]
 8008518:	2b00      	cmp	r3, #0
 800851a:	db04      	blt.n	8008526 <_dtoa_r+0xa76>
 800851c:	9906      	ldr	r1, [sp, #24]
 800851e:	430b      	orrs	r3, r1
 8008520:	9904      	ldr	r1, [sp, #16]
 8008522:	430b      	orrs	r3, r1
 8008524:	d122      	bne.n	800856c <_dtoa_r+0xabc>
 8008526:	2a00      	cmp	r2, #0
 8008528:	ddee      	ble.n	8008508 <_dtoa_r+0xa58>
 800852a:	ee18 1a10 	vmov	r1, s16
 800852e:	2201      	movs	r2, #1
 8008530:	4620      	mov	r0, r4
 8008532:	f000 fadb 	bl	8008aec <__lshift>
 8008536:	4631      	mov	r1, r6
 8008538:	ee08 0a10 	vmov	s16, r0
 800853c:	f000 fb46 	bl	8008bcc <__mcmp>
 8008540:	2800      	cmp	r0, #0
 8008542:	dc03      	bgt.n	800854c <_dtoa_r+0xa9c>
 8008544:	d1e0      	bne.n	8008508 <_dtoa_r+0xa58>
 8008546:	f01a 0f01 	tst.w	sl, #1
 800854a:	d0dd      	beq.n	8008508 <_dtoa_r+0xa58>
 800854c:	f1ba 0f39 	cmp.w	sl, #57	; 0x39
 8008550:	d1d7      	bne.n	8008502 <_dtoa_r+0xa52>
 8008552:	2339      	movs	r3, #57	; 0x39
 8008554:	f88b 3000 	strb.w	r3, [fp]
 8008558:	462b      	mov	r3, r5
 800855a:	461d      	mov	r5, r3
 800855c:	3b01      	subs	r3, #1
 800855e:	f815 2c01 	ldrb.w	r2, [r5, #-1]
 8008562:	2a39      	cmp	r2, #57	; 0x39
 8008564:	d071      	beq.n	800864a <_dtoa_r+0xb9a>
 8008566:	3201      	adds	r2, #1
 8008568:	701a      	strb	r2, [r3, #0]
 800856a:	e746      	b.n	80083fa <_dtoa_r+0x94a>
 800856c:	2a00      	cmp	r2, #0
 800856e:	dd07      	ble.n	8008580 <_dtoa_r+0xad0>
 8008570:	f1ba 0f39 	cmp.w	sl, #57	; 0x39
 8008574:	d0ed      	beq.n	8008552 <_dtoa_r+0xaa2>
 8008576:	f10a 0301 	add.w	r3, sl, #1
 800857a:	f88b 3000 	strb.w	r3, [fp]
 800857e:	e73c      	b.n	80083fa <_dtoa_r+0x94a>
 8008580:	9b05      	ldr	r3, [sp, #20]
 8008582:	f809 ac01 	strb.w	sl, [r9, #-1]
 8008586:	4599      	cmp	r9, r3
 8008588:	d047      	beq.n	800861a <_dtoa_r+0xb6a>
 800858a:	ee18 1a10 	vmov	r1, s16
 800858e:	2300      	movs	r3, #0
 8008590:	220a      	movs	r2, #10
 8008592:	4620      	mov	r0, r4
 8008594:	f000 f8fa 	bl	800878c <__multadd>
 8008598:	45b8      	cmp	r8, r7
 800859a:	ee08 0a10 	vmov	s16, r0
 800859e:	f04f 0300 	mov.w	r3, #0
 80085a2:	f04f 020a 	mov.w	r2, #10
 80085a6:	4641      	mov	r1, r8
 80085a8:	4620      	mov	r0, r4
 80085aa:	d106      	bne.n	80085ba <_dtoa_r+0xb0a>
 80085ac:	f000 f8ee 	bl	800878c <__multadd>
 80085b0:	4680      	mov	r8, r0
 80085b2:	4607      	mov	r7, r0
 80085b4:	f109 0901 	add.w	r9, r9, #1
 80085b8:	e772      	b.n	80084a0 <_dtoa_r+0x9f0>
 80085ba:	f000 f8e7 	bl	800878c <__multadd>
 80085be:	4639      	mov	r1, r7
 80085c0:	4680      	mov	r8, r0
 80085c2:	2300      	movs	r3, #0
 80085c4:	220a      	movs	r2, #10
 80085c6:	4620      	mov	r0, r4
 80085c8:	f000 f8e0 	bl	800878c <__multadd>
 80085cc:	4607      	mov	r7, r0
 80085ce:	e7f1      	b.n	80085b4 <_dtoa_r+0xb04>
 80085d0:	9b03      	ldr	r3, [sp, #12]
 80085d2:	9302      	str	r3, [sp, #8]
 80085d4:	9d01      	ldr	r5, [sp, #4]
 80085d6:	ee18 0a10 	vmov	r0, s16
 80085da:	4631      	mov	r1, r6
 80085dc:	f7ff f9dc 	bl	8007998 <quorem>
 80085e0:	f100 0a30 	add.w	sl, r0, #48	; 0x30
 80085e4:	9b01      	ldr	r3, [sp, #4]
 80085e6:	f805 ab01 	strb.w	sl, [r5], #1
 80085ea:	1aea      	subs	r2, r5, r3
 80085ec:	9b02      	ldr	r3, [sp, #8]
 80085ee:	4293      	cmp	r3, r2
 80085f0:	dd09      	ble.n	8008606 <_dtoa_r+0xb56>
 80085f2:	ee18 1a10 	vmov	r1, s16
 80085f6:	2300      	movs	r3, #0
 80085f8:	220a      	movs	r2, #10
 80085fa:	4620      	mov	r0, r4
 80085fc:	f000 f8c6 	bl	800878c <__multadd>
 8008600:	ee08 0a10 	vmov	s16, r0
 8008604:	e7e7      	b.n	80085d6 <_dtoa_r+0xb26>
 8008606:	9b02      	ldr	r3, [sp, #8]
 8008608:	2b00      	cmp	r3, #0
 800860a:	bfc8      	it	gt
 800860c:	461d      	movgt	r5, r3
 800860e:	9b01      	ldr	r3, [sp, #4]
 8008610:	bfd8      	it	le
 8008612:	2501      	movle	r5, #1
 8008614:	441d      	add	r5, r3
 8008616:	f04f 0800 	mov.w	r8, #0
 800861a:	ee18 1a10 	vmov	r1, s16
 800861e:	2201      	movs	r2, #1
 8008620:	4620      	mov	r0, r4
 8008622:	f000 fa63 	bl	8008aec <__lshift>
 8008626:	4631      	mov	r1, r6
 8008628:	ee08 0a10 	vmov	s16, r0
 800862c:	f000 face 	bl	8008bcc <__mcmp>
 8008630:	2800      	cmp	r0, #0
 8008632:	dc91      	bgt.n	8008558 <_dtoa_r+0xaa8>
 8008634:	d102      	bne.n	800863c <_dtoa_r+0xb8c>
 8008636:	f01a 0f01 	tst.w	sl, #1
 800863a:	d18d      	bne.n	8008558 <_dtoa_r+0xaa8>
 800863c:	462b      	mov	r3, r5
 800863e:	461d      	mov	r5, r3
 8008640:	f813 2d01 	ldrb.w	r2, [r3, #-1]!
 8008644:	2a30      	cmp	r2, #48	; 0x30
 8008646:	d0fa      	beq.n	800863e <_dtoa_r+0xb8e>
 8008648:	e6d7      	b.n	80083fa <_dtoa_r+0x94a>
 800864a:	9a01      	ldr	r2, [sp, #4]
 800864c:	429a      	cmp	r2, r3
 800864e:	d184      	bne.n	800855a <_dtoa_r+0xaaa>
 8008650:	9b00      	ldr	r3, [sp, #0]
 8008652:	3301      	adds	r3, #1
 8008654:	9300      	str	r3, [sp, #0]
 8008656:	2331      	movs	r3, #49	; 0x31
 8008658:	7013      	strb	r3, [r2, #0]
 800865a:	e6ce      	b.n	80083fa <_dtoa_r+0x94a>
 800865c:	4b09      	ldr	r3, [pc, #36]	; (8008684 <_dtoa_r+0xbd4>)
 800865e:	f7ff ba95 	b.w	8007b8c <_dtoa_r+0xdc>
 8008662:	9b21      	ldr	r3, [sp, #132]	; 0x84
 8008664:	2b00      	cmp	r3, #0
 8008666:	f47f aa6e 	bne.w	8007b46 <_dtoa_r+0x96>
 800866a:	4b07      	ldr	r3, [pc, #28]	; (8008688 <_dtoa_r+0xbd8>)
 800866c:	f7ff ba8e 	b.w	8007b8c <_dtoa_r+0xdc>
 8008670:	9b02      	ldr	r3, [sp, #8]
 8008672:	2b00      	cmp	r3, #0
 8008674:	dcae      	bgt.n	80085d4 <_dtoa_r+0xb24>
 8008676:	9b06      	ldr	r3, [sp, #24]
 8008678:	2b02      	cmp	r3, #2
 800867a:	f73f aea8 	bgt.w	80083ce <_dtoa_r+0x91e>
 800867e:	e7a9      	b.n	80085d4 <_dtoa_r+0xb24>
 8008680:	0800ac51 	.word	0x0800ac51
 8008684:	0800aa14 	.word	0x0800aa14
 8008688:	0800abe9 	.word	0x0800abe9

0800868c <fiprintf>:
 800868c:	b40e      	push	{r1, r2, r3}
 800868e:	b503      	push	{r0, r1, lr}
 8008690:	4601      	mov	r1, r0
 8008692:	ab03      	add	r3, sp, #12
 8008694:	4805      	ldr	r0, [pc, #20]	; (80086ac <fiprintf+0x20>)
 8008696:	f853 2b04 	ldr.w	r2, [r3], #4
 800869a:	6800      	ldr	r0, [r0, #0]
 800869c:	9301      	str	r3, [sp, #4]
 800869e:	f000 fe13 	bl	80092c8 <_vfiprintf_r>
 80086a2:	b002      	add	sp, #8
 80086a4:	f85d eb04 	ldr.w	lr, [sp], #4
 80086a8:	b003      	add	sp, #12
 80086aa:	4770      	bx	lr
 80086ac:	2000003c 	.word	0x2000003c

080086b0 <_localeconv_r>:
 80086b0:	4800      	ldr	r0, [pc, #0]	; (80086b4 <_localeconv_r+0x4>)
 80086b2:	4770      	bx	lr
 80086b4:	20000190 	.word	0x20000190

080086b8 <malloc>:
 80086b8:	4b02      	ldr	r3, [pc, #8]	; (80086c4 <malloc+0xc>)
 80086ba:	4601      	mov	r1, r0
 80086bc:	6818      	ldr	r0, [r3, #0]
 80086be:	f000 bc09 	b.w	8008ed4 <_malloc_r>
 80086c2:	bf00      	nop
 80086c4:	2000003c 	.word	0x2000003c

080086c8 <_Balloc>:
 80086c8:	b570      	push	{r4, r5, r6, lr}
 80086ca:	6a46      	ldr	r6, [r0, #36]	; 0x24
 80086cc:	4604      	mov	r4, r0
 80086ce:	460d      	mov	r5, r1
 80086d0:	b976      	cbnz	r6, 80086f0 <_Balloc+0x28>
 80086d2:	2010      	movs	r0, #16
 80086d4:	f7ff fff0 	bl	80086b8 <malloc>
 80086d8:	4602      	mov	r2, r0
 80086da:	6260      	str	r0, [r4, #36]	; 0x24
 80086dc:	b920      	cbnz	r0, 80086e8 <_Balloc+0x20>
 80086de:	4b18      	ldr	r3, [pc, #96]	; (8008740 <_Balloc+0x78>)
 80086e0:	4818      	ldr	r0, [pc, #96]	; (8008744 <_Balloc+0x7c>)
 80086e2:	2166      	movs	r1, #102	; 0x66
 80086e4:	f7ff f93a 	bl	800795c <__assert_func>
 80086e8:	e9c0 6601 	strd	r6, r6, [r0, #4]
 80086ec:	6006      	str	r6, [r0, #0]
 80086ee:	60c6      	str	r6, [r0, #12]
 80086f0:	6a66      	ldr	r6, [r4, #36]	; 0x24
 80086f2:	68f3      	ldr	r3, [r6, #12]
 80086f4:	b183      	cbz	r3, 8008718 <_Balloc+0x50>
 80086f6:	6a63      	ldr	r3, [r4, #36]	; 0x24
 80086f8:	68db      	ldr	r3, [r3, #12]
 80086fa:	f853 0025 	ldr.w	r0, [r3, r5, lsl #2]
 80086fe:	b9b8      	cbnz	r0, 8008730 <_Balloc+0x68>
 8008700:	2101      	movs	r1, #1
 8008702:	fa01 f605 	lsl.w	r6, r1, r5
 8008706:	1d72      	adds	r2, r6, #5
 8008708:	0092      	lsls	r2, r2, #2
 800870a:	4620      	mov	r0, r4
 800870c:	f000 fb60 	bl	8008dd0 <_calloc_r>
 8008710:	b160      	cbz	r0, 800872c <_Balloc+0x64>
 8008712:	e9c0 5601 	strd	r5, r6, [r0, #4]
 8008716:	e00e      	b.n	8008736 <_Balloc+0x6e>
 8008718:	2221      	movs	r2, #33	; 0x21
 800871a:	2104      	movs	r1, #4
 800871c:	4620      	mov	r0, r4
 800871e:	f000 fb57 	bl	8008dd0 <_calloc_r>
 8008722:	6a63      	ldr	r3, [r4, #36]	; 0x24
 8008724:	60f0      	str	r0, [r6, #12]
 8008726:	68db      	ldr	r3, [r3, #12]
 8008728:	2b00      	cmp	r3, #0
 800872a:	d1e4      	bne.n	80086f6 <_Balloc+0x2e>
 800872c:	2000      	movs	r0, #0
 800872e:	bd70      	pop	{r4, r5, r6, pc}
 8008730:	6802      	ldr	r2, [r0, #0]
 8008732:	f843 2025 	str.w	r2, [r3, r5, lsl #2]
 8008736:	2300      	movs	r3, #0
 8008738:	e9c0 3303 	strd	r3, r3, [r0, #12]
 800873c:	e7f7      	b.n	800872e <_Balloc+0x66>
 800873e:	bf00      	nop
 8008740:	0800aa38 	.word	0x0800aa38
 8008744:	0800ac62 	.word	0x0800ac62

08008748 <_Bfree>:
 8008748:	b570      	push	{r4, r5, r6, lr}
 800874a:	6a46      	ldr	r6, [r0, #36]	; 0x24
 800874c:	4605      	mov	r5, r0
 800874e:	460c      	mov	r4, r1
 8008750:	b976      	cbnz	r6, 8008770 <_Bfree+0x28>
 8008752:	2010      	movs	r0, #16
 8008754:	f7ff ffb0 	bl	80086b8 <malloc>
 8008758:	4602      	mov	r2, r0
 800875a:	6268      	str	r0, [r5, #36]	; 0x24
 800875c:	b920      	cbnz	r0, 8008768 <_Bfree+0x20>
 800875e:	4b09      	ldr	r3, [pc, #36]	; (8008784 <_Bfree+0x3c>)
 8008760:	4809      	ldr	r0, [pc, #36]	; (8008788 <_Bfree+0x40>)
 8008762:	218a      	movs	r1, #138	; 0x8a
 8008764:	f7ff f8fa 	bl	800795c <__assert_func>
 8008768:	e9c0 6601 	strd	r6, r6, [r0, #4]
 800876c:	6006      	str	r6, [r0, #0]
 800876e:	60c6      	str	r6, [r0, #12]
 8008770:	b13c      	cbz	r4, 8008782 <_Bfree+0x3a>
 8008772:	6a6b      	ldr	r3, [r5, #36]	; 0x24
 8008774:	6862      	ldr	r2, [r4, #4]
 8008776:	68db      	ldr	r3, [r3, #12]
 8008778:	f853 1022 	ldr.w	r1, [r3, r2, lsl #2]
 800877c:	6021      	str	r1, [r4, #0]
 800877e:	f843 4022 	str.w	r4, [r3, r2, lsl #2]
 8008782:	bd70      	pop	{r4, r5, r6, pc}
 8008784:	0800aa38 	.word	0x0800aa38
 8008788:	0800ac62 	.word	0x0800ac62

0800878c <__multadd>:
 800878c:	e92d 41f0 	stmdb	sp!, {r4, r5, r6, r7, r8, lr}
 8008790:	690d      	ldr	r5, [r1, #16]
 8008792:	4607      	mov	r7, r0
 8008794:	460c      	mov	r4, r1
 8008796:	461e      	mov	r6, r3
 8008798:	f101 0c14 	add.w	ip, r1, #20
 800879c:	2000      	movs	r0, #0
 800879e:	f8dc 3000 	ldr.w	r3, [ip]
 80087a2:	b299      	uxth	r1, r3
 80087a4:	fb02 6101 	mla	r1, r2, r1, r6
 80087a8:	0c1e      	lsrs	r6, r3, #16
 80087aa:	0c0b      	lsrs	r3, r1, #16
 80087ac:	fb02 3306 	mla	r3, r2, r6, r3
 80087b0:	b289      	uxth	r1, r1
 80087b2:	3001      	adds	r0, #1
 80087b4:	eb01 4103 	add.w	r1, r1, r3, lsl #16
 80087b8:	4285      	cmp	r5, r0
 80087ba:	f84c 1b04 	str.w	r1, [ip], #4
 80087be:	ea4f 4613 	mov.w	r6, r3, lsr #16
 80087c2:	dcec      	bgt.n	800879e <__multadd+0x12>
 80087c4:	b30e      	cbz	r6, 800880a <__multadd+0x7e>
 80087c6:	68a3      	ldr	r3, [r4, #8]
 80087c8:	42ab      	cmp	r3, r5
 80087ca:	dc19      	bgt.n	8008800 <__multadd+0x74>
 80087cc:	6861      	ldr	r1, [r4, #4]
 80087ce:	4638      	mov	r0, r7
 80087d0:	3101      	adds	r1, #1
 80087d2:	f7ff ff79 	bl	80086c8 <_Balloc>
 80087d6:	4680      	mov	r8, r0
 80087d8:	b928      	cbnz	r0, 80087e6 <__multadd+0x5a>
 80087da:	4602      	mov	r2, r0
 80087dc:	4b0c      	ldr	r3, [pc, #48]	; (8008810 <__multadd+0x84>)
 80087de:	480d      	ldr	r0, [pc, #52]	; (8008814 <__multadd+0x88>)
 80087e0:	21b5      	movs	r1, #181	; 0xb5
 80087e2:	f7ff f8bb 	bl	800795c <__assert_func>
 80087e6:	6922      	ldr	r2, [r4, #16]
 80087e8:	3202      	adds	r2, #2
 80087ea:	f104 010c 	add.w	r1, r4, #12
 80087ee:	0092      	lsls	r2, r2, #2
 80087f0:	300c      	adds	r0, #12
 80087f2:	f7fe fb23 	bl	8006e3c <memcpy>
 80087f6:	4621      	mov	r1, r4
 80087f8:	4638      	mov	r0, r7
 80087fa:	f7ff ffa5 	bl	8008748 <_Bfree>
 80087fe:	4644      	mov	r4, r8
 8008800:	eb04 0385 	add.w	r3, r4, r5, lsl #2
 8008804:	3501      	adds	r5, #1
 8008806:	615e      	str	r6, [r3, #20]
 8008808:	6125      	str	r5, [r4, #16]
 800880a:	4620      	mov	r0, r4
 800880c:	e8bd 81f0 	ldmia.w	sp!, {r4, r5, r6, r7, r8, pc}
 8008810:	0800ac51 	.word	0x0800ac51
 8008814:	0800ac62 	.word	0x0800ac62

08008818 <__hi0bits>:
 8008818:	0c03      	lsrs	r3, r0, #16
 800881a:	041b      	lsls	r3, r3, #16
 800881c:	b9d3      	cbnz	r3, 8008854 <__hi0bits+0x3c>
 800881e:	0400      	lsls	r0, r0, #16
 8008820:	2310      	movs	r3, #16
 8008822:	f010 4f7f 	tst.w	r0, #4278190080	; 0xff000000
 8008826:	bf04      	itt	eq
 8008828:	0200      	lsleq	r0, r0, #8
 800882a:	3308      	addeq	r3, #8
 800882c:	f010 4f70 	tst.w	r0, #4026531840	; 0xf0000000
 8008830:	bf04      	itt	eq
 8008832:	0100      	lsleq	r0, r0, #4
 8008834:	3304      	addeq	r3, #4
 8008836:	f010 4f40 	tst.w	r0, #3221225472	; 0xc0000000
 800883a:	bf04      	itt	eq
 800883c:	0080      	lsleq	r0, r0, #2
 800883e:	3302      	addeq	r3, #2
 8008840:	2800      	cmp	r0, #0
 8008842:	db05      	blt.n	8008850 <__hi0bits+0x38>
 8008844:	f010 4f80 	tst.w	r0, #1073741824	; 0x40000000
 8008848:	f103 0301 	add.w	r3, r3, #1
 800884c:	bf08      	it	eq
 800884e:	2320      	moveq	r3, #32
 8008850:	4618      	mov	r0, r3
 8008852:	4770      	bx	lr
 8008854:	2300      	movs	r3, #0
 8008856:	e7e4      	b.n	8008822 <__hi0bits+0xa>

08008858 <__lo0bits>:
 8008858:	6803      	ldr	r3, [r0, #0]
 800885a:	f013 0207 	ands.w	r2, r3, #7
 800885e:	4601      	mov	r1, r0
 8008860:	d00b      	beq.n	800887a <__lo0bits+0x22>
 8008862:	07da      	lsls	r2, r3, #31
 8008864:	d423      	bmi.n	80088ae <__lo0bits+0x56>
 8008866:	0798      	lsls	r0, r3, #30
 8008868:	bf49      	itett	mi
 800886a:	085b      	lsrmi	r3, r3, #1
 800886c:	089b      	lsrpl	r3, r3, #2
 800886e:	2001      	movmi	r0, #1
 8008870:	600b      	strmi	r3, [r1, #0]
 8008872:	bf5c      	itt	pl
 8008874:	600b      	strpl	r3, [r1, #0]
 8008876:	2002      	movpl	r0, #2
 8008878:	4770      	bx	lr
 800887a:	b298      	uxth	r0, r3
 800887c:	b9a8      	cbnz	r0, 80088aa <__lo0bits+0x52>
 800887e:	0c1b      	lsrs	r3, r3, #16
 8008880:	2010      	movs	r0, #16
 8008882:	b2da      	uxtb	r2, r3
 8008884:	b90a      	cbnz	r2, 800888a <__lo0bits+0x32>
 8008886:	3008      	adds	r0, #8
 8008888:	0a1b      	lsrs	r3, r3, #8
 800888a:	071a      	lsls	r2, r3, #28
 800888c:	bf04      	itt	eq
 800888e:	091b      	lsreq	r3, r3, #4
 8008890:	3004      	addeq	r0, #4
 8008892:	079a      	lsls	r2, r3, #30
 8008894:	bf04      	itt	eq
 8008896:	089b      	lsreq	r3, r3, #2
 8008898:	3002      	addeq	r0, #2
 800889a:	07da      	lsls	r2, r3, #31
 800889c:	d403      	bmi.n	80088a6 <__lo0bits+0x4e>
 800889e:	085b      	lsrs	r3, r3, #1
 80088a0:	f100 0001 	add.w	r0, r0, #1
 80088a4:	d005      	beq.n	80088b2 <__lo0bits+0x5a>
 80088a6:	600b      	str	r3, [r1, #0]
 80088a8:	4770      	bx	lr
 80088aa:	4610      	mov	r0, r2
 80088ac:	e7e9      	b.n	8008882 <__lo0bits+0x2a>
 80088ae:	2000      	movs	r0, #0
 80088b0:	4770      	bx	lr
 80088b2:	2020      	movs	r0, #32
 80088b4:	4770      	bx	lr
	...

080088b8 <__i2b>:
 80088b8:	b510      	push	{r4, lr}
 80088ba:	460c      	mov	r4, r1
 80088bc:	2101      	movs	r1, #1
 80088be:	f7ff ff03 	bl	80086c8 <_Balloc>
 80088c2:	4602      	mov	r2, r0
 80088c4:	b928      	cbnz	r0, 80088d2 <__i2b+0x1a>
 80088c6:	4b05      	ldr	r3, [pc, #20]	; (80088dc <__i2b+0x24>)
 80088c8:	4805      	ldr	r0, [pc, #20]	; (80088e0 <__i2b+0x28>)
 80088ca:	f44f 71a0 	mov.w	r1, #320	; 0x140
 80088ce:	f7ff f845 	bl	800795c <__assert_func>
 80088d2:	2301      	movs	r3, #1
 80088d4:	6144      	str	r4, [r0, #20]
 80088d6:	6103      	str	r3, [r0, #16]
 80088d8:	bd10      	pop	{r4, pc}
 80088da:	bf00      	nop
 80088dc:	0800ac51 	.word	0x0800ac51
 80088e0:	0800ac62 	.word	0x0800ac62

080088e4 <__multiply>:
 80088e4:	e92d 4ff0 	stmdb	sp!, {r4, r5, r6, r7, r8, r9, sl, fp, lr}
 80088e8:	4691      	mov	r9, r2
 80088ea:	690a      	ldr	r2, [r1, #16]
 80088ec:	f8d9 3010 	ldr.w	r3, [r9, #16]
 80088f0:	429a      	cmp	r2, r3
 80088f2:	bfb8      	it	lt
 80088f4:	460b      	movlt	r3, r1
 80088f6:	460c      	mov	r4, r1
 80088f8:	bfbc      	itt	lt
 80088fa:	464c      	movlt	r4, r9
 80088fc:	4699      	movlt	r9, r3
 80088fe:	6927      	ldr	r7, [r4, #16]
 8008900:	f8d9 a010 	ldr.w	sl, [r9, #16]
 8008904:	68a3      	ldr	r3, [r4, #8]
 8008906:	6861      	ldr	r1, [r4, #4]
 8008908:	eb07 060a 	add.w	r6, r7, sl
 800890c:	42b3      	cmp	r3, r6
 800890e:	b085      	sub	sp, #20
 8008910:	bfb8      	it	lt
 8008912:	3101      	addlt	r1, #1
 8008914:	f7ff fed8 	bl	80086c8 <_Balloc>
 8008918:	b930      	cbnz	r0, 8008928 <__multiply+0x44>
 800891a:	4602      	mov	r2, r0
 800891c:	4b44      	ldr	r3, [pc, #272]	; (8008a30 <__multiply+0x14c>)
 800891e:	4845      	ldr	r0, [pc, #276]	; (8008a34 <__multiply+0x150>)
 8008920:	f240 115d 	movw	r1, #349	; 0x15d
 8008924:	f7ff f81a 	bl	800795c <__assert_func>
 8008928:	f100 0514 	add.w	r5, r0, #20
 800892c:	eb05 0886 	add.w	r8, r5, r6, lsl #2
 8008930:	462b      	mov	r3, r5
 8008932:	2200      	movs	r2, #0
 8008934:	4543      	cmp	r3, r8
 8008936:	d321      	bcc.n	800897c <__multiply+0x98>
 8008938:	f104 0314 	add.w	r3, r4, #20
 800893c:	eb03 0787 	add.w	r7, r3, r7, lsl #2
 8008940:	f109 0314 	add.w	r3, r9, #20
 8008944:	eb03 028a 	add.w	r2, r3, sl, lsl #2
 8008948:	9202      	str	r2, [sp, #8]
 800894a:	1b3a      	subs	r2, r7, r4
 800894c:	3a15      	subs	r2, #21
 800894e:	f022 0203 	bic.w	r2, r2, #3
 8008952:	3204      	adds	r2, #4
 8008954:	f104 0115 	add.w	r1, r4, #21
 8008958:	428f      	cmp	r7, r1
 800895a:	bf38      	it	cc
 800895c:	2204      	movcc	r2, #4
 800895e:	9201      	str	r2, [sp, #4]
 8008960:	9a02      	ldr	r2, [sp, #8]
 8008962:	9303      	str	r3, [sp, #12]
 8008964:	429a      	cmp	r2, r3
 8008966:	d80c      	bhi.n	8008982 <__multiply+0x9e>
 8008968:	2e00      	cmp	r6, #0
 800896a:	dd03      	ble.n	8008974 <__multiply+0x90>
 800896c:	f858 3d04 	ldr.w	r3, [r8, #-4]!
 8008970:	2b00      	cmp	r3, #0
 8008972:	d05a      	beq.n	8008a2a <__multiply+0x146>
 8008974:	6106      	str	r6, [r0, #16]
 8008976:	b005      	add	sp, #20
 8008978:	e8bd 8ff0 	ldmia.w	sp!, {r4, r5, r6, r7, r8, r9, sl, fp, pc}
 800897c:	f843 2b04 	str.w	r2, [r3], #4
 8008980:	e7d8      	b.n	8008934 <__multiply+0x50>
 8008982:	f8b3 a000 	ldrh.w	sl, [r3]
 8008986:	f1ba 0f00 	cmp.w	sl, #0
 800898a:	d024      	beq.n	80089d6 <__multiply+0xf2>
 800898c:	f104 0e14 	add.w	lr, r4, #20
 8008990:	46a9      	mov	r9, r5
 8008992:	f04f 0c00 	mov.w	ip, #0
 8008996:	f85e 2b04 	ldr.w	r2, [lr], #4
 800899a:	f8d9 1000 	ldr.w	r1, [r9]
 800899e:	fa1f fb82 	uxth.w	fp, r2
 80089a2:	b289      	uxth	r1, r1
 80089a4:	fb0a 110b 	mla	r1, sl, fp, r1
 80089a8:	ea4f 4b12 	mov.w	fp, r2, lsr #16
 80089ac:	f8d9 2000 	ldr.w	r2, [r9]
 80089b0:	4461      	add	r1, ip
 80089b2:	ea4f 4c12 	mov.w	ip, r2, lsr #16
 80089b6:	fb0a c20b 	mla	r2, sl, fp, ip
 80089ba:	eb02 4211 	add.w	r2, r2, r1, lsr #16
 80089be:	b289      	uxth	r1, r1
 80089c0:	ea41 4102 	orr.w	r1, r1, r2, lsl #16
 80089c4:	4577      	cmp	r7, lr
 80089c6:	f849 1b04 	str.w	r1, [r9], #4
 80089ca:	ea4f 4c12 	mov.w	ip, r2, lsr #16
 80089ce:	d8e2      	bhi.n	8008996 <__multiply+0xb2>
 80089d0:	9a01      	ldr	r2, [sp, #4]
 80089d2:	f845 c002 	str.w	ip, [r5, r2]
 80089d6:	9a03      	ldr	r2, [sp, #12]
 80089d8:	f8b2 9002 	ldrh.w	r9, [r2, #2]
 80089dc:	3304      	adds	r3, #4
 80089de:	f1b9 0f00 	cmp.w	r9, #0
 80089e2:	d020      	beq.n	8008a26 <__multiply+0x142>
 80089e4:	6829      	ldr	r1, [r5, #0]
 80089e6:	f104 0c14 	add.w	ip, r4, #20
 80089ea:	46ae      	mov	lr, r5
 80089ec:	f04f 0a00 	mov.w	sl, #0
 80089f0:	f8bc b000 	ldrh.w	fp, [ip]
 80089f4:	f8be 2002 	ldrh.w	r2, [lr, #2]
 80089f8:	fb09 220b 	mla	r2, r9, fp, r2
 80089fc:	4492      	add	sl, r2
 80089fe:	b289      	uxth	r1, r1
 8008a00:	ea41 410a 	orr.w	r1, r1, sl, lsl #16
 8008a04:	f84e 1b04 	str.w	r1, [lr], #4
 8008a08:	f85c 2b04 	ldr.w	r2, [ip], #4
 8008a0c:	f8be 1000 	ldrh.w	r1, [lr]
 8008a10:	0c12      	lsrs	r2, r2, #16
 8008a12:	fb09 1102 	mla	r1, r9, r2, r1
 8008a16:	eb01 411a 	add.w	r1, r1, sl, lsr #16
 8008a1a:	4567      	cmp	r7, ip
 8008a1c:	ea4f 4a11 	mov.w	sl, r1, lsr #16
 8008a20:	d8e6      	bhi.n	80089f0 <__multiply+0x10c>
 8008a22:	9a01      	ldr	r2, [sp, #4]
 8008a24:	50a9      	str	r1, [r5, r2]
 8008a26:	3504      	adds	r5, #4
 8008a28:	e79a      	b.n	8008960 <__multiply+0x7c>
 8008a2a:	3e01      	subs	r6, #1
 8008a2c:	e79c      	b.n	8008968 <__multiply+0x84>
 8008a2e:	bf00      	nop
 8008a30:	0800ac51 	.word	0x0800ac51
 8008a34:	0800ac62 	.word	0x0800ac62

08008a38 <__pow5mult>:
 8008a38:	e92d 43f8 	stmdb	sp!, {r3, r4, r5, r6, r7, r8, r9, lr}
 8008a3c:	4615      	mov	r5, r2
 8008a3e:	f012 0203 	ands.w	r2, r2, #3
 8008a42:	4606      	mov	r6, r0
 8008a44:	460f      	mov	r7, r1
 8008a46:	d007      	beq.n	8008a58 <__pow5mult+0x20>
 8008a48:	4c25      	ldr	r4, [pc, #148]	; (8008ae0 <__pow5mult+0xa8>)
 8008a4a:	3a01      	subs	r2, #1
 8008a4c:	2300      	movs	r3, #0
 8008a4e:	f854 2022 	ldr.w	r2, [r4, r2, lsl #2]
 8008a52:	f7ff fe9b 	bl	800878c <__multadd>
 8008a56:	4607      	mov	r7, r0
 8008a58:	10ad      	asrs	r5, r5, #2
 8008a5a:	d03d      	beq.n	8008ad8 <__pow5mult+0xa0>
 8008a5c:	6a74      	ldr	r4, [r6, #36]	; 0x24
 8008a5e:	b97c      	cbnz	r4, 8008a80 <__pow5mult+0x48>
 8008a60:	2010      	movs	r0, #16
 8008a62:	f7ff fe29 	bl	80086b8 <malloc>
 8008a66:	4602      	mov	r2, r0
 8008a68:	6270      	str	r0, [r6, #36]	; 0x24
 8008a6a:	b928      	cbnz	r0, 8008a78 <__pow5mult+0x40>
 8008a6c:	4b1d      	ldr	r3, [pc, #116]	; (8008ae4 <__pow5mult+0xac>)
 8008a6e:	481e      	ldr	r0, [pc, #120]	; (8008ae8 <__pow5mult+0xb0>)
 8008a70:	f44f 71d7 	mov.w	r1, #430	; 0x1ae
 8008a74:	f7fe ff72 	bl	800795c <__assert_func>
 8008a78:	e9c0 4401 	strd	r4, r4, [r0, #4]
 8008a7c:	6004      	str	r4, [r0, #0]
 8008a7e:	60c4      	str	r4, [r0, #12]
 8008a80:	f8d6 8024 	ldr.w	r8, [r6, #36]	; 0x24
 8008a84:	f8d8 4008 	ldr.w	r4, [r8, #8]
 8008a88:	b94c      	cbnz	r4, 8008a9e <__pow5mult+0x66>
 8008a8a:	f240 2171 	movw	r1, #625	; 0x271
 8008a8e:	4630      	mov	r0, r6
 8008a90:	f7ff ff12 	bl	80088b8 <__i2b>
 8008a94:	2300      	movs	r3, #0
 8008a96:	f8c8 0008 	str.w	r0, [r8, #8]
 8008a9a:	4604      	mov	r4, r0
 8008a9c:	6003      	str	r3, [r0, #0]
 8008a9e:	f04f 0900 	mov.w	r9, #0
 8008aa2:	07eb      	lsls	r3, r5, #31
 8008aa4:	d50a      	bpl.n	8008abc <__pow5mult+0x84>
 8008aa6:	4639      	mov	r1, r7
 8008aa8:	4622      	mov	r2, r4
 8008aaa:	4630      	mov	r0, r6
 8008aac:	f7ff ff1a 	bl	80088e4 <__multiply>
 8008ab0:	4639      	mov	r1, r7
 8008ab2:	4680      	mov	r8, r0
 8008ab4:	4630      	mov	r0, r6
 8008ab6:	f7ff fe47 	bl	8008748 <_Bfree>
 8008aba:	4647      	mov	r7, r8
 8008abc:	106d      	asrs	r5, r5, #1
 8008abe:	d00b      	beq.n	8008ad8 <__pow5mult+0xa0>
 8008ac0:	6820      	ldr	r0, [r4, #0]
 8008ac2:	b938      	cbnz	r0, 8008ad4 <__pow5mult+0x9c>
 8008ac4:	4622      	mov	r2, r4
 8008ac6:	4621      	mov	r1, r4
 8008ac8:	4630      	mov	r0, r6
 8008aca:	f7ff ff0b 	bl	80088e4 <__multiply>
 8008ace:	6020      	str	r0, [r4, #0]
 8008ad0:	f8c0 9000 	str.w	r9, [r0]
 8008ad4:	4604      	mov	r4, r0
 8008ad6:	e7e4      	b.n	8008aa2 <__pow5mult+0x6a>
 8008ad8:	4638      	mov	r0, r7
 8008ada:	e8bd 83f8 	ldmia.w	sp!, {r3, r4, r5, r6, r7, r8, r9, pc}
 8008ade:	bf00      	nop
 8008ae0:	0800adb0 	.word	0x0800adb0
 8008ae4:	0800aa38 	.word	0x0800aa38
 8008ae8:	0800ac62 	.word	0x0800ac62

08008aec <__lshift>:
 8008aec:	e92d 47f0 	stmdb	sp!, {r4, r5, r6, r7, r8, r9, sl, lr}
 8008af0:	460c      	mov	r4, r1
 8008af2:	6849      	ldr	r1, [r1, #4]
 8008af4:	6923      	ldr	r3, [r4, #16]
 8008af6:	eb03 1862 	add.w	r8, r3, r2, asr #5
 8008afa:	68a3      	ldr	r3, [r4, #8]
 8008afc:	4607      	mov	r7, r0
 8008afe:	4691      	mov	r9, r2
 8008b00:	ea4f 1a62 	mov.w	sl, r2, asr #5
 8008b04:	f108 0601 	add.w	r6, r8, #1
 8008b08:	42b3      	cmp	r3, r6
 8008b0a:	db0b      	blt.n	8008b24 <__lshift+0x38>
 8008b0c:	4638      	mov	r0, r7
 8008b0e:	f7ff fddb 	bl	80086c8 <_Balloc>
 8008b12:	4605      	mov	r5, r0
 8008b14:	b948      	cbnz	r0, 8008b2a <__lshift+0x3e>
 8008b16:	4602      	mov	r2, r0
 8008b18:	4b2a      	ldr	r3, [pc, #168]	; (8008bc4 <__lshift+0xd8>)
 8008b1a:	482b      	ldr	r0, [pc, #172]	; (8008bc8 <__lshift+0xdc>)
 8008b1c:	f240 11d9 	movw	r1, #473	; 0x1d9
 8008b20:	f7fe ff1c 	bl	800795c <__assert_func>
 8008b24:	3101      	adds	r1, #1
 8008b26:	005b      	lsls	r3, r3, #1
 8008b28:	e7ee      	b.n	8008b08 <__lshift+0x1c>
 8008b2a:	2300      	movs	r3, #0
 8008b2c:	f100 0114 	add.w	r1, r0, #20
 8008b30:	f100 0210 	add.w	r2, r0, #16
 8008b34:	4618      	mov	r0, r3
 8008b36:	4553      	cmp	r3, sl
 8008b38:	db37      	blt.n	8008baa <__lshift+0xbe>
 8008b3a:	6920      	ldr	r0, [r4, #16]
 8008b3c:	ea2a 7aea 	bic.w	sl, sl, sl, asr #31
 8008b40:	f104 0314 	add.w	r3, r4, #20
 8008b44:	f019 091f 	ands.w	r9, r9, #31
 8008b48:	eb01 018a 	add.w	r1, r1, sl, lsl #2
 8008b4c:	eb03 0080 	add.w	r0, r3, r0, lsl #2
 8008b50:	d02f      	beq.n	8008bb2 <__lshift+0xc6>
 8008b52:	f1c9 0e20 	rsb	lr, r9, #32
 8008b56:	468a      	mov	sl, r1
 8008b58:	f04f 0c00 	mov.w	ip, #0
 8008b5c:	681a      	ldr	r2, [r3, #0]
 8008b5e:	fa02 f209 	lsl.w	r2, r2, r9
 8008b62:	ea42 020c 	orr.w	r2, r2, ip
 8008b66:	f84a 2b04 	str.w	r2, [sl], #4
 8008b6a:	f853 2b04 	ldr.w	r2, [r3], #4
 8008b6e:	4298      	cmp	r0, r3
 8008b70:	fa22 fc0e 	lsr.w	ip, r2, lr
 8008b74:	d8f2      	bhi.n	8008b5c <__lshift+0x70>
 8008b76:	1b03      	subs	r3, r0, r4
 8008b78:	3b15      	subs	r3, #21
 8008b7a:	f023 0303 	bic.w	r3, r3, #3
 8008b7e:	3304      	adds	r3, #4
 8008b80:	f104 0215 	add.w	r2, r4, #21
 8008b84:	4290      	cmp	r0, r2
 8008b86:	bf38      	it	cc
 8008b88:	2304      	movcc	r3, #4
 8008b8a:	f841 c003 	str.w	ip, [r1, r3]
 8008b8e:	f1bc 0f00 	cmp.w	ip, #0
 8008b92:	d001      	beq.n	8008b98 <__lshift+0xac>
 8008b94:	f108 0602 	add.w	r6, r8, #2
 8008b98:	3e01      	subs	r6, #1
 8008b9a:	4638      	mov	r0, r7
 8008b9c:	612e      	str	r6, [r5, #16]
 8008b9e:	4621      	mov	r1, r4
 8008ba0:	f7ff fdd2 	bl	8008748 <_Bfree>
 8008ba4:	4628      	mov	r0, r5
 8008ba6:	e8bd 87f0 	ldmia.w	sp!, {r4, r5, r6, r7, r8, r9, sl, pc}
 8008baa:	f842 0f04 	str.w	r0, [r2, #4]!
 8008bae:	3301      	adds	r3, #1
 8008bb0:	e7c1      	b.n	8008b36 <__lshift+0x4a>
 8008bb2:	3904      	subs	r1, #4
 8008bb4:	f853 2b04 	ldr.w	r2, [r3], #4
 8008bb8:	f841 2f04 	str.w	r2, [r1, #4]!
 8008bbc:	4298      	cmp	r0, r3
 8008bbe:	d8f9      	bhi.n	8008bb4 <__lshift+0xc8>
 8008bc0:	e7ea      	b.n	8008b98 <__lshift+0xac>
 8008bc2:	bf00      	nop
 8008bc4:	0800ac51 	.word	0x0800ac51
 8008bc8:	0800ac62 	.word	0x0800ac62

08008bcc <__mcmp>:
 8008bcc:	b530      	push	{r4, r5, lr}
 8008bce:	6902      	ldr	r2, [r0, #16]
 8008bd0:	690c      	ldr	r4, [r1, #16]
 8008bd2:	1b12      	subs	r2, r2, r4
 8008bd4:	d10e      	bne.n	8008bf4 <__mcmp+0x28>
 8008bd6:	f100 0314 	add.w	r3, r0, #20
 8008bda:	3114      	adds	r1, #20
 8008bdc:	eb03 0084 	add.w	r0, r3, r4, lsl #2
 8008be0:	eb01 0184 	add.w	r1, r1, r4, lsl #2
 8008be4:	f850 5d04 	ldr.w	r5, [r0, #-4]!
 8008be8:	f851 4d04 	ldr.w	r4, [r1, #-4]!
 8008bec:	42a5      	cmp	r5, r4
 8008bee:	d003      	beq.n	8008bf8 <__mcmp+0x2c>
 8008bf0:	d305      	bcc.n	8008bfe <__mcmp+0x32>
 8008bf2:	2201      	movs	r2, #1
 8008bf4:	4610      	mov	r0, r2
 8008bf6:	bd30      	pop	{r4, r5, pc}
 8008bf8:	4283      	cmp	r3, r0
 8008bfa:	d3f3      	bcc.n	8008be4 <__mcmp+0x18>
 8008bfc:	e7fa      	b.n	8008bf4 <__mcmp+0x28>
 8008bfe:	f04f 32ff 	mov.w	r2, #4294967295
 8008c02:	e7f7      	b.n	8008bf4 <__mcmp+0x28>

08008c04 <__mdiff>:
 8008c04:	e92d 4ff8 	stmdb	sp!, {r3, r4, r5, r6, r7, r8, r9, sl, fp, lr}
 8008c08:	460c      	mov	r4, r1
 8008c0a:	4606      	mov	r6, r0
 8008c0c:	4611      	mov	r1, r2
 8008c0e:	4620      	mov	r0, r4
 8008c10:	4690      	mov	r8, r2
 8008c12:	f7ff ffdb 	bl	8008bcc <__mcmp>
 8008c16:	1e05      	subs	r5, r0, #0
 8008c18:	d110      	bne.n	8008c3c <__mdiff+0x38>
 8008c1a:	4629      	mov	r1, r5
 8008c1c:	4630      	mov	r0, r6
 8008c1e:	f7ff fd53 	bl	80086c8 <_Balloc>
 8008c22:	b930      	cbnz	r0, 8008c32 <__mdiff+0x2e>
 8008c24:	4b3a      	ldr	r3, [pc, #232]	; (8008d10 <__mdiff+0x10c>)
 8008c26:	4602      	mov	r2, r0
 8008c28:	f240 2132 	movw	r1, #562	; 0x232
 8008c2c:	4839      	ldr	r0, [pc, #228]	; (8008d14 <__mdiff+0x110>)
 8008c2e:	f7fe fe95 	bl	800795c <__assert_func>
 8008c32:	2301      	movs	r3, #1
 8008c34:	e9c0 3504 	strd	r3, r5, [r0, #16]
 8008c38:	e8bd 8ff8 	ldmia.w	sp!, {r3, r4, r5, r6, r7, r8, r9, sl, fp, pc}
 8008c3c:	bfa4      	itt	ge
 8008c3e:	4643      	movge	r3, r8
 8008c40:	46a0      	movge	r8, r4
 8008c42:	4630      	mov	r0, r6
 8008c44:	f8d8 1004 	ldr.w	r1, [r8, #4]
 8008c48:	bfa6      	itte	ge
 8008c4a:	461c      	movge	r4, r3
 8008c4c:	2500      	movge	r5, #0
 8008c4e:	2501      	movlt	r5, #1
 8008c50:	f7ff fd3a 	bl	80086c8 <_Balloc>
 8008c54:	b920      	cbnz	r0, 8008c60 <__mdiff+0x5c>
 8008c56:	4b2e      	ldr	r3, [pc, #184]	; (8008d10 <__mdiff+0x10c>)
 8008c58:	4602      	mov	r2, r0
 8008c5a:	f44f 7110 	mov.w	r1, #576	; 0x240
 8008c5e:	e7e5      	b.n	8008c2c <__mdiff+0x28>
 8008c60:	f8d8 7010 	ldr.w	r7, [r8, #16]
 8008c64:	6926      	ldr	r6, [r4, #16]
 8008c66:	60c5      	str	r5, [r0, #12]
 8008c68:	f104 0914 	add.w	r9, r4, #20
 8008c6c:	f108 0514 	add.w	r5, r8, #20
 8008c70:	f100 0e14 	add.w	lr, r0, #20
 8008c74:	eb05 0c87 	add.w	ip, r5, r7, lsl #2
 8008c78:	eb09 0686 	add.w	r6, r9, r6, lsl #2
 8008c7c:	f108 0210 	add.w	r2, r8, #16
 8008c80:	46f2      	mov	sl, lr
 8008c82:	2100      	movs	r1, #0
 8008c84:	f859 3b04 	ldr.w	r3, [r9], #4
 8008c88:	f852 bf04 	ldr.w	fp, [r2, #4]!
 8008c8c:	fa1f f883 	uxth.w	r8, r3
 8008c90:	fa11 f18b 	uxtah	r1, r1, fp
 8008c94:	0c1b      	lsrs	r3, r3, #16
 8008c96:	eba1 0808 	sub.w	r8, r1, r8
 8008c9a:	ebc3 431b 	rsb	r3, r3, fp, lsr #16
 8008c9e:	eb03 4328 	add.w	r3, r3, r8, asr #16
 8008ca2:	fa1f f888 	uxth.w	r8, r8
 8008ca6:	1419      	asrs	r1, r3, #16
 8008ca8:	454e      	cmp	r6, r9
 8008caa:	ea48 4303 	orr.w	r3, r8, r3, lsl #16
 8008cae:	f84a 3b04 	str.w	r3, [sl], #4
 8008cb2:	d8e7      	bhi.n	8008c84 <__mdiff+0x80>
 8008cb4:	1b33      	subs	r3, r6, r4
 8008cb6:	3b15      	subs	r3, #21
 8008cb8:	f023 0303 	bic.w	r3, r3, #3
 8008cbc:	3304      	adds	r3, #4
 8008cbe:	3415      	adds	r4, #21
 8008cc0:	42a6      	cmp	r6, r4
 8008cc2:	bf38      	it	cc
 8008cc4:	2304      	movcc	r3, #4
 8008cc6:	441d      	add	r5, r3
 8008cc8:	4473      	add	r3, lr
 8008cca:	469e      	mov	lr, r3
 8008ccc:	462e      	mov	r6, r5
 8008cce:	4566      	cmp	r6, ip
 8008cd0:	d30e      	bcc.n	8008cf0 <__mdiff+0xec>
 8008cd2:	f10c 0203 	add.w	r2, ip, #3
 8008cd6:	1b52      	subs	r2, r2, r5
 8008cd8:	f022 0203 	bic.w	r2, r2, #3
 8008cdc:	3d03      	subs	r5, #3
 8008cde:	45ac      	cmp	ip, r5
 8008ce0:	bf38      	it	cc
 8008ce2:	2200      	movcc	r2, #0
 8008ce4:	441a      	add	r2, r3
 8008ce6:	f852 3d04 	ldr.w	r3, [r2, #-4]!
 8008cea:	b17b      	cbz	r3, 8008d0c <__mdiff+0x108>
 8008cec:	6107      	str	r7, [r0, #16]
 8008cee:	e7a3      	b.n	8008c38 <__mdiff+0x34>
 8008cf0:	f856 8b04 	ldr.w	r8, [r6], #4
 8008cf4:	fa11 f288 	uxtah	r2, r1, r8
 8008cf8:	1414      	asrs	r4, r2, #16
 8008cfa:	eb04 4418 	add.w	r4, r4, r8, lsr #16
 8008cfe:	b292      	uxth	r2, r2
 8008d00:	ea42 4204 	orr.w	r2, r2, r4, lsl #16
 8008d04:	f84e 2b04 	str.w	r2, [lr], #4
 8008d08:	1421      	asrs	r1, r4, #16
 8008d0a:	e7e0      	b.n	8008cce <__mdiff+0xca>
 8008d0c:	3f01      	subs	r7, #1
 8008d0e:	e7ea      	b.n	8008ce6 <__mdiff+0xe2>
 8008d10:	0800ac51 	.word	0x0800ac51
 8008d14:	0800ac62 	.word	0x0800ac62

08008d18 <__d2b>:
 8008d18:	e92d 43f7 	stmdb	sp!, {r0, r1, r2, r4, r5, r6, r7, r8, r9, lr}
 8008d1c:	4689      	mov	r9, r1
 8008d1e:	2101      	movs	r1, #1
 8008d20:	ec57 6b10 	vmov	r6, r7, d0
 8008d24:	4690      	mov	r8, r2
 8008d26:	f7ff fccf 	bl	80086c8 <_Balloc>
 8008d2a:	4604      	mov	r4, r0
 8008d2c:	b930      	cbnz	r0, 8008d3c <__d2b+0x24>
 8008d2e:	4602      	mov	r2, r0
 8008d30:	4b25      	ldr	r3, [pc, #148]	; (8008dc8 <__d2b+0xb0>)
 8008d32:	4826      	ldr	r0, [pc, #152]	; (8008dcc <__d2b+0xb4>)
 8008d34:	f240 310a 	movw	r1, #778	; 0x30a
 8008d38:	f7fe fe10 	bl	800795c <__assert_func>
 8008d3c:	f3c7 550a 	ubfx	r5, r7, #20, #11
 8008d40:	f3c7 0313 	ubfx	r3, r7, #0, #20
 8008d44:	bb35      	cbnz	r5, 8008d94 <__d2b+0x7c>
 8008d46:	2e00      	cmp	r6, #0
 8008d48:	9301      	str	r3, [sp, #4]
 8008d4a:	d028      	beq.n	8008d9e <__d2b+0x86>
 8008d4c:	4668      	mov	r0, sp
 8008d4e:	9600      	str	r6, [sp, #0]
 8008d50:	f7ff fd82 	bl	8008858 <__lo0bits>
 8008d54:	9900      	ldr	r1, [sp, #0]
 8008d56:	b300      	cbz	r0, 8008d9a <__d2b+0x82>
 8008d58:	9a01      	ldr	r2, [sp, #4]
 8008d5a:	f1c0 0320 	rsb	r3, r0, #32
 8008d5e:	fa02 f303 	lsl.w	r3, r2, r3
 8008d62:	430b      	orrs	r3, r1
 8008d64:	40c2      	lsrs	r2, r0
 8008d66:	6163      	str	r3, [r4, #20]
 8008d68:	9201      	str	r2, [sp, #4]
 8008d6a:	9b01      	ldr	r3, [sp, #4]
 8008d6c:	61a3      	str	r3, [r4, #24]
 8008d6e:	2b00      	cmp	r3, #0
 8008d70:	bf14      	ite	ne
 8008d72:	2202      	movne	r2, #2
 8008d74:	2201      	moveq	r2, #1
 8008d76:	6122      	str	r2, [r4, #16]
 8008d78:	b1d5      	cbz	r5, 8008db0 <__d2b+0x98>
 8008d7a:	f2a5 4533 	subw	r5, r5, #1075	; 0x433
 8008d7e:	4405      	add	r5, r0
 8008d80:	f8c9 5000 	str.w	r5, [r9]
 8008d84:	f1c0 0035 	rsb	r0, r0, #53	; 0x35
 8008d88:	f8c8 0000 	str.w	r0, [r8]
 8008d8c:	4620      	mov	r0, r4
 8008d8e:	b003      	add	sp, #12
 8008d90:	e8bd 83f0 	ldmia.w	sp!, {r4, r5, r6, r7, r8, r9, pc}
 8008d94:	f443 1380 	orr.w	r3, r3, #1048576	; 0x100000
 8008d98:	e7d5      	b.n	8008d46 <__d2b+0x2e>
 8008d9a:	6161      	str	r1, [r4, #20]
 8008d9c:	e7e5      	b.n	8008d6a <__d2b+0x52>
 8008d9e:	a801      	add	r0, sp, #4
 8008da0:	f7ff fd5a 	bl	8008858 <__lo0bits>
 8008da4:	9b01      	ldr	r3, [sp, #4]
 8008da6:	6163      	str	r3, [r4, #20]
 8008da8:	2201      	movs	r2, #1
 8008daa:	6122      	str	r2, [r4, #16]
 8008dac:	3020      	adds	r0, #32
 8008dae:	e7e3      	b.n	8008d78 <__d2b+0x60>
 8008db0:	eb04 0382 	add.w	r3, r4, r2, lsl #2
 8008db4:	f2a0 4032 	subw	r0, r0, #1074	; 0x432
 8008db8:	f8c9 0000 	str.w	r0, [r9]
 8008dbc:	6918      	ldr	r0, [r3, #16]
 8008dbe:	f7ff fd2b 	bl	8008818 <__hi0bits>
 8008dc2:	ebc0 1042 	rsb	r0, r0, r2, lsl #5
 8008dc6:	e7df      	b.n	8008d88 <__d2b+0x70>
 8008dc8:	0800ac51 	.word	0x0800ac51
 8008dcc:	0800ac62 	.word	0x0800ac62

08008dd0 <_calloc_r>:
 8008dd0:	b537      	push	{r0, r1, r2, r4, r5, lr}
 8008dd2:	fba1 2402 	umull	r2, r4, r1, r2
 8008dd6:	b94c      	cbnz	r4, 8008dec <_calloc_r+0x1c>
 8008dd8:	4611      	mov	r1, r2
 8008dda:	9201      	str	r2, [sp, #4]
 8008ddc:	f000 f87a 	bl	8008ed4 <_malloc_r>
 8008de0:	9a01      	ldr	r2, [sp, #4]
 8008de2:	4605      	mov	r5, r0
 8008de4:	b930      	cbnz	r0, 8008df4 <_calloc_r+0x24>
 8008de6:	4628      	mov	r0, r5
 8008de8:	b003      	add	sp, #12
 8008dea:	bd30      	pop	{r4, r5, pc}
 8008dec:	220c      	movs	r2, #12
 8008dee:	6002      	str	r2, [r0, #0]
 8008df0:	2500      	movs	r5, #0
 8008df2:	e7f8      	b.n	8008de6 <_calloc_r+0x16>
 8008df4:	4621      	mov	r1, r4
 8008df6:	f7fe f82f 	bl	8006e58 <memset>
 8008dfa:	e7f4      	b.n	8008de6 <_calloc_r+0x16>

08008dfc <_free_r>:
 8008dfc:	b537      	push	{r0, r1, r2, r4, r5, lr}
 8008dfe:	2900      	cmp	r1, #0
 8008e00:	d044      	beq.n	8008e8c <_free_r+0x90>
 8008e02:	f851 3c04 	ldr.w	r3, [r1, #-4]
 8008e06:	9001      	str	r0, [sp, #4]
 8008e08:	2b00      	cmp	r3, #0
 8008e0a:	f1a1 0404 	sub.w	r4, r1, #4
 8008e0e:	bfb8      	it	lt
 8008e10:	18e4      	addlt	r4, r4, r3
 8008e12:	f000 fead 	bl	8009b70 <__malloc_lock>
 8008e16:	4a1e      	ldr	r2, [pc, #120]	; (8008e90 <_free_r+0x94>)
 8008e18:	9801      	ldr	r0, [sp, #4]
 8008e1a:	6813      	ldr	r3, [r2, #0]
 8008e1c:	b933      	cbnz	r3, 8008e2c <_free_r+0x30>
 8008e1e:	6063      	str	r3, [r4, #4]
 8008e20:	6014      	str	r4, [r2, #0]
 8008e22:	b003      	add	sp, #12
 8008e24:	e8bd 4030 	ldmia.w	sp!, {r4, r5, lr}
 8008e28:	f000 bea8 	b.w	8009b7c <__malloc_unlock>
 8008e2c:	42a3      	cmp	r3, r4
 8008e2e:	d908      	bls.n	8008e42 <_free_r+0x46>
 8008e30:	6825      	ldr	r5, [r4, #0]
 8008e32:	1961      	adds	r1, r4, r5
 8008e34:	428b      	cmp	r3, r1
 8008e36:	bf01      	itttt	eq
 8008e38:	6819      	ldreq	r1, [r3, #0]
 8008e3a:	685b      	ldreq	r3, [r3, #4]
 8008e3c:	1949      	addeq	r1, r1, r5
 8008e3e:	6021      	streq	r1, [r4, #0]
 8008e40:	e7ed      	b.n	8008e1e <_free_r+0x22>
 8008e42:	461a      	mov	r2, r3
 8008e44:	685b      	ldr	r3, [r3, #4]
 8008e46:	b10b      	cbz	r3, 8008e4c <_free_r+0x50>
 8008e48:	42a3      	cmp	r3, r4
 8008e4a:	d9fa      	bls.n	8008e42 <_free_r+0x46>
 8008e4c:	6811      	ldr	r1, [r2, #0]
 8008e4e:	1855      	adds	r5, r2, r1
 8008e50:	42a5      	cmp	r5, r4
 8008e52:	d10b      	bne.n	8008e6c <_free_r+0x70>
 8008e54:	6824      	ldr	r4, [r4, #0]
 8008e56:	4421      	add	r1, r4
 8008e58:	1854      	adds	r4, r2, r1
 8008e5a:	42a3      	cmp	r3, r4
 8008e5c:	6011      	str	r1, [r2, #0]
 8008e5e:	d1e0      	bne.n	8008e22 <_free_r+0x26>
 8008e60:	681c      	ldr	r4, [r3, #0]
 8008e62:	685b      	ldr	r3, [r3, #4]
 8008e64:	6053      	str	r3, [r2, #4]
 8008e66:	4421      	add	r1, r4
 8008e68:	6011      	str	r1, [r2, #0]
 8008e6a:	e7da      	b.n	8008e22 <_free_r+0x26>
 8008e6c:	d902      	bls.n	8008e74 <_free_r+0x78>
 8008e6e:	230c      	movs	r3, #12
 8008e70:	6003      	str	r3, [r0, #0]
 8008e72:	e7d6      	b.n	8008e22 <_free_r+0x26>
 8008e74:	6825      	ldr	r5, [r4, #0]
 8008e76:	1961      	adds	r1, r4, r5
 8008e78:	428b      	cmp	r3, r1
 8008e7a:	bf04      	itt	eq
 8008e7c:	6819      	ldreq	r1, [r3, #0]
 8008e7e:	685b      	ldreq	r3, [r3, #4]
 8008e80:	6063      	str	r3, [r4, #4]
 8008e82:	bf04      	itt	eq
 8008e84:	1949      	addeq	r1, r1, r5
 8008e86:	6021      	streq	r1, [r4, #0]
 8008e88:	6054      	str	r4, [r2, #4]
 8008e8a:	e7ca      	b.n	8008e22 <_free_r+0x26>
 8008e8c:	b003      	add	sp, #12
 8008e8e:	bd30      	pop	{r4, r5, pc}
 8008e90:	20005368 	.word	0x20005368

08008e94 <sbrk_aligned>:
 8008e94:	b570      	push	{r4, r5, r6, lr}
 8008e96:	4e0e      	ldr	r6, [pc, #56]	; (8008ed0 <sbrk_aligned+0x3c>)
 8008e98:	460c      	mov	r4, r1
 8008e9a:	6831      	ldr	r1, [r6, #0]
 8008e9c:	4605      	mov	r5, r0
 8008e9e:	b911      	cbnz	r1, 8008ea6 <sbrk_aligned+0x12>
 8008ea0:	f000 fb42 	bl	8009528 <_sbrk_r>
 8008ea4:	6030      	str	r0, [r6, #0]
 8008ea6:	4621      	mov	r1, r4
 8008ea8:	4628      	mov	r0, r5
 8008eaa:	f000 fb3d 	bl	8009528 <_sbrk_r>
 8008eae:	1c43      	adds	r3, r0, #1
 8008eb0:	d00a      	beq.n	8008ec8 <sbrk_aligned+0x34>
 8008eb2:	1cc4      	adds	r4, r0, #3
 8008eb4:	f024 0403 	bic.w	r4, r4, #3
 8008eb8:	42a0      	cmp	r0, r4
 8008eba:	d007      	beq.n	8008ecc <sbrk_aligned+0x38>
 8008ebc:	1a21      	subs	r1, r4, r0
 8008ebe:	4628      	mov	r0, r5
 8008ec0:	f000 fb32 	bl	8009528 <_sbrk_r>
 8008ec4:	3001      	adds	r0, #1
 8008ec6:	d101      	bne.n	8008ecc <sbrk_aligned+0x38>
 8008ec8:	f04f 34ff 	mov.w	r4, #4294967295
 8008ecc:	4620      	mov	r0, r4
 8008ece:	bd70      	pop	{r4, r5, r6, pc}
 8008ed0:	2000536c 	.word	0x2000536c

08008ed4 <_malloc_r>:
 8008ed4:	e92d 41f0 	stmdb	sp!, {r4, r5, r6, r7, r8, lr}
 8008ed8:	1ccd      	adds	r5, r1, #3
 8008eda:	f025 0503 	bic.w	r5, r5, #3
 8008ede:	3508      	adds	r5, #8
 8008ee0:	2d0c      	cmp	r5, #12
 8008ee2:	bf38      	it	cc
 8008ee4:	250c      	movcc	r5, #12
 8008ee6:	2d00      	cmp	r5, #0
 8008ee8:	4607      	mov	r7, r0
 8008eea:	db01      	blt.n	8008ef0 <_malloc_r+0x1c>
 8008eec:	42a9      	cmp	r1, r5
 8008eee:	d905      	bls.n	8008efc <_malloc_r+0x28>
 8008ef0:	230c      	movs	r3, #12
 8008ef2:	603b      	str	r3, [r7, #0]
 8008ef4:	2600      	movs	r6, #0
 8008ef6:	4630      	mov	r0, r6
 8008ef8:	e8bd 81f0 	ldmia.w	sp!, {r4, r5, r6, r7, r8, pc}
 8008efc:	4e2e      	ldr	r6, [pc, #184]	; (8008fb8 <_malloc_r+0xe4>)
 8008efe:	f000 fe37 	bl	8009b70 <__malloc_lock>
 8008f02:	6833      	ldr	r3, [r6, #0]
 8008f04:	461c      	mov	r4, r3
 8008f06:	bb34      	cbnz	r4, 8008f56 <_malloc_r+0x82>
 8008f08:	4629      	mov	r1, r5
 8008f0a:	4638      	mov	r0, r7
 8008f0c:	f7ff ffc2 	bl	8008e94 <sbrk_aligned>
 8008f10:	1c43      	adds	r3, r0, #1
 8008f12:	4604      	mov	r4, r0
 8008f14:	d14d      	bne.n	8008fb2 <_malloc_r+0xde>
 8008f16:	6834      	ldr	r4, [r6, #0]
 8008f18:	4626      	mov	r6, r4
 8008f1a:	2e00      	cmp	r6, #0
 8008f1c:	d140      	bne.n	8008fa0 <_malloc_r+0xcc>
 8008f1e:	6823      	ldr	r3, [r4, #0]
 8008f20:	4631      	mov	r1, r6
 8008f22:	4638      	mov	r0, r7
 8008f24:	eb04 0803 	add.w	r8, r4, r3
 8008f28:	f000 fafe 	bl	8009528 <_sbrk_r>
 8008f2c:	4580      	cmp	r8, r0
 8008f2e:	d13a      	bne.n	8008fa6 <_malloc_r+0xd2>
 8008f30:	6821      	ldr	r1, [r4, #0]
 8008f32:	3503      	adds	r5, #3
 8008f34:	1a6d      	subs	r5, r5, r1
 8008f36:	f025 0503 	bic.w	r5, r5, #3
 8008f3a:	3508      	adds	r5, #8
 8008f3c:	2d0c      	cmp	r5, #12
 8008f3e:	bf38      	it	cc
 8008f40:	250c      	movcc	r5, #12
 8008f42:	4629      	mov	r1, r5
 8008f44:	4638      	mov	r0, r7
 8008f46:	f7ff ffa5 	bl	8008e94 <sbrk_aligned>
 8008f4a:	3001      	adds	r0, #1
 8008f4c:	d02b      	beq.n	8008fa6 <_malloc_r+0xd2>
 8008f4e:	6823      	ldr	r3, [r4, #0]
 8008f50:	442b      	add	r3, r5
 8008f52:	6023      	str	r3, [r4, #0]
 8008f54:	e00e      	b.n	8008f74 <_malloc_r+0xa0>
 8008f56:	6822      	ldr	r2, [r4, #0]
 8008f58:	1b52      	subs	r2, r2, r5
 8008f5a:	d41e      	bmi.n	8008f9a <_malloc_r+0xc6>
 8008f5c:	2a0b      	cmp	r2, #11
 8008f5e:	d916      	bls.n	8008f8e <_malloc_r+0xba>
 8008f60:	1961      	adds	r1, r4, r5
 8008f62:	42a3      	cmp	r3, r4
 8008f64:	6025      	str	r5, [r4, #0]
 8008f66:	bf18      	it	ne
 8008f68:	6059      	strne	r1, [r3, #4]
 8008f6a:	6863      	ldr	r3, [r4, #4]
 8008f6c:	bf08      	it	eq
 8008f6e:	6031      	streq	r1, [r6, #0]
 8008f70:	5162      	str	r2, [r4, r5]
 8008f72:	604b      	str	r3, [r1, #4]
 8008f74:	4638      	mov	r0, r7
 8008f76:	f104 060b 	add.w	r6, r4, #11
 8008f7a:	f000 fdff 	bl	8009b7c <__malloc_unlock>
 8008f7e:	f026 0607 	bic.w	r6, r6, #7
 8008f82:	1d23      	adds	r3, r4, #4
 8008f84:	1af2      	subs	r2, r6, r3
 8008f86:	d0b6      	beq.n	8008ef6 <_malloc_r+0x22>
 8008f88:	1b9b      	subs	r3, r3, r6
 8008f8a:	50a3      	str	r3, [r4, r2]
 8008f8c:	e7b3      	b.n	8008ef6 <_malloc_r+0x22>
 8008f8e:	6862      	ldr	r2, [r4, #4]
 8008f90:	42a3      	cmp	r3, r4
 8008f92:	bf0c      	ite	eq
 8008f94:	6032      	streq	r2, [r6, #0]
 8008f96:	605a      	strne	r2, [r3, #4]
 8008f98:	e7ec      	b.n	8008f74 <_malloc_r+0xa0>
 8008f9a:	4623      	mov	r3, r4
 8008f9c:	6864      	ldr	r4, [r4, #4]
 8008f9e:	e7b2      	b.n	8008f06 <_malloc_r+0x32>
 8008fa0:	4634      	mov	r4, r6
 8008fa2:	6876      	ldr	r6, [r6, #4]
 8008fa4:	e7b9      	b.n	8008f1a <_malloc_r+0x46>
 8008fa6:	230c      	movs	r3, #12
 8008fa8:	603b      	str	r3, [r7, #0]
 8008faa:	4638      	mov	r0, r7
 8008fac:	f000 fde6 	bl	8009b7c <__malloc_unlock>
 8008fb0:	e7a1      	b.n	8008ef6 <_malloc_r+0x22>
 8008fb2:	6025      	str	r5, [r4, #0]
 8008fb4:	e7de      	b.n	8008f74 <_malloc_r+0xa0>
 8008fb6:	bf00      	nop
 8008fb8:	20005368 	.word	0x20005368

08008fbc <__ssputs_r>:
 8008fbc:	e92d 47f0 	stmdb	sp!, {r4, r5, r6, r7, r8, r9, sl, lr}
 8008fc0:	688e      	ldr	r6, [r1, #8]
 8008fc2:	429e      	cmp	r6, r3
 8008fc4:	4682      	mov	sl, r0
 8008fc6:	460c      	mov	r4, r1
 8008fc8:	4690      	mov	r8, r2
 8008fca:	461f      	mov	r7, r3
 8008fcc:	d838      	bhi.n	8009040 <__ssputs_r+0x84>
 8008fce:	898a      	ldrh	r2, [r1, #12]
 8008fd0:	f412 6f90 	tst.w	r2, #1152	; 0x480
 8008fd4:	d032      	beq.n	800903c <__ssputs_r+0x80>
 8008fd6:	6825      	ldr	r5, [r4, #0]
 8008fd8:	6909      	ldr	r1, [r1, #16]
 8008fda:	eba5 0901 	sub.w	r9, r5, r1
 8008fde:	6965      	ldr	r5, [r4, #20]
 8008fe0:	eb05 0545 	add.w	r5, r5, r5, lsl #1
 8008fe4:	eb05 75d5 	add.w	r5, r5, r5, lsr #31
 8008fe8:	3301      	adds	r3, #1
 8008fea:	444b      	add	r3, r9
 8008fec:	106d      	asrs	r5, r5, #1
 8008fee:	429d      	cmp	r5, r3
 8008ff0:	bf38      	it	cc
 8008ff2:	461d      	movcc	r5, r3
 8008ff4:	0553      	lsls	r3, r2, #21
 8008ff6:	d531      	bpl.n	800905c <__ssputs_r+0xa0>
 8008ff8:	4629      	mov	r1, r5
 8008ffa:	f7ff ff6b 	bl	8008ed4 <_malloc_r>
 8008ffe:	4606      	mov	r6, r0
 8009000:	b950      	cbnz	r0, 8009018 <__ssputs_r+0x5c>
 8009002:	230c      	movs	r3, #12
 8009004:	f8ca 3000 	str.w	r3, [sl]
 8009008:	89a3      	ldrh	r3, [r4, #12]
 800900a:	f043 0340 	orr.w	r3, r3, #64	; 0x40
 800900e:	81a3      	strh	r3, [r4, #12]
 8009010:	f04f 30ff 	mov.w	r0, #4294967295
 8009014:	e8bd 87f0 	ldmia.w	sp!, {r4, r5, r6, r7, r8, r9, sl, pc}
 8009018:	6921      	ldr	r1, [r4, #16]
 800901a:	464a      	mov	r2, r9
 800901c:	f7fd ff0e 	bl	8006e3c <memcpy>
 8009020:	89a3      	ldrh	r3, [r4, #12]
 8009022:	f423 6390 	bic.w	r3, r3, #1152	; 0x480
 8009026:	f043 0380 	orr.w	r3, r3, #128	; 0x80
 800902a:	81a3      	strh	r3, [r4, #12]
 800902c:	6126      	str	r6, [r4, #16]
 800902e:	6165      	str	r5, [r4, #20]
 8009030:	444e      	add	r6, r9
 8009032:	eba5 0509 	sub.w	r5, r5, r9
 8009036:	6026      	str	r6, [r4, #0]
 8009038:	60a5      	str	r5, [r4, #8]
 800903a:	463e      	mov	r6, r7
 800903c:	42be      	cmp	r6, r7
 800903e:	d900      	bls.n	8009042 <__ssputs_r+0x86>
 8009040:	463e      	mov	r6, r7
 8009042:	6820      	ldr	r0, [r4, #0]
 8009044:	4632      	mov	r2, r6
 8009046:	4641      	mov	r1, r8
 8009048:	f000 fd78 	bl	8009b3c <memmove>
 800904c:	68a3      	ldr	r3, [r4, #8]
 800904e:	1b9b      	subs	r3, r3, r6
 8009050:	60a3      	str	r3, [r4, #8]
 8009052:	6823      	ldr	r3, [r4, #0]
 8009054:	4433      	add	r3, r6
 8009056:	6023      	str	r3, [r4, #0]
 8009058:	2000      	movs	r0, #0
 800905a:	e7db      	b.n	8009014 <__ssputs_r+0x58>
 800905c:	462a      	mov	r2, r5
 800905e:	f000 fd93 	bl	8009b88 <_realloc_r>
 8009062:	4606      	mov	r6, r0
 8009064:	2800      	cmp	r0, #0
 8009066:	d1e1      	bne.n	800902c <__ssputs_r+0x70>
 8009068:	6921      	ldr	r1, [r4, #16]
 800906a:	4650      	mov	r0, sl
 800906c:	f7ff fec6 	bl	8008dfc <_free_r>
 8009070:	e7c7      	b.n	8009002 <__ssputs_r+0x46>
	...

08009074 <_svfiprintf_r>:
 8009074:	e92d 4ff0 	stmdb	sp!, {r4, r5, r6, r7, r8, r9, sl, fp, lr}
 8009078:	4698      	mov	r8, r3
 800907a:	898b      	ldrh	r3, [r1, #12]
 800907c:	061b      	lsls	r3, r3, #24
 800907e:	b09d      	sub	sp, #116	; 0x74
 8009080:	4607      	mov	r7, r0
 8009082:	460d      	mov	r5, r1
 8009084:	4614      	mov	r4, r2
 8009086:	d50e      	bpl.n	80090a6 <_svfiprintf_r+0x32>
 8009088:	690b      	ldr	r3, [r1, #16]
 800908a:	b963      	cbnz	r3, 80090a6 <_svfiprintf_r+0x32>
 800908c:	2140      	movs	r1, #64	; 0x40
 800908e:	f7ff ff21 	bl	8008ed4 <_malloc_r>
 8009092:	6028      	str	r0, [r5, #0]
 8009094:	6128      	str	r0, [r5, #16]
 8009096:	b920      	cbnz	r0, 80090a2 <_svfiprintf_r+0x2e>
 8009098:	230c      	movs	r3, #12
 800909a:	603b      	str	r3, [r7, #0]
 800909c:	f04f 30ff 	mov.w	r0, #4294967295
 80090a0:	e0d1      	b.n	8009246 <_svfiprintf_r+0x1d2>
 80090a2:	2340      	movs	r3, #64	; 0x40
 80090a4:	616b      	str	r3, [r5, #20]
 80090a6:	2300      	movs	r3, #0
 80090a8:	9309      	str	r3, [sp, #36]	; 0x24
 80090aa:	2320      	movs	r3, #32
 80090ac:	f88d 3029 	strb.w	r3, [sp, #41]	; 0x29
 80090b0:	f8cd 800c 	str.w	r8, [sp, #12]
 80090b4:	2330      	movs	r3, #48	; 0x30
 80090b6:	f8df 81a8 	ldr.w	r8, [pc, #424]	; 8009260 <_svfiprintf_r+0x1ec>
 80090ba:	f88d 302a 	strb.w	r3, [sp, #42]	; 0x2a
 80090be:	f04f 0901 	mov.w	r9, #1
 80090c2:	4623      	mov	r3, r4
 80090c4:	469a      	mov	sl, r3
 80090c6:	f813 2b01 	ldrb.w	r2, [r3], #1
 80090ca:	b10a      	cbz	r2, 80090d0 <_svfiprintf_r+0x5c>
 80090cc:	2a25      	cmp	r2, #37	; 0x25
 80090ce:	d1f9      	bne.n	80090c4 <_svfiprintf_r+0x50>
 80090d0:	ebba 0b04 	subs.w	fp, sl, r4
 80090d4:	d00b      	beq.n	80090ee <_svfiprintf_r+0x7a>
 80090d6:	465b      	mov	r3, fp
 80090d8:	4622      	mov	r2, r4
 80090da:	4629      	mov	r1, r5
 80090dc:	4638      	mov	r0, r7
 80090de:	f7ff ff6d 	bl	8008fbc <__ssputs_r>
 80090e2:	3001      	adds	r0, #1
 80090e4:	f000 80aa 	beq.w	800923c <_svfiprintf_r+0x1c8>
 80090e8:	9a09      	ldr	r2, [sp, #36]	; 0x24
 80090ea:	445a      	add	r2, fp
 80090ec:	9209      	str	r2, [sp, #36]	; 0x24
 80090ee:	f89a 3000 	ldrb.w	r3, [sl]
 80090f2:	2b00      	cmp	r3, #0
 80090f4:	f000 80a2 	beq.w	800923c <_svfiprintf_r+0x1c8>
 80090f8:	2300      	movs	r3, #0
 80090fa:	f04f 32ff 	mov.w	r2, #4294967295
 80090fe:	e9cd 2305 	strd	r2, r3, [sp, #20]
 8009102:	f10a 0a01 	add.w	sl, sl, #1
 8009106:	9304      	str	r3, [sp, #16]
 8009108:	9307      	str	r3, [sp, #28]
 800910a:	f88d 3053 	strb.w	r3, [sp, #83]	; 0x53
 800910e:	931a      	str	r3, [sp, #104]	; 0x68
 8009110:	4654      	mov	r4, sl
 8009112:	2205      	movs	r2, #5
 8009114:	f814 1b01 	ldrb.w	r1, [r4], #1
 8009118:	4851      	ldr	r0, [pc, #324]	; (8009260 <_svfiprintf_r+0x1ec>)
 800911a:	f7f7 f861 	bl	80001e0 <memchr>
 800911e:	9a04      	ldr	r2, [sp, #16]
 8009120:	b9d8      	cbnz	r0, 800915a <_svfiprintf_r+0xe6>
 8009122:	06d0      	lsls	r0, r2, #27
 8009124:	bf44      	itt	mi
 8009126:	2320      	movmi	r3, #32
 8009128:	f88d 3053 	strbmi.w	r3, [sp, #83]	; 0x53
 800912c:	0711      	lsls	r1, r2, #28
 800912e:	bf44      	itt	mi
 8009130:	232b      	movmi	r3, #43	; 0x2b
 8009132:	f88d 3053 	strbmi.w	r3, [sp, #83]	; 0x53
 8009136:	f89a 3000 	ldrb.w	r3, [sl]
 800913a:	2b2a      	cmp	r3, #42	; 0x2a
 800913c:	d015      	beq.n	800916a <_svfiprintf_r+0xf6>
 800913e:	9a07      	ldr	r2, [sp, #28]
 8009140:	4654      	mov	r4, sl
 8009142:	2000      	movs	r0, #0
 8009144:	f04f 0c0a 	mov.w	ip, #10
 8009148:	4621      	mov	r1, r4
 800914a:	f811 3b01 	ldrb.w	r3, [r1], #1
 800914e:	3b30      	subs	r3, #48	; 0x30
 8009150:	2b09      	cmp	r3, #9
 8009152:	d94e      	bls.n	80091f2 <_svfiprintf_r+0x17e>
 8009154:	b1b0      	cbz	r0, 8009184 <_svfiprintf_r+0x110>
 8009156:	9207      	str	r2, [sp, #28]
 8009158:	e014      	b.n	8009184 <_svfiprintf_r+0x110>
 800915a:	eba0 0308 	sub.w	r3, r0, r8
 800915e:	fa09 f303 	lsl.w	r3, r9, r3
 8009162:	4313      	orrs	r3, r2
 8009164:	9304      	str	r3, [sp, #16]
 8009166:	46a2      	mov	sl, r4
 8009168:	e7d2      	b.n	8009110 <_svfiprintf_r+0x9c>
 800916a:	9b03      	ldr	r3, [sp, #12]
 800916c:	1d19      	adds	r1, r3, #4
 800916e:	681b      	ldr	r3, [r3, #0]
 8009170:	9103      	str	r1, [sp, #12]
 8009172:	2b00      	cmp	r3, #0
 8009174:	bfbb      	ittet	lt
 8009176:	425b      	neglt	r3, r3
 8009178:	f042 0202 	orrlt.w	r2, r2, #2
 800917c:	9307      	strge	r3, [sp, #28]
 800917e:	9307      	strlt	r3, [sp, #28]
 8009180:	bfb8      	it	lt
 8009182:	9204      	strlt	r2, [sp, #16]
 8009184:	7823      	ldrb	r3, [r4, #0]
 8009186:	2b2e      	cmp	r3, #46	; 0x2e
 8009188:	d10c      	bne.n	80091a4 <_svfiprintf_r+0x130>
 800918a:	7863      	ldrb	r3, [r4, #1]
 800918c:	2b2a      	cmp	r3, #42	; 0x2a
 800918e:	d135      	bne.n	80091fc <_svfiprintf_r+0x188>
 8009190:	9b03      	ldr	r3, [sp, #12]
 8009192:	1d1a      	adds	r2, r3, #4
 8009194:	681b      	ldr	r3, [r3, #0]
 8009196:	9203      	str	r2, [sp, #12]
 8009198:	2b00      	cmp	r3, #0
 800919a:	bfb8      	it	lt
 800919c:	f04f 33ff 	movlt.w	r3, #4294967295
 80091a0:	3402      	adds	r4, #2
 80091a2:	9305      	str	r3, [sp, #20]
 80091a4:	f8df a0c8 	ldr.w	sl, [pc, #200]	; 8009270 <_svfiprintf_r+0x1fc>
 80091a8:	7821      	ldrb	r1, [r4, #0]
 80091aa:	2203      	movs	r2, #3
 80091ac:	4650      	mov	r0, sl
 80091ae:	f7f7 f817 	bl	80001e0 <memchr>
 80091b2:	b140      	cbz	r0, 80091c6 <_svfiprintf_r+0x152>
 80091b4:	2340      	movs	r3, #64	; 0x40
 80091b6:	eba0 000a 	sub.w	r0, r0, sl
 80091ba:	fa03 f000 	lsl.w	r0, r3, r0
 80091be:	9b04      	ldr	r3, [sp, #16]
 80091c0:	4303      	orrs	r3, r0
 80091c2:	3401      	adds	r4, #1
 80091c4:	9304      	str	r3, [sp, #16]
 80091c6:	f814 1b01 	ldrb.w	r1, [r4], #1
 80091ca:	4826      	ldr	r0, [pc, #152]	; (8009264 <_svfiprintf_r+0x1f0>)
 80091cc:	f88d 1028 	strb.w	r1, [sp, #40]	; 0x28
 80091d0:	2206      	movs	r2, #6
 80091d2:	f7f7 f805 	bl	80001e0 <memchr>
 80091d6:	2800      	cmp	r0, #0
 80091d8:	d038      	beq.n	800924c <_svfiprintf_r+0x1d8>
 80091da:	4b23      	ldr	r3, [pc, #140]	; (8009268 <_svfiprintf_r+0x1f4>)
 80091dc:	bb1b      	cbnz	r3, 8009226 <_svfiprintf_r+0x1b2>
 80091de:	9b03      	ldr	r3, [sp, #12]
 80091e0:	3307      	adds	r3, #7
 80091e2:	f023 0307 	bic.w	r3, r3, #7
 80091e6:	3308      	adds	r3, #8
 80091e8:	9303      	str	r3, [sp, #12]
 80091ea:	9b09      	ldr	r3, [sp, #36]	; 0x24
 80091ec:	4433      	add	r3, r6
 80091ee:	9309      	str	r3, [sp, #36]	; 0x24
 80091f0:	e767      	b.n	80090c2 <_svfiprintf_r+0x4e>
 80091f2:	fb0c 3202 	mla	r2, ip, r2, r3
 80091f6:	460c      	mov	r4, r1
 80091f8:	2001      	movs	r0, #1
 80091fa:	e7a5      	b.n	8009148 <_svfiprintf_r+0xd4>
 80091fc:	2300      	movs	r3, #0
 80091fe:	3401      	adds	r4, #1
 8009200:	9305      	str	r3, [sp, #20]
 8009202:	4619      	mov	r1, r3
 8009204:	f04f 0c0a 	mov.w	ip, #10
 8009208:	4620      	mov	r0, r4
 800920a:	f810 2b01 	ldrb.w	r2, [r0], #1
 800920e:	3a30      	subs	r2, #48	; 0x30
 8009210:	2a09      	cmp	r2, #9
 8009212:	d903      	bls.n	800921c <_svfiprintf_r+0x1a8>
 8009214:	2b00      	cmp	r3, #0
 8009216:	d0c5      	beq.n	80091a4 <_svfiprintf_r+0x130>
 8009218:	9105      	str	r1, [sp, #20]
 800921a:	e7c3      	b.n	80091a4 <_svfiprintf_r+0x130>
 800921c:	fb0c 2101 	mla	r1, ip, r1, r2
 8009220:	4604      	mov	r4, r0
 8009222:	2301      	movs	r3, #1
 8009224:	e7f0      	b.n	8009208 <_svfiprintf_r+0x194>
 8009226:	ab03      	add	r3, sp, #12
 8009228:	9300      	str	r3, [sp, #0]
 800922a:	462a      	mov	r2, r5
 800922c:	4b0f      	ldr	r3, [pc, #60]	; (800926c <_svfiprintf_r+0x1f8>)
 800922e:	a904      	add	r1, sp, #16
 8009230:	4638      	mov	r0, r7
 8009232:	f7fd feb9 	bl	8006fa8 <_printf_float>
 8009236:	1c42      	adds	r2, r0, #1
 8009238:	4606      	mov	r6, r0
 800923a:	d1d6      	bne.n	80091ea <_svfiprintf_r+0x176>
 800923c:	89ab      	ldrh	r3, [r5, #12]
 800923e:	065b      	lsls	r3, r3, #25
 8009240:	f53f af2c 	bmi.w	800909c <_svfiprintf_r+0x28>
 8009244:	9809      	ldr	r0, [sp, #36]	; 0x24
 8009246:	b01d      	add	sp, #116	; 0x74
 8009248:	e8bd 8ff0 	ldmia.w	sp!, {r4, r5, r6, r7, r8, r9, sl, fp, pc}
 800924c:	ab03      	add	r3, sp, #12
 800924e:	9300      	str	r3, [sp, #0]
 8009250:	462a      	mov	r2, r5
 8009252:	4b06      	ldr	r3, [pc, #24]	; (800926c <_svfiprintf_r+0x1f8>)
 8009254:	a904      	add	r1, sp, #16
 8009256:	4638      	mov	r0, r7
 8009258:	f7fe f94a 	bl	80074f0 <_printf_i>
 800925c:	e7eb      	b.n	8009236 <_svfiprintf_r+0x1c2>
 800925e:	bf00      	nop
 8009260:	0800adbc 	.word	0x0800adbc
 8009264:	0800adc6 	.word	0x0800adc6
 8009268:	08006fa9 	.word	0x08006fa9
 800926c:	08008fbd 	.word	0x08008fbd
 8009270:	0800adc2 	.word	0x0800adc2

08009274 <__sfputc_r>:
 8009274:	6893      	ldr	r3, [r2, #8]
 8009276:	3b01      	subs	r3, #1
 8009278:	2b00      	cmp	r3, #0
 800927a:	b410      	push	{r4}
 800927c:	6093      	str	r3, [r2, #8]
 800927e:	da08      	bge.n	8009292 <__sfputc_r+0x1e>
 8009280:	6994      	ldr	r4, [r2, #24]
 8009282:	42a3      	cmp	r3, r4
 8009284:	db01      	blt.n	800928a <__sfputc_r+0x16>
 8009286:	290a      	cmp	r1, #10
 8009288:	d103      	bne.n	8009292 <__sfputc_r+0x1e>
 800928a:	f85d 4b04 	ldr.w	r4, [sp], #4
 800928e:	f000 b95b 	b.w	8009548 <__swbuf_r>
 8009292:	6813      	ldr	r3, [r2, #0]
 8009294:	1c58      	adds	r0, r3, #1
 8009296:	6010      	str	r0, [r2, #0]
 8009298:	7019      	strb	r1, [r3, #0]
 800929a:	4608      	mov	r0, r1
 800929c:	f85d 4b04 	ldr.w	r4, [sp], #4
 80092a0:	4770      	bx	lr

080092a2 <__sfputs_r>:
 80092a2:	b5f8      	push	{r3, r4, r5, r6, r7, lr}
 80092a4:	4606      	mov	r6, r0
 80092a6:	460f      	mov	r7, r1
 80092a8:	4614      	mov	r4, r2
 80092aa:	18d5      	adds	r5, r2, r3
 80092ac:	42ac      	cmp	r4, r5
 80092ae:	d101      	bne.n	80092b4 <__sfputs_r+0x12>
 80092b0:	2000      	movs	r0, #0
 80092b2:	e007      	b.n	80092c4 <__sfputs_r+0x22>
 80092b4:	f814 1b01 	ldrb.w	r1, [r4], #1
 80092b8:	463a      	mov	r2, r7
 80092ba:	4630      	mov	r0, r6
 80092bc:	f7ff ffda 	bl	8009274 <__sfputc_r>
 80092c0:	1c43      	adds	r3, r0, #1
 80092c2:	d1f3      	bne.n	80092ac <__sfputs_r+0xa>
 80092c4:	bdf8      	pop	{r3, r4, r5, r6, r7, pc}
	...

080092c8 <_vfiprintf_r>:
 80092c8:	e92d 4ff0 	stmdb	sp!, {r4, r5, r6, r7, r8, r9, sl, fp, lr}
 80092cc:	460d      	mov	r5, r1
 80092ce:	b09d      	sub	sp, #116	; 0x74
 80092d0:	4614      	mov	r4, r2
 80092d2:	4698      	mov	r8, r3
 80092d4:	4606      	mov	r6, r0
 80092d6:	b118      	cbz	r0, 80092e0 <_vfiprintf_r+0x18>
 80092d8:	6983      	ldr	r3, [r0, #24]
 80092da:	b90b      	cbnz	r3, 80092e0 <_vfiprintf_r+0x18>
 80092dc:	f000 fb16 	bl	800990c <__sinit>
 80092e0:	4b89      	ldr	r3, [pc, #548]	; (8009508 <_vfiprintf_r+0x240>)
 80092e2:	429d      	cmp	r5, r3
 80092e4:	d11b      	bne.n	800931e <_vfiprintf_r+0x56>
 80092e6:	6875      	ldr	r5, [r6, #4]
 80092e8:	6e6b      	ldr	r3, [r5, #100]	; 0x64
 80092ea:	07d9      	lsls	r1, r3, #31
 80092ec:	d405      	bmi.n	80092fa <_vfiprintf_r+0x32>
 80092ee:	89ab      	ldrh	r3, [r5, #12]
 80092f0:	059a      	lsls	r2, r3, #22
 80092f2:	d402      	bmi.n	80092fa <_vfiprintf_r+0x32>
 80092f4:	6da8      	ldr	r0, [r5, #88]	; 0x58
 80092f6:	f000 fba7 	bl	8009a48 <__retarget_lock_acquire_recursive>
 80092fa:	89ab      	ldrh	r3, [r5, #12]
 80092fc:	071b      	lsls	r3, r3, #28
 80092fe:	d501      	bpl.n	8009304 <_vfiprintf_r+0x3c>
 8009300:	692b      	ldr	r3, [r5, #16]
 8009302:	b9eb      	cbnz	r3, 8009340 <_vfiprintf_r+0x78>
 8009304:	4629      	mov	r1, r5
 8009306:	4630      	mov	r0, r6
 8009308:	f000 f970 	bl	80095ec <__swsetup_r>
 800930c:	b1c0      	cbz	r0, 8009340 <_vfiprintf_r+0x78>
 800930e:	6e6b      	ldr	r3, [r5, #100]	; 0x64
 8009310:	07dc      	lsls	r4, r3, #31
 8009312:	d50e      	bpl.n	8009332 <_vfiprintf_r+0x6a>
 8009314:	f04f 30ff 	mov.w	r0, #4294967295
 8009318:	b01d      	add	sp, #116	; 0x74
 800931a:	e8bd 8ff0 	ldmia.w	sp!, {r4, r5, r6, r7, r8, r9, sl, fp, pc}
 800931e:	4b7b      	ldr	r3, [pc, #492]	; (800950c <_vfiprintf_r+0x244>)
 8009320:	429d      	cmp	r5, r3
 8009322:	d101      	bne.n	8009328 <_vfiprintf_r+0x60>
 8009324:	68b5      	ldr	r5, [r6, #8]
 8009326:	e7df      	b.n	80092e8 <_vfiprintf_r+0x20>
 8009328:	4b79      	ldr	r3, [pc, #484]	; (8009510 <_vfiprintf_r+0x248>)
 800932a:	429d      	cmp	r5, r3
 800932c:	bf08      	it	eq
 800932e:	68f5      	ldreq	r5, [r6, #12]
 8009330:	e7da      	b.n	80092e8 <_vfiprintf_r+0x20>
 8009332:	89ab      	ldrh	r3, [r5, #12]
 8009334:	0598      	lsls	r0, r3, #22
 8009336:	d4ed      	bmi.n	8009314 <_vfiprintf_r+0x4c>
 8009338:	6da8      	ldr	r0, [r5, #88]	; 0x58
 800933a:	f000 fb86 	bl	8009a4a <__retarget_lock_release_recursive>
 800933e:	e7e9      	b.n	8009314 <_vfiprintf_r+0x4c>
 8009340:	2300      	movs	r3, #0
 8009342:	9309      	str	r3, [sp, #36]	; 0x24
 8009344:	2320      	movs	r3, #32
 8009346:	f88d 3029 	strb.w	r3, [sp, #41]	; 0x29
 800934a:	f8cd 800c 	str.w	r8, [sp, #12]
 800934e:	2330      	movs	r3, #48	; 0x30
 8009350:	f8df 81c0 	ldr.w	r8, [pc, #448]	; 8009514 <_vfiprintf_r+0x24c>
 8009354:	f88d 302a 	strb.w	r3, [sp, #42]	; 0x2a
 8009358:	f04f 0901 	mov.w	r9, #1
 800935c:	4623      	mov	r3, r4
 800935e:	469a      	mov	sl, r3
 8009360:	f813 2b01 	ldrb.w	r2, [r3], #1
 8009364:	b10a      	cbz	r2, 800936a <_vfiprintf_r+0xa2>
 8009366:	2a25      	cmp	r2, #37	; 0x25
 8009368:	d1f9      	bne.n	800935e <_vfiprintf_r+0x96>
 800936a:	ebba 0b04 	subs.w	fp, sl, r4
 800936e:	d00b      	beq.n	8009388 <_vfiprintf_r+0xc0>
 8009370:	465b      	mov	r3, fp
 8009372:	4622      	mov	r2, r4
 8009374:	4629      	mov	r1, r5
 8009376:	4630      	mov	r0, r6
 8009378:	f7ff ff93 	bl	80092a2 <__sfputs_r>
 800937c:	3001      	adds	r0, #1
 800937e:	f000 80aa 	beq.w	80094d6 <_vfiprintf_r+0x20e>
 8009382:	9a09      	ldr	r2, [sp, #36]	; 0x24
 8009384:	445a      	add	r2, fp
 8009386:	9209      	str	r2, [sp, #36]	; 0x24
 8009388:	f89a 3000 	ldrb.w	r3, [sl]
 800938c:	2b00      	cmp	r3, #0
 800938e:	f000 80a2 	beq.w	80094d6 <_vfiprintf_r+0x20e>
 8009392:	2300      	movs	r3, #0
 8009394:	f04f 32ff 	mov.w	r2, #4294967295
 8009398:	e9cd 2305 	strd	r2, r3, [sp, #20]
 800939c:	f10a 0a01 	add.w	sl, sl, #1
 80093a0:	9304      	str	r3, [sp, #16]
 80093a2:	9307      	str	r3, [sp, #28]
 80093a4:	f88d 3053 	strb.w	r3, [sp, #83]	; 0x53
 80093a8:	931a      	str	r3, [sp, #104]	; 0x68
 80093aa:	4654      	mov	r4, sl
 80093ac:	2205      	movs	r2, #5
 80093ae:	f814 1b01 	ldrb.w	r1, [r4], #1
 80093b2:	4858      	ldr	r0, [pc, #352]	; (8009514 <_vfiprintf_r+0x24c>)
 80093b4:	f7f6 ff14 	bl	80001e0 <memchr>
 80093b8:	9a04      	ldr	r2, [sp, #16]
 80093ba:	b9d8      	cbnz	r0, 80093f4 <_vfiprintf_r+0x12c>
 80093bc:	06d1      	lsls	r1, r2, #27
 80093be:	bf44      	itt	mi
 80093c0:	2320      	movmi	r3, #32
 80093c2:	f88d 3053 	strbmi.w	r3, [sp, #83]	; 0x53
 80093c6:	0713      	lsls	r3, r2, #28
 80093c8:	bf44      	itt	mi
 80093ca:	232b      	movmi	r3, #43	; 0x2b
 80093cc:	f88d 3053 	strbmi.w	r3, [sp, #83]	; 0x53
 80093d0:	f89a 3000 	ldrb.w	r3, [sl]
 80093d4:	2b2a      	cmp	r3, #42	; 0x2a
 80093d6:	d015      	beq.n	8009404 <_vfiprintf_r+0x13c>
 80093d8:	9a07      	ldr	r2, [sp, #28]
 80093da:	4654      	mov	r4, sl
 80093dc:	2000      	movs	r0, #0
 80093de:	f04f 0c0a 	mov.w	ip, #10
 80093e2:	4621      	mov	r1, r4
 80093e4:	f811 3b01 	ldrb.w	r3, [r1], #1
 80093e8:	3b30      	subs	r3, #48	; 0x30
 80093ea:	2b09      	cmp	r3, #9
 80093ec:	d94e      	bls.n	800948c <_vfiprintf_r+0x1c4>
 80093ee:	b1b0      	cbz	r0, 800941e <_vfiprintf_r+0x156>
 80093f0:	9207      	str	r2, [sp, #28]
 80093f2:	e014      	b.n	800941e <_vfiprintf_r+0x156>
 80093f4:	eba0 0308 	sub.w	r3, r0, r8
 80093f8:	fa09 f303 	lsl.w	r3, r9, r3
 80093fc:	4313      	orrs	r3, r2
 80093fe:	9304      	str	r3, [sp, #16]
 8009400:	46a2      	mov	sl, r4
 8009402:	e7d2      	b.n	80093aa <_vfiprintf_r+0xe2>
 8009404:	9b03      	ldr	r3, [sp, #12]
 8009406:	1d19      	adds	r1, r3, #4
 8009408:	681b      	ldr	r3, [r3, #0]
 800940a:	9103      	str	r1, [sp, #12]
 800940c:	2b00      	cmp	r3, #0
 800940e:	bfbb      	ittet	lt
 8009410:	425b      	neglt	r3, r3
 8009412:	f042 0202 	orrlt.w	r2, r2, #2
 8009416:	9307      	strge	r3, [sp, #28]
 8009418:	9307      	strlt	r3, [sp, #28]
 800941a:	bfb8      	it	lt
 800941c:	9204      	strlt	r2, [sp, #16]
 800941e:	7823      	ldrb	r3, [r4, #0]
 8009420:	2b2e      	cmp	r3, #46	; 0x2e
 8009422:	d10c      	bne.n	800943e <_vfiprintf_r+0x176>
 8009424:	7863      	ldrb	r3, [r4, #1]
 8009426:	2b2a      	cmp	r3, #42	; 0x2a
 8009428:	d135      	bne.n	8009496 <_vfiprintf_r+0x1ce>
 800942a:	9b03      	ldr	r3, [sp, #12]
 800942c:	1d1a      	adds	r2, r3, #4
 800942e:	681b      	ldr	r3, [r3, #0]
 8009430:	9203      	str	r2, [sp, #12]
 8009432:	2b00      	cmp	r3, #0
 8009434:	bfb8      	it	lt
 8009436:	f04f 33ff 	movlt.w	r3, #4294967295
 800943a:	3402      	adds	r4, #2
 800943c:	9305      	str	r3, [sp, #20]
 800943e:	f8df a0e4 	ldr.w	sl, [pc, #228]	; 8009524 <_vfiprintf_r+0x25c>
 8009442:	7821      	ldrb	r1, [r4, #0]
 8009444:	2203      	movs	r2, #3
 8009446:	4650      	mov	r0, sl
 8009448:	f7f6 feca 	bl	80001e0 <memchr>
 800944c:	b140      	cbz	r0, 8009460 <_vfiprintf_r+0x198>
 800944e:	2340      	movs	r3, #64	; 0x40
 8009450:	eba0 000a 	sub.w	r0, r0, sl
 8009454:	fa03 f000 	lsl.w	r0, r3, r0
 8009458:	9b04      	ldr	r3, [sp, #16]
 800945a:	4303      	orrs	r3, r0
 800945c:	3401      	adds	r4, #1
 800945e:	9304      	str	r3, [sp, #16]
 8009460:	f814 1b01 	ldrb.w	r1, [r4], #1
 8009464:	482c      	ldr	r0, [pc, #176]	; (8009518 <_vfiprintf_r+0x250>)
 8009466:	f88d 1028 	strb.w	r1, [sp, #40]	; 0x28
 800946a:	2206      	movs	r2, #6
 800946c:	f7f6 feb8 	bl	80001e0 <memchr>
 8009470:	2800      	cmp	r0, #0
 8009472:	d03f      	beq.n	80094f4 <_vfiprintf_r+0x22c>
 8009474:	4b29      	ldr	r3, [pc, #164]	; (800951c <_vfiprintf_r+0x254>)
 8009476:	bb1b      	cbnz	r3, 80094c0 <_vfiprintf_r+0x1f8>
 8009478:	9b03      	ldr	r3, [sp, #12]
 800947a:	3307      	adds	r3, #7
 800947c:	f023 0307 	bic.w	r3, r3, #7
 8009480:	3308      	adds	r3, #8
 8009482:	9303      	str	r3, [sp, #12]
 8009484:	9b09      	ldr	r3, [sp, #36]	; 0x24
 8009486:	443b      	add	r3, r7
 8009488:	9309      	str	r3, [sp, #36]	; 0x24
 800948a:	e767      	b.n	800935c <_vfiprintf_r+0x94>
 800948c:	fb0c 3202 	mla	r2, ip, r2, r3
 8009490:	460c      	mov	r4, r1
 8009492:	2001      	movs	r0, #1
 8009494:	e7a5      	b.n	80093e2 <_vfiprintf_r+0x11a>
 8009496:	2300      	movs	r3, #0
 8009498:	3401      	adds	r4, #1
 800949a:	9305      	str	r3, [sp, #20]
 800949c:	4619      	mov	r1, r3
 800949e:	f04f 0c0a 	mov.w	ip, #10
 80094a2:	4620      	mov	r0, r4
 80094a4:	f810 2b01 	ldrb.w	r2, [r0], #1
 80094a8:	3a30      	subs	r2, #48	; 0x30
 80094aa:	2a09      	cmp	r2, #9
 80094ac:	d903      	bls.n	80094b6 <_vfiprintf_r+0x1ee>
 80094ae:	2b00      	cmp	r3, #0
 80094b0:	d0c5      	beq.n	800943e <_vfiprintf_r+0x176>
 80094b2:	9105      	str	r1, [sp, #20]
 80094b4:	e7c3      	b.n	800943e <_vfiprintf_r+0x176>
 80094b6:	fb0c 2101 	mla	r1, ip, r1, r2
 80094ba:	4604      	mov	r4, r0
 80094bc:	2301      	movs	r3, #1
 80094be:	e7f0      	b.n	80094a2 <_vfiprintf_r+0x1da>
 80094c0:	ab03      	add	r3, sp, #12
 80094c2:	9300      	str	r3, [sp, #0]
 80094c4:	462a      	mov	r2, r5
 80094c6:	4b16      	ldr	r3, [pc, #88]	; (8009520 <_vfiprintf_r+0x258>)
 80094c8:	a904      	add	r1, sp, #16
 80094ca:	4630      	mov	r0, r6
 80094cc:	f7fd fd6c 	bl	8006fa8 <_printf_float>
 80094d0:	4607      	mov	r7, r0
 80094d2:	1c78      	adds	r0, r7, #1
 80094d4:	d1d6      	bne.n	8009484 <_vfiprintf_r+0x1bc>
 80094d6:	6e6b      	ldr	r3, [r5, #100]	; 0x64
 80094d8:	07d9      	lsls	r1, r3, #31
 80094da:	d405      	bmi.n	80094e8 <_vfiprintf_r+0x220>
 80094dc:	89ab      	ldrh	r3, [r5, #12]
 80094de:	059a      	lsls	r2, r3, #22
 80094e0:	d402      	bmi.n	80094e8 <_vfiprintf_r+0x220>
 80094e2:	6da8      	ldr	r0, [r5, #88]	; 0x58
 80094e4:	f000 fab1 	bl	8009a4a <__retarget_lock_release_recursive>
 80094e8:	89ab      	ldrh	r3, [r5, #12]
 80094ea:	065b      	lsls	r3, r3, #25
 80094ec:	f53f af12 	bmi.w	8009314 <_vfiprintf_r+0x4c>
 80094f0:	9809      	ldr	r0, [sp, #36]	; 0x24
 80094f2:	e711      	b.n	8009318 <_vfiprintf_r+0x50>
 80094f4:	ab03      	add	r3, sp, #12
 80094f6:	9300      	str	r3, [sp, #0]
 80094f8:	462a      	mov	r2, r5
 80094fa:	4b09      	ldr	r3, [pc, #36]	; (8009520 <_vfiprintf_r+0x258>)
 80094fc:	a904      	add	r1, sp, #16
 80094fe:	4630      	mov	r0, r6
 8009500:	f7fd fff6 	bl	80074f0 <_printf_i>
 8009504:	e7e4      	b.n	80094d0 <_vfiprintf_r+0x208>
 8009506:	bf00      	nop
 8009508:	0800adf0 	.word	0x0800adf0
 800950c:	0800ae10 	.word	0x0800ae10
 8009510:	0800add0 	.word	0x0800add0
 8009514:	0800adbc 	.word	0x0800adbc
 8009518:	0800adc6 	.word	0x0800adc6
 800951c:	08006fa9 	.word	0x08006fa9
 8009520:	080092a3 	.word	0x080092a3
 8009524:	0800adc2 	.word	0x0800adc2

08009528 <_sbrk_r>:
 8009528:	b538      	push	{r3, r4, r5, lr}
 800952a:	4d06      	ldr	r5, [pc, #24]	; (8009544 <_sbrk_r+0x1c>)
 800952c:	2300      	movs	r3, #0
 800952e:	4604      	mov	r4, r0
 8009530:	4608      	mov	r0, r1
 8009532:	602b      	str	r3, [r5, #0]
 8009534:	f7f9 fc32 	bl	8002d9c <_sbrk>
 8009538:	1c43      	adds	r3, r0, #1
 800953a:	d102      	bne.n	8009542 <_sbrk_r+0x1a>
 800953c:	682b      	ldr	r3, [r5, #0]
 800953e:	b103      	cbz	r3, 8009542 <_sbrk_r+0x1a>
 8009540:	6023      	str	r3, [r4, #0]
 8009542:	bd38      	pop	{r3, r4, r5, pc}
 8009544:	20005374 	.word	0x20005374

08009548 <__swbuf_r>:
 8009548:	b5f8      	push	{r3, r4, r5, r6, r7, lr}
 800954a:	460e      	mov	r6, r1
 800954c:	4614      	mov	r4, r2
 800954e:	4605      	mov	r5, r0
 8009550:	b118      	cbz	r0, 800955a <__swbuf_r+0x12>
 8009552:	6983      	ldr	r3, [r0, #24]
 8009554:	b90b      	cbnz	r3, 800955a <__swbuf_r+0x12>
 8009556:	f000 f9d9 	bl	800990c <__sinit>
 800955a:	4b21      	ldr	r3, [pc, #132]	; (80095e0 <__swbuf_r+0x98>)
 800955c:	429c      	cmp	r4, r3
 800955e:	d12b      	bne.n	80095b8 <__swbuf_r+0x70>
 8009560:	686c      	ldr	r4, [r5, #4]
 8009562:	69a3      	ldr	r3, [r4, #24]
 8009564:	60a3      	str	r3, [r4, #8]
 8009566:	89a3      	ldrh	r3, [r4, #12]
 8009568:	071a      	lsls	r2, r3, #28
 800956a:	d52f      	bpl.n	80095cc <__swbuf_r+0x84>
 800956c:	6923      	ldr	r3, [r4, #16]
 800956e:	b36b      	cbz	r3, 80095cc <__swbuf_r+0x84>
 8009570:	6923      	ldr	r3, [r4, #16]
 8009572:	6820      	ldr	r0, [r4, #0]
 8009574:	1ac0      	subs	r0, r0, r3
 8009576:	6963      	ldr	r3, [r4, #20]
 8009578:	b2f6      	uxtb	r6, r6
 800957a:	4283      	cmp	r3, r0
 800957c:	4637      	mov	r7, r6
 800957e:	dc04      	bgt.n	800958a <__swbuf_r+0x42>
 8009580:	4621      	mov	r1, r4
 8009582:	4628      	mov	r0, r5
 8009584:	f000 f92e 	bl	80097e4 <_fflush_r>
 8009588:	bb30      	cbnz	r0, 80095d8 <__swbuf_r+0x90>
 800958a:	68a3      	ldr	r3, [r4, #8]
 800958c:	3b01      	subs	r3, #1
 800958e:	60a3      	str	r3, [r4, #8]
 8009590:	6823      	ldr	r3, [r4, #0]
 8009592:	1c5a      	adds	r2, r3, #1
 8009594:	6022      	str	r2, [r4, #0]
 8009596:	701e      	strb	r6, [r3, #0]
 8009598:	6963      	ldr	r3, [r4, #20]
 800959a:	3001      	adds	r0, #1
 800959c:	4283      	cmp	r3, r0
 800959e:	d004      	beq.n	80095aa <__swbuf_r+0x62>
 80095a0:	89a3      	ldrh	r3, [r4, #12]
 80095a2:	07db      	lsls	r3, r3, #31
 80095a4:	d506      	bpl.n	80095b4 <__swbuf_r+0x6c>
 80095a6:	2e0a      	cmp	r6, #10
 80095a8:	d104      	bne.n	80095b4 <__swbuf_r+0x6c>
 80095aa:	4621      	mov	r1, r4
 80095ac:	4628      	mov	r0, r5
 80095ae:	f000 f919 	bl	80097e4 <_fflush_r>
 80095b2:	b988      	cbnz	r0, 80095d8 <__swbuf_r+0x90>
 80095b4:	4638      	mov	r0, r7
 80095b6:	bdf8      	pop	{r3, r4, r5, r6, r7, pc}
 80095b8:	4b0a      	ldr	r3, [pc, #40]	; (80095e4 <__swbuf_r+0x9c>)
 80095ba:	429c      	cmp	r4, r3
 80095bc:	d101      	bne.n	80095c2 <__swbuf_r+0x7a>
 80095be:	68ac      	ldr	r4, [r5, #8]
 80095c0:	e7cf      	b.n	8009562 <__swbuf_r+0x1a>
 80095c2:	4b09      	ldr	r3, [pc, #36]	; (80095e8 <__swbuf_r+0xa0>)
 80095c4:	429c      	cmp	r4, r3
 80095c6:	bf08      	it	eq
 80095c8:	68ec      	ldreq	r4, [r5, #12]
 80095ca:	e7ca      	b.n	8009562 <__swbuf_r+0x1a>
 80095cc:	4621      	mov	r1, r4
 80095ce:	4628      	mov	r0, r5
 80095d0:	f000 f80c 	bl	80095ec <__swsetup_r>
 80095d4:	2800      	cmp	r0, #0
 80095d6:	d0cb      	beq.n	8009570 <__swbuf_r+0x28>
 80095d8:	f04f 37ff 	mov.w	r7, #4294967295
 80095dc:	e7ea      	b.n	80095b4 <__swbuf_r+0x6c>
 80095de:	bf00      	nop
 80095e0:	0800adf0 	.word	0x0800adf0
 80095e4:	0800ae10 	.word	0x0800ae10
 80095e8:	0800add0 	.word	0x0800add0

080095ec <__swsetup_r>:
 80095ec:	4b32      	ldr	r3, [pc, #200]	; (80096b8 <__swsetup_r+0xcc>)
 80095ee:	b570      	push	{r4, r5, r6, lr}
 80095f0:	681d      	ldr	r5, [r3, #0]
 80095f2:	4606      	mov	r6, r0
 80095f4:	460c      	mov	r4, r1
 80095f6:	b125      	cbz	r5, 8009602 <__swsetup_r+0x16>
 80095f8:	69ab      	ldr	r3, [r5, #24]
 80095fa:	b913      	cbnz	r3, 8009602 <__swsetup_r+0x16>
 80095fc:	4628      	mov	r0, r5
 80095fe:	f000 f985 	bl	800990c <__sinit>
 8009602:	4b2e      	ldr	r3, [pc, #184]	; (80096bc <__swsetup_r+0xd0>)
 8009604:	429c      	cmp	r4, r3
 8009606:	d10f      	bne.n	8009628 <__swsetup_r+0x3c>
 8009608:	686c      	ldr	r4, [r5, #4]
 800960a:	89a3      	ldrh	r3, [r4, #12]
 800960c:	f9b4 200c 	ldrsh.w	r2, [r4, #12]
 8009610:	0719      	lsls	r1, r3, #28
 8009612:	d42c      	bmi.n	800966e <__swsetup_r+0x82>
 8009614:	06dd      	lsls	r5, r3, #27
 8009616:	d411      	bmi.n	800963c <__swsetup_r+0x50>
 8009618:	2309      	movs	r3, #9
 800961a:	6033      	str	r3, [r6, #0]
 800961c:	f042 0340 	orr.w	r3, r2, #64	; 0x40
 8009620:	81a3      	strh	r3, [r4, #12]
 8009622:	f04f 30ff 	mov.w	r0, #4294967295
 8009626:	e03e      	b.n	80096a6 <__swsetup_r+0xba>
 8009628:	4b25      	ldr	r3, [pc, #148]	; (80096c0 <__swsetup_r+0xd4>)
 800962a:	429c      	cmp	r4, r3
 800962c:	d101      	bne.n	8009632 <__swsetup_r+0x46>
 800962e:	68ac      	ldr	r4, [r5, #8]
 8009630:	e7eb      	b.n	800960a <__swsetup_r+0x1e>
 8009632:	4b24      	ldr	r3, [pc, #144]	; (80096c4 <__swsetup_r+0xd8>)
 8009634:	429c      	cmp	r4, r3
 8009636:	bf08      	it	eq
 8009638:	68ec      	ldreq	r4, [r5, #12]
 800963a:	e7e6      	b.n	800960a <__swsetup_r+0x1e>
 800963c:	0758      	lsls	r0, r3, #29
 800963e:	d512      	bpl.n	8009666 <__swsetup_r+0x7a>
 8009640:	6b61      	ldr	r1, [r4, #52]	; 0x34
 8009642:	b141      	cbz	r1, 8009656 <__swsetup_r+0x6a>
 8009644:	f104 0344 	add.w	r3, r4, #68	; 0x44
 8009648:	4299      	cmp	r1, r3
 800964a:	d002      	beq.n	8009652 <__swsetup_r+0x66>
 800964c:	4630      	mov	r0, r6
 800964e:	f7ff fbd5 	bl	8008dfc <_free_r>
 8009652:	2300      	movs	r3, #0
 8009654:	6363      	str	r3, [r4, #52]	; 0x34
 8009656:	89a3      	ldrh	r3, [r4, #12]
 8009658:	f023 0324 	bic.w	r3, r3, #36	; 0x24
 800965c:	81a3      	strh	r3, [r4, #12]
 800965e:	2300      	movs	r3, #0
 8009660:	6063      	str	r3, [r4, #4]
 8009662:	6923      	ldr	r3, [r4, #16]
 8009664:	6023      	str	r3, [r4, #0]
 8009666:	89a3      	ldrh	r3, [r4, #12]
 8009668:	f043 0308 	orr.w	r3, r3, #8
 800966c:	81a3      	strh	r3, [r4, #12]
 800966e:	6923      	ldr	r3, [r4, #16]
 8009670:	b94b      	cbnz	r3, 8009686 <__swsetup_r+0x9a>
 8009672:	89a3      	ldrh	r3, [r4, #12]
 8009674:	f403 7320 	and.w	r3, r3, #640	; 0x280
 8009678:	f5b3 7f00 	cmp.w	r3, #512	; 0x200
 800967c:	d003      	beq.n	8009686 <__swsetup_r+0x9a>
 800967e:	4621      	mov	r1, r4
 8009680:	4630      	mov	r0, r6
 8009682:	f000 fa09 	bl	8009a98 <__smakebuf_r>
 8009686:	89a0      	ldrh	r0, [r4, #12]
 8009688:	f9b4 200c 	ldrsh.w	r2, [r4, #12]
 800968c:	f010 0301 	ands.w	r3, r0, #1
 8009690:	d00a      	beq.n	80096a8 <__swsetup_r+0xbc>
 8009692:	2300      	movs	r3, #0
 8009694:	60a3      	str	r3, [r4, #8]
 8009696:	6963      	ldr	r3, [r4, #20]
 8009698:	425b      	negs	r3, r3
 800969a:	61a3      	str	r3, [r4, #24]
 800969c:	6923      	ldr	r3, [r4, #16]
 800969e:	b943      	cbnz	r3, 80096b2 <__swsetup_r+0xc6>
 80096a0:	f010 0080 	ands.w	r0, r0, #128	; 0x80
 80096a4:	d1ba      	bne.n	800961c <__swsetup_r+0x30>
 80096a6:	bd70      	pop	{r4, r5, r6, pc}
 80096a8:	0781      	lsls	r1, r0, #30
 80096aa:	bf58      	it	pl
 80096ac:	6963      	ldrpl	r3, [r4, #20]
 80096ae:	60a3      	str	r3, [r4, #8]
 80096b0:	e7f4      	b.n	800969c <__swsetup_r+0xb0>
 80096b2:	2000      	movs	r0, #0
 80096b4:	e7f7      	b.n	80096a6 <__swsetup_r+0xba>
 80096b6:	bf00      	nop
 80096b8:	2000003c 	.word	0x2000003c
 80096bc:	0800adf0 	.word	0x0800adf0
 80096c0:	0800ae10 	.word	0x0800ae10
 80096c4:	0800add0 	.word	0x0800add0

080096c8 <abort>:
 80096c8:	b508      	push	{r3, lr}
 80096ca:	2006      	movs	r0, #6
 80096cc:	f000 fab4 	bl	8009c38 <raise>
 80096d0:	2001      	movs	r0, #1
 80096d2:	f7f9 fb35 	bl	8002d40 <_exit>
	...

080096d8 <__sflush_r>:
 80096d8:	898a      	ldrh	r2, [r1, #12]
 80096da:	e92d 41f0 	stmdb	sp!, {r4, r5, r6, r7, r8, lr}
 80096de:	4605      	mov	r5, r0
 80096e0:	0710      	lsls	r0, r2, #28
 80096e2:	460c      	mov	r4, r1
 80096e4:	d458      	bmi.n	8009798 <__sflush_r+0xc0>
 80096e6:	684b      	ldr	r3, [r1, #4]
 80096e8:	2b00      	cmp	r3, #0
 80096ea:	dc05      	bgt.n	80096f8 <__sflush_r+0x20>
 80096ec:	6c0b      	ldr	r3, [r1, #64]	; 0x40
 80096ee:	2b00      	cmp	r3, #0
 80096f0:	dc02      	bgt.n	80096f8 <__sflush_r+0x20>
 80096f2:	2000      	movs	r0, #0
 80096f4:	e8bd 81f0 	ldmia.w	sp!, {r4, r5, r6, r7, r8, pc}
 80096f8:	6ae6      	ldr	r6, [r4, #44]	; 0x2c
 80096fa:	2e00      	cmp	r6, #0
 80096fc:	d0f9      	beq.n	80096f2 <__sflush_r+0x1a>
 80096fe:	2300      	movs	r3, #0
 8009700:	f412 5280 	ands.w	r2, r2, #4096	; 0x1000
 8009704:	682f      	ldr	r7, [r5, #0]
 8009706:	602b      	str	r3, [r5, #0]
 8009708:	d032      	beq.n	8009770 <__sflush_r+0x98>
 800970a:	6d60      	ldr	r0, [r4, #84]	; 0x54
 800970c:	89a3      	ldrh	r3, [r4, #12]
 800970e:	075a      	lsls	r2, r3, #29
 8009710:	d505      	bpl.n	800971e <__sflush_r+0x46>
 8009712:	6863      	ldr	r3, [r4, #4]
 8009714:	1ac0      	subs	r0, r0, r3
 8009716:	6b63      	ldr	r3, [r4, #52]	; 0x34
 8009718:	b10b      	cbz	r3, 800971e <__sflush_r+0x46>
 800971a:	6c23      	ldr	r3, [r4, #64]	; 0x40
 800971c:	1ac0      	subs	r0, r0, r3
 800971e:	2300      	movs	r3, #0
 8009720:	4602      	mov	r2, r0
 8009722:	6ae6      	ldr	r6, [r4, #44]	; 0x2c
 8009724:	6a21      	ldr	r1, [r4, #32]
 8009726:	4628      	mov	r0, r5
 8009728:	47b0      	blx	r6
 800972a:	1c43      	adds	r3, r0, #1
 800972c:	89a3      	ldrh	r3, [r4, #12]
 800972e:	d106      	bne.n	800973e <__sflush_r+0x66>
 8009730:	6829      	ldr	r1, [r5, #0]
 8009732:	291d      	cmp	r1, #29
 8009734:	d82c      	bhi.n	8009790 <__sflush_r+0xb8>
 8009736:	4a2a      	ldr	r2, [pc, #168]	; (80097e0 <__sflush_r+0x108>)
 8009738:	40ca      	lsrs	r2, r1
 800973a:	07d6      	lsls	r6, r2, #31
 800973c:	d528      	bpl.n	8009790 <__sflush_r+0xb8>
 800973e:	2200      	movs	r2, #0
 8009740:	6062      	str	r2, [r4, #4]
 8009742:	04d9      	lsls	r1, r3, #19
 8009744:	6922      	ldr	r2, [r4, #16]
 8009746:	6022      	str	r2, [r4, #0]
 8009748:	d504      	bpl.n	8009754 <__sflush_r+0x7c>
 800974a:	1c42      	adds	r2, r0, #1
 800974c:	d101      	bne.n	8009752 <__sflush_r+0x7a>
 800974e:	682b      	ldr	r3, [r5, #0]
 8009750:	b903      	cbnz	r3, 8009754 <__sflush_r+0x7c>
 8009752:	6560      	str	r0, [r4, #84]	; 0x54
 8009754:	6b61      	ldr	r1, [r4, #52]	; 0x34
 8009756:	602f      	str	r7, [r5, #0]
 8009758:	2900      	cmp	r1, #0
 800975a:	d0ca      	beq.n	80096f2 <__sflush_r+0x1a>
 800975c:	f104 0344 	add.w	r3, r4, #68	; 0x44
 8009760:	4299      	cmp	r1, r3
 8009762:	d002      	beq.n	800976a <__sflush_r+0x92>
 8009764:	4628      	mov	r0, r5
 8009766:	f7ff fb49 	bl	8008dfc <_free_r>
 800976a:	2000      	movs	r0, #0
 800976c:	6360      	str	r0, [r4, #52]	; 0x34
 800976e:	e7c1      	b.n	80096f4 <__sflush_r+0x1c>
 8009770:	6a21      	ldr	r1, [r4, #32]
 8009772:	2301      	movs	r3, #1
 8009774:	4628      	mov	r0, r5
 8009776:	47b0      	blx	r6
 8009778:	1c41      	adds	r1, r0, #1
 800977a:	d1c7      	bne.n	800970c <__sflush_r+0x34>
 800977c:	682b      	ldr	r3, [r5, #0]
 800977e:	2b00      	cmp	r3, #0
 8009780:	d0c4      	beq.n	800970c <__sflush_r+0x34>
 8009782:	2b1d      	cmp	r3, #29
 8009784:	d001      	beq.n	800978a <__sflush_r+0xb2>
 8009786:	2b16      	cmp	r3, #22
 8009788:	d101      	bne.n	800978e <__sflush_r+0xb6>
 800978a:	602f      	str	r7, [r5, #0]
 800978c:	e7b1      	b.n	80096f2 <__sflush_r+0x1a>
 800978e:	89a3      	ldrh	r3, [r4, #12]
 8009790:	f043 0340 	orr.w	r3, r3, #64	; 0x40
 8009794:	81a3      	strh	r3, [r4, #12]
 8009796:	e7ad      	b.n	80096f4 <__sflush_r+0x1c>
 8009798:	690f      	ldr	r7, [r1, #16]
 800979a:	2f00      	cmp	r7, #0
 800979c:	d0a9      	beq.n	80096f2 <__sflush_r+0x1a>
 800979e:	0793      	lsls	r3, r2, #30
 80097a0:	680e      	ldr	r6, [r1, #0]
 80097a2:	bf08      	it	eq
 80097a4:	694b      	ldreq	r3, [r1, #20]
 80097a6:	600f      	str	r7, [r1, #0]
 80097a8:	bf18      	it	ne
 80097aa:	2300      	movne	r3, #0
 80097ac:	eba6 0807 	sub.w	r8, r6, r7
 80097b0:	608b      	str	r3, [r1, #8]
 80097b2:	f1b8 0f00 	cmp.w	r8, #0
 80097b6:	dd9c      	ble.n	80096f2 <__sflush_r+0x1a>
 80097b8:	6a21      	ldr	r1, [r4, #32]
 80097ba:	6aa6      	ldr	r6, [r4, #40]	; 0x28
 80097bc:	4643      	mov	r3, r8
 80097be:	463a      	mov	r2, r7
 80097c0:	4628      	mov	r0, r5
 80097c2:	47b0      	blx	r6
 80097c4:	2800      	cmp	r0, #0
 80097c6:	dc06      	bgt.n	80097d6 <__sflush_r+0xfe>
 80097c8:	89a3      	ldrh	r3, [r4, #12]
 80097ca:	f043 0340 	orr.w	r3, r3, #64	; 0x40
 80097ce:	81a3      	strh	r3, [r4, #12]
 80097d0:	f04f 30ff 	mov.w	r0, #4294967295
 80097d4:	e78e      	b.n	80096f4 <__sflush_r+0x1c>
 80097d6:	4407      	add	r7, r0
 80097d8:	eba8 0800 	sub.w	r8, r8, r0
 80097dc:	e7e9      	b.n	80097b2 <__sflush_r+0xda>
 80097de:	bf00      	nop
 80097e0:	20400001 	.word	0x20400001

080097e4 <_fflush_r>:
 80097e4:	b538      	push	{r3, r4, r5, lr}
 80097e6:	690b      	ldr	r3, [r1, #16]
 80097e8:	4605      	mov	r5, r0
 80097ea:	460c      	mov	r4, r1
 80097ec:	b913      	cbnz	r3, 80097f4 <_fflush_r+0x10>
 80097ee:	2500      	movs	r5, #0
 80097f0:	4628      	mov	r0, r5
 80097f2:	bd38      	pop	{r3, r4, r5, pc}
 80097f4:	b118      	cbz	r0, 80097fe <_fflush_r+0x1a>
 80097f6:	6983      	ldr	r3, [r0, #24]
 80097f8:	b90b      	cbnz	r3, 80097fe <_fflush_r+0x1a>
 80097fa:	f000 f887 	bl	800990c <__sinit>
 80097fe:	4b14      	ldr	r3, [pc, #80]	; (8009850 <_fflush_r+0x6c>)
 8009800:	429c      	cmp	r4, r3
 8009802:	d11b      	bne.n	800983c <_fflush_r+0x58>
 8009804:	686c      	ldr	r4, [r5, #4]
 8009806:	f9b4 300c 	ldrsh.w	r3, [r4, #12]
 800980a:	2b00      	cmp	r3, #0
 800980c:	d0ef      	beq.n	80097ee <_fflush_r+0xa>
 800980e:	6e62      	ldr	r2, [r4, #100]	; 0x64
 8009810:	07d0      	lsls	r0, r2, #31
 8009812:	d404      	bmi.n	800981e <_fflush_r+0x3a>
 8009814:	0599      	lsls	r1, r3, #22
 8009816:	d402      	bmi.n	800981e <_fflush_r+0x3a>
 8009818:	6da0      	ldr	r0, [r4, #88]	; 0x58
 800981a:	f000 f915 	bl	8009a48 <__retarget_lock_acquire_recursive>
 800981e:	4628      	mov	r0, r5
 8009820:	4621      	mov	r1, r4
 8009822:	f7ff ff59 	bl	80096d8 <__sflush_r>
 8009826:	6e63      	ldr	r3, [r4, #100]	; 0x64
 8009828:	07da      	lsls	r2, r3, #31
 800982a:	4605      	mov	r5, r0
 800982c:	d4e0      	bmi.n	80097f0 <_fflush_r+0xc>
 800982e:	89a3      	ldrh	r3, [r4, #12]
 8009830:	059b      	lsls	r3, r3, #22
 8009832:	d4dd      	bmi.n	80097f0 <_fflush_r+0xc>
 8009834:	6da0      	ldr	r0, [r4, #88]	; 0x58
 8009836:	f000 f908 	bl	8009a4a <__retarget_lock_release_recursive>
 800983a:	e7d9      	b.n	80097f0 <_fflush_r+0xc>
 800983c:	4b05      	ldr	r3, [pc, #20]	; (8009854 <_fflush_r+0x70>)
 800983e:	429c      	cmp	r4, r3
 8009840:	d101      	bne.n	8009846 <_fflush_r+0x62>
 8009842:	68ac      	ldr	r4, [r5, #8]
 8009844:	e7df      	b.n	8009806 <_fflush_r+0x22>
 8009846:	4b04      	ldr	r3, [pc, #16]	; (8009858 <_fflush_r+0x74>)
 8009848:	429c      	cmp	r4, r3
 800984a:	bf08      	it	eq
 800984c:	68ec      	ldreq	r4, [r5, #12]
 800984e:	e7da      	b.n	8009806 <_fflush_r+0x22>
 8009850:	0800adf0 	.word	0x0800adf0
 8009854:	0800ae10 	.word	0x0800ae10
 8009858:	0800add0 	.word	0x0800add0

0800985c <std>:
 800985c:	2300      	movs	r3, #0
 800985e:	b510      	push	{r4, lr}
 8009860:	4604      	mov	r4, r0
 8009862:	e9c0 3300 	strd	r3, r3, [r0]
 8009866:	e9c0 3304 	strd	r3, r3, [r0, #16]
 800986a:	6083      	str	r3, [r0, #8]
 800986c:	8181      	strh	r1, [r0, #12]
 800986e:	6643      	str	r3, [r0, #100]	; 0x64
 8009870:	81c2      	strh	r2, [r0, #14]
 8009872:	6183      	str	r3, [r0, #24]
 8009874:	4619      	mov	r1, r3
 8009876:	2208      	movs	r2, #8
 8009878:	305c      	adds	r0, #92	; 0x5c
 800987a:	f7fd faed 	bl	8006e58 <memset>
 800987e:	4b05      	ldr	r3, [pc, #20]	; (8009894 <std+0x38>)
 8009880:	6263      	str	r3, [r4, #36]	; 0x24
 8009882:	4b05      	ldr	r3, [pc, #20]	; (8009898 <std+0x3c>)
 8009884:	62a3      	str	r3, [r4, #40]	; 0x28
 8009886:	4b05      	ldr	r3, [pc, #20]	; (800989c <std+0x40>)
 8009888:	62e3      	str	r3, [r4, #44]	; 0x2c
 800988a:	4b05      	ldr	r3, [pc, #20]	; (80098a0 <std+0x44>)
 800988c:	6224      	str	r4, [r4, #32]
 800988e:	6323      	str	r3, [r4, #48]	; 0x30
 8009890:	bd10      	pop	{r4, pc}
 8009892:	bf00      	nop
 8009894:	08009c71 	.word	0x08009c71
 8009898:	08009c93 	.word	0x08009c93
 800989c:	08009ccb 	.word	0x08009ccb
 80098a0:	08009cef 	.word	0x08009cef

080098a4 <_cleanup_r>:
 80098a4:	4901      	ldr	r1, [pc, #4]	; (80098ac <_cleanup_r+0x8>)
 80098a6:	f000 b8af 	b.w	8009a08 <_fwalk_reent>
 80098aa:	bf00      	nop
 80098ac:	080097e5 	.word	0x080097e5

080098b0 <__sfmoreglue>:
 80098b0:	b570      	push	{r4, r5, r6, lr}
 80098b2:	2268      	movs	r2, #104	; 0x68
 80098b4:	1e4d      	subs	r5, r1, #1
 80098b6:	4355      	muls	r5, r2
 80098b8:	460e      	mov	r6, r1
 80098ba:	f105 0174 	add.w	r1, r5, #116	; 0x74
 80098be:	f7ff fb09 	bl	8008ed4 <_malloc_r>
 80098c2:	4604      	mov	r4, r0
 80098c4:	b140      	cbz	r0, 80098d8 <__sfmoreglue+0x28>
 80098c6:	2100      	movs	r1, #0
 80098c8:	e9c0 1600 	strd	r1, r6, [r0]
 80098cc:	300c      	adds	r0, #12
 80098ce:	60a0      	str	r0, [r4, #8]
 80098d0:	f105 0268 	add.w	r2, r5, #104	; 0x68
 80098d4:	f7fd fac0 	bl	8006e58 <memset>
 80098d8:	4620      	mov	r0, r4
 80098da:	bd70      	pop	{r4, r5, r6, pc}

080098dc <__sfp_lock_acquire>:
 80098dc:	4801      	ldr	r0, [pc, #4]	; (80098e4 <__sfp_lock_acquire+0x8>)
 80098de:	f000 b8b3 	b.w	8009a48 <__retarget_lock_acquire_recursive>
 80098e2:	bf00      	nop
 80098e4:	20005371 	.word	0x20005371

080098e8 <__sfp_lock_release>:
 80098e8:	4801      	ldr	r0, [pc, #4]	; (80098f0 <__sfp_lock_release+0x8>)
 80098ea:	f000 b8ae 	b.w	8009a4a <__retarget_lock_release_recursive>
 80098ee:	bf00      	nop
 80098f0:	20005371 	.word	0x20005371

080098f4 <__sinit_lock_acquire>:
 80098f4:	4801      	ldr	r0, [pc, #4]	; (80098fc <__sinit_lock_acquire+0x8>)
 80098f6:	f000 b8a7 	b.w	8009a48 <__retarget_lock_acquire_recursive>
 80098fa:	bf00      	nop
 80098fc:	20005372 	.word	0x20005372

08009900 <__sinit_lock_release>:
 8009900:	4801      	ldr	r0, [pc, #4]	; (8009908 <__sinit_lock_release+0x8>)
 8009902:	f000 b8a2 	b.w	8009a4a <__retarget_lock_release_recursive>
 8009906:	bf00      	nop
 8009908:	20005372 	.word	0x20005372

0800990c <__sinit>:
 800990c:	b510      	push	{r4, lr}
 800990e:	4604      	mov	r4, r0
 8009910:	f7ff fff0 	bl	80098f4 <__sinit_lock_acquire>
 8009914:	69a3      	ldr	r3, [r4, #24]
 8009916:	b11b      	cbz	r3, 8009920 <__sinit+0x14>
 8009918:	e8bd 4010 	ldmia.w	sp!, {r4, lr}
 800991c:	f7ff bff0 	b.w	8009900 <__sinit_lock_release>
 8009920:	e9c4 3312 	strd	r3, r3, [r4, #72]	; 0x48
 8009924:	6523      	str	r3, [r4, #80]	; 0x50
 8009926:	4b13      	ldr	r3, [pc, #76]	; (8009974 <__sinit+0x68>)
 8009928:	4a13      	ldr	r2, [pc, #76]	; (8009978 <__sinit+0x6c>)
 800992a:	681b      	ldr	r3, [r3, #0]
 800992c:	62a2      	str	r2, [r4, #40]	; 0x28
 800992e:	42a3      	cmp	r3, r4
 8009930:	bf04      	itt	eq
 8009932:	2301      	moveq	r3, #1
 8009934:	61a3      	streq	r3, [r4, #24]
 8009936:	4620      	mov	r0, r4
 8009938:	f000 f820 	bl	800997c <__sfp>
 800993c:	6060      	str	r0, [r4, #4]
 800993e:	4620      	mov	r0, r4
 8009940:	f000 f81c 	bl	800997c <__sfp>
 8009944:	60a0      	str	r0, [r4, #8]
 8009946:	4620      	mov	r0, r4
 8009948:	f000 f818 	bl	800997c <__sfp>
 800994c:	2200      	movs	r2, #0
 800994e:	60e0      	str	r0, [r4, #12]
 8009950:	2104      	movs	r1, #4
 8009952:	6860      	ldr	r0, [r4, #4]
 8009954:	f7ff ff82 	bl	800985c <std>
 8009958:	68a0      	ldr	r0, [r4, #8]
 800995a:	2201      	movs	r2, #1
 800995c:	2109      	movs	r1, #9
 800995e:	f7ff ff7d 	bl	800985c <std>
 8009962:	68e0      	ldr	r0, [r4, #12]
 8009964:	2202      	movs	r2, #2
 8009966:	2112      	movs	r1, #18
 8009968:	f7ff ff78 	bl	800985c <std>
 800996c:	2301      	movs	r3, #1
 800996e:	61a3      	str	r3, [r4, #24]
 8009970:	e7d2      	b.n	8009918 <__sinit+0xc>
 8009972:	bf00      	nop
 8009974:	0800aa00 	.word	0x0800aa00
 8009978:	080098a5 	.word	0x080098a5

0800997c <__sfp>:
 800997c:	b5f8      	push	{r3, r4, r5, r6, r7, lr}
 800997e:	4607      	mov	r7, r0
 8009980:	f7ff ffac 	bl	80098dc <__sfp_lock_acquire>
 8009984:	4b1e      	ldr	r3, [pc, #120]	; (8009a00 <__sfp+0x84>)
 8009986:	681e      	ldr	r6, [r3, #0]
 8009988:	69b3      	ldr	r3, [r6, #24]
 800998a:	b913      	cbnz	r3, 8009992 <__sfp+0x16>
 800998c:	4630      	mov	r0, r6
 800998e:	f7ff ffbd 	bl	800990c <__sinit>
 8009992:	3648      	adds	r6, #72	; 0x48
 8009994:	e9d6 3401 	ldrd	r3, r4, [r6, #4]
 8009998:	3b01      	subs	r3, #1
 800999a:	d503      	bpl.n	80099a4 <__sfp+0x28>
 800999c:	6833      	ldr	r3, [r6, #0]
 800999e:	b30b      	cbz	r3, 80099e4 <__sfp+0x68>
 80099a0:	6836      	ldr	r6, [r6, #0]
 80099a2:	e7f7      	b.n	8009994 <__sfp+0x18>
 80099a4:	f9b4 500c 	ldrsh.w	r5, [r4, #12]
 80099a8:	b9d5      	cbnz	r5, 80099e0 <__sfp+0x64>
 80099aa:	4b16      	ldr	r3, [pc, #88]	; (8009a04 <__sfp+0x88>)
 80099ac:	60e3      	str	r3, [r4, #12]
 80099ae:	f104 0058 	add.w	r0, r4, #88	; 0x58
 80099b2:	6665      	str	r5, [r4, #100]	; 0x64
 80099b4:	f000 f847 	bl	8009a46 <__retarget_lock_init_recursive>
 80099b8:	f7ff ff96 	bl	80098e8 <__sfp_lock_release>
 80099bc:	e9c4 5501 	strd	r5, r5, [r4, #4]
 80099c0:	e9c4 5504 	strd	r5, r5, [r4, #16]
 80099c4:	6025      	str	r5, [r4, #0]
 80099c6:	61a5      	str	r5, [r4, #24]
 80099c8:	2208      	movs	r2, #8
 80099ca:	4629      	mov	r1, r5
 80099cc:	f104 005c 	add.w	r0, r4, #92	; 0x5c
 80099d0:	f7fd fa42 	bl	8006e58 <memset>
 80099d4:	e9c4 550d 	strd	r5, r5, [r4, #52]	; 0x34
 80099d8:	e9c4 5512 	strd	r5, r5, [r4, #72]	; 0x48
 80099dc:	4620      	mov	r0, r4
 80099de:	bdf8      	pop	{r3, r4, r5, r6, r7, pc}
 80099e0:	3468      	adds	r4, #104	; 0x68
 80099e2:	e7d9      	b.n	8009998 <__sfp+0x1c>
 80099e4:	2104      	movs	r1, #4
 80099e6:	4638      	mov	r0, r7
 80099e8:	f7ff ff62 	bl	80098b0 <__sfmoreglue>
 80099ec:	4604      	mov	r4, r0
 80099ee:	6030      	str	r0, [r6, #0]
 80099f0:	2800      	cmp	r0, #0
 80099f2:	d1d5      	bne.n	80099a0 <__sfp+0x24>
 80099f4:	f7ff ff78 	bl	80098e8 <__sfp_lock_release>
 80099f8:	230c      	movs	r3, #12
 80099fa:	603b      	str	r3, [r7, #0]
 80099fc:	e7ee      	b.n	80099dc <__sfp+0x60>
 80099fe:	bf00      	nop
 8009a00:	0800aa00 	.word	0x0800aa00
 8009a04:	ffff0001 	.word	0xffff0001

08009a08 <_fwalk_reent>:
 8009a08:	e92d 43f8 	stmdb	sp!, {r3, r4, r5, r6, r7, r8, r9, lr}
 8009a0c:	4606      	mov	r6, r0
 8009a0e:	4688      	mov	r8, r1
 8009a10:	f100 0448 	add.w	r4, r0, #72	; 0x48
 8009a14:	2700      	movs	r7, #0
 8009a16:	e9d4 9501 	ldrd	r9, r5, [r4, #4]
 8009a1a:	f1b9 0901 	subs.w	r9, r9, #1
 8009a1e:	d505      	bpl.n	8009a2c <_fwalk_reent+0x24>
 8009a20:	6824      	ldr	r4, [r4, #0]
 8009a22:	2c00      	cmp	r4, #0
 8009a24:	d1f7      	bne.n	8009a16 <_fwalk_reent+0xe>
 8009a26:	4638      	mov	r0, r7
 8009a28:	e8bd 83f8 	ldmia.w	sp!, {r3, r4, r5, r6, r7, r8, r9, pc}
 8009a2c:	89ab      	ldrh	r3, [r5, #12]
 8009a2e:	2b01      	cmp	r3, #1
 8009a30:	d907      	bls.n	8009a42 <_fwalk_reent+0x3a>
 8009a32:	f9b5 300e 	ldrsh.w	r3, [r5, #14]
 8009a36:	3301      	adds	r3, #1
 8009a38:	d003      	beq.n	8009a42 <_fwalk_reent+0x3a>
 8009a3a:	4629      	mov	r1, r5
 8009a3c:	4630      	mov	r0, r6
 8009a3e:	47c0      	blx	r8
 8009a40:	4307      	orrs	r7, r0
 8009a42:	3568      	adds	r5, #104	; 0x68
 8009a44:	e7e9      	b.n	8009a1a <_fwalk_reent+0x12>

08009a46 <__retarget_lock_init_recursive>:
 8009a46:	4770      	bx	lr

08009a48 <__retarget_lock_acquire_recursive>:
 8009a48:	4770      	bx	lr

08009a4a <__retarget_lock_release_recursive>:
 8009a4a:	4770      	bx	lr

08009a4c <__swhatbuf_r>:
 8009a4c:	b570      	push	{r4, r5, r6, lr}
 8009a4e:	460e      	mov	r6, r1
 8009a50:	f9b1 100e 	ldrsh.w	r1, [r1, #14]
 8009a54:	2900      	cmp	r1, #0
 8009a56:	b096      	sub	sp, #88	; 0x58
 8009a58:	4614      	mov	r4, r2
 8009a5a:	461d      	mov	r5, r3
 8009a5c:	da08      	bge.n	8009a70 <__swhatbuf_r+0x24>
 8009a5e:	f9b6 300c 	ldrsh.w	r3, [r6, #12]
 8009a62:	2200      	movs	r2, #0
 8009a64:	602a      	str	r2, [r5, #0]
 8009a66:	061a      	lsls	r2, r3, #24
 8009a68:	d410      	bmi.n	8009a8c <__swhatbuf_r+0x40>
 8009a6a:	f44f 6380 	mov.w	r3, #1024	; 0x400
 8009a6e:	e00e      	b.n	8009a8e <__swhatbuf_r+0x42>
 8009a70:	466a      	mov	r2, sp
 8009a72:	f000 f96f 	bl	8009d54 <_fstat_r>
 8009a76:	2800      	cmp	r0, #0
 8009a78:	dbf1      	blt.n	8009a5e <__swhatbuf_r+0x12>
 8009a7a:	9a01      	ldr	r2, [sp, #4]
 8009a7c:	f402 4270 	and.w	r2, r2, #61440	; 0xf000
 8009a80:	f5a2 5300 	sub.w	r3, r2, #8192	; 0x2000
 8009a84:	425a      	negs	r2, r3
 8009a86:	415a      	adcs	r2, r3
 8009a88:	602a      	str	r2, [r5, #0]
 8009a8a:	e7ee      	b.n	8009a6a <__swhatbuf_r+0x1e>
 8009a8c:	2340      	movs	r3, #64	; 0x40
 8009a8e:	2000      	movs	r0, #0
 8009a90:	6023      	str	r3, [r4, #0]
 8009a92:	b016      	add	sp, #88	; 0x58
 8009a94:	bd70      	pop	{r4, r5, r6, pc}
	...

08009a98 <__smakebuf_r>:
 8009a98:	898b      	ldrh	r3, [r1, #12]
 8009a9a:	b573      	push	{r0, r1, r4, r5, r6, lr}
 8009a9c:	079d      	lsls	r5, r3, #30
 8009a9e:	4606      	mov	r6, r0
 8009aa0:	460c      	mov	r4, r1
 8009aa2:	d507      	bpl.n	8009ab4 <__smakebuf_r+0x1c>
 8009aa4:	f104 0347 	add.w	r3, r4, #71	; 0x47
 8009aa8:	6023      	str	r3, [r4, #0]
 8009aaa:	6123      	str	r3, [r4, #16]
 8009aac:	2301      	movs	r3, #1
 8009aae:	6163      	str	r3, [r4, #20]
 8009ab0:	b002      	add	sp, #8
 8009ab2:	bd70      	pop	{r4, r5, r6, pc}
 8009ab4:	ab01      	add	r3, sp, #4
 8009ab6:	466a      	mov	r2, sp
 8009ab8:	f7ff ffc8 	bl	8009a4c <__swhatbuf_r>
 8009abc:	9900      	ldr	r1, [sp, #0]
 8009abe:	4605      	mov	r5, r0
 8009ac0:	4630      	mov	r0, r6
 8009ac2:	f7ff fa07 	bl	8008ed4 <_malloc_r>
 8009ac6:	b948      	cbnz	r0, 8009adc <__smakebuf_r+0x44>
 8009ac8:	f9b4 300c 	ldrsh.w	r3, [r4, #12]
 8009acc:	059a      	lsls	r2, r3, #22
 8009ace:	d4ef      	bmi.n	8009ab0 <__smakebuf_r+0x18>
 8009ad0:	f023 0303 	bic.w	r3, r3, #3
 8009ad4:	f043 0302 	orr.w	r3, r3, #2
 8009ad8:	81a3      	strh	r3, [r4, #12]
 8009ada:	e7e3      	b.n	8009aa4 <__smakebuf_r+0xc>
 8009adc:	4b0d      	ldr	r3, [pc, #52]	; (8009b14 <__smakebuf_r+0x7c>)
 8009ade:	62b3      	str	r3, [r6, #40]	; 0x28
 8009ae0:	89a3      	ldrh	r3, [r4, #12]
 8009ae2:	6020      	str	r0, [r4, #0]
 8009ae4:	f043 0380 	orr.w	r3, r3, #128	; 0x80
 8009ae8:	81a3      	strh	r3, [r4, #12]
 8009aea:	9b00      	ldr	r3, [sp, #0]
 8009aec:	6163      	str	r3, [r4, #20]
 8009aee:	9b01      	ldr	r3, [sp, #4]
 8009af0:	6120      	str	r0, [r4, #16]
 8009af2:	b15b      	cbz	r3, 8009b0c <__smakebuf_r+0x74>
 8009af4:	f9b4 100e 	ldrsh.w	r1, [r4, #14]
 8009af8:	4630      	mov	r0, r6
 8009afa:	f000 f93d 	bl	8009d78 <_isatty_r>
 8009afe:	b128      	cbz	r0, 8009b0c <__smakebuf_r+0x74>
 8009b00:	89a3      	ldrh	r3, [r4, #12]
 8009b02:	f023 0303 	bic.w	r3, r3, #3
 8009b06:	f043 0301 	orr.w	r3, r3, #1
 8009b0a:	81a3      	strh	r3, [r4, #12]
 8009b0c:	89a0      	ldrh	r0, [r4, #12]
 8009b0e:	4305      	orrs	r5, r0
 8009b10:	81a5      	strh	r5, [r4, #12]
 8009b12:	e7cd      	b.n	8009ab0 <__smakebuf_r+0x18>
 8009b14:	080098a5 	.word	0x080098a5

08009b18 <__ascii_mbtowc>:
 8009b18:	b082      	sub	sp, #8
 8009b1a:	b901      	cbnz	r1, 8009b1e <__ascii_mbtowc+0x6>
 8009b1c:	a901      	add	r1, sp, #4
 8009b1e:	b142      	cbz	r2, 8009b32 <__ascii_mbtowc+0x1a>
 8009b20:	b14b      	cbz	r3, 8009b36 <__ascii_mbtowc+0x1e>
 8009b22:	7813      	ldrb	r3, [r2, #0]
 8009b24:	600b      	str	r3, [r1, #0]
 8009b26:	7812      	ldrb	r2, [r2, #0]
 8009b28:	1e10      	subs	r0, r2, #0
 8009b2a:	bf18      	it	ne
 8009b2c:	2001      	movne	r0, #1
 8009b2e:	b002      	add	sp, #8
 8009b30:	4770      	bx	lr
 8009b32:	4610      	mov	r0, r2
 8009b34:	e7fb      	b.n	8009b2e <__ascii_mbtowc+0x16>
 8009b36:	f06f 0001 	mvn.w	r0, #1
 8009b3a:	e7f8      	b.n	8009b2e <__ascii_mbtowc+0x16>

08009b3c <memmove>:
 8009b3c:	4288      	cmp	r0, r1
 8009b3e:	b510      	push	{r4, lr}
 8009b40:	eb01 0402 	add.w	r4, r1, r2
 8009b44:	d902      	bls.n	8009b4c <memmove+0x10>
 8009b46:	4284      	cmp	r4, r0
 8009b48:	4623      	mov	r3, r4
 8009b4a:	d807      	bhi.n	8009b5c <memmove+0x20>
 8009b4c:	1e43      	subs	r3, r0, #1
 8009b4e:	42a1      	cmp	r1, r4
 8009b50:	d008      	beq.n	8009b64 <memmove+0x28>
 8009b52:	f811 2b01 	ldrb.w	r2, [r1], #1
 8009b56:	f803 2f01 	strb.w	r2, [r3, #1]!
 8009b5a:	e7f8      	b.n	8009b4e <memmove+0x12>
 8009b5c:	4402      	add	r2, r0
 8009b5e:	4601      	mov	r1, r0
 8009b60:	428a      	cmp	r2, r1
 8009b62:	d100      	bne.n	8009b66 <memmove+0x2a>
 8009b64:	bd10      	pop	{r4, pc}
 8009b66:	f813 4d01 	ldrb.w	r4, [r3, #-1]!
 8009b6a:	f802 4d01 	strb.w	r4, [r2, #-1]!
 8009b6e:	e7f7      	b.n	8009b60 <memmove+0x24>

08009b70 <__malloc_lock>:
 8009b70:	4801      	ldr	r0, [pc, #4]	; (8009b78 <__malloc_lock+0x8>)
 8009b72:	f7ff bf69 	b.w	8009a48 <__retarget_lock_acquire_recursive>
 8009b76:	bf00      	nop
 8009b78:	20005370 	.word	0x20005370

08009b7c <__malloc_unlock>:
 8009b7c:	4801      	ldr	r0, [pc, #4]	; (8009b84 <__malloc_unlock+0x8>)
 8009b7e:	f7ff bf64 	b.w	8009a4a <__retarget_lock_release_recursive>
 8009b82:	bf00      	nop
 8009b84:	20005370 	.word	0x20005370

08009b88 <_realloc_r>:
 8009b88:	e92d 41f0 	stmdb	sp!, {r4, r5, r6, r7, r8, lr}
 8009b8c:	4680      	mov	r8, r0
 8009b8e:	4614      	mov	r4, r2
 8009b90:	460e      	mov	r6, r1
 8009b92:	b921      	cbnz	r1, 8009b9e <_realloc_r+0x16>
 8009b94:	e8bd 41f0 	ldmia.w	sp!, {r4, r5, r6, r7, r8, lr}
 8009b98:	4611      	mov	r1, r2
 8009b9a:	f7ff b99b 	b.w	8008ed4 <_malloc_r>
 8009b9e:	b92a      	cbnz	r2, 8009bac <_realloc_r+0x24>
 8009ba0:	f7ff f92c 	bl	8008dfc <_free_r>
 8009ba4:	4625      	mov	r5, r4
 8009ba6:	4628      	mov	r0, r5
 8009ba8:	e8bd 81f0 	ldmia.w	sp!, {r4, r5, r6, r7, r8, pc}
 8009bac:	f000 f906 	bl	8009dbc <_malloc_usable_size_r>
 8009bb0:	4284      	cmp	r4, r0
 8009bb2:	4607      	mov	r7, r0
 8009bb4:	d802      	bhi.n	8009bbc <_realloc_r+0x34>
 8009bb6:	ebb4 0f50 	cmp.w	r4, r0, lsr #1
 8009bba:	d812      	bhi.n	8009be2 <_realloc_r+0x5a>
 8009bbc:	4621      	mov	r1, r4
 8009bbe:	4640      	mov	r0, r8
 8009bc0:	f7ff f988 	bl	8008ed4 <_malloc_r>
 8009bc4:	4605      	mov	r5, r0
 8009bc6:	2800      	cmp	r0, #0
 8009bc8:	d0ed      	beq.n	8009ba6 <_realloc_r+0x1e>
 8009bca:	42bc      	cmp	r4, r7
 8009bcc:	4622      	mov	r2, r4
 8009bce:	4631      	mov	r1, r6
 8009bd0:	bf28      	it	cs
 8009bd2:	463a      	movcs	r2, r7
 8009bd4:	f7fd f932 	bl	8006e3c <memcpy>
 8009bd8:	4631      	mov	r1, r6
 8009bda:	4640      	mov	r0, r8
 8009bdc:	f7ff f90e 	bl	8008dfc <_free_r>
 8009be0:	e7e1      	b.n	8009ba6 <_realloc_r+0x1e>
 8009be2:	4635      	mov	r5, r6
 8009be4:	e7df      	b.n	8009ba6 <_realloc_r+0x1e>

08009be6 <_raise_r>:
 8009be6:	291f      	cmp	r1, #31
 8009be8:	b538      	push	{r3, r4, r5, lr}
 8009bea:	4604      	mov	r4, r0
 8009bec:	460d      	mov	r5, r1
 8009bee:	d904      	bls.n	8009bfa <_raise_r+0x14>
 8009bf0:	2316      	movs	r3, #22
 8009bf2:	6003      	str	r3, [r0, #0]
 8009bf4:	f04f 30ff 	mov.w	r0, #4294967295
 8009bf8:	bd38      	pop	{r3, r4, r5, pc}
 8009bfa:	6c42      	ldr	r2, [r0, #68]	; 0x44
 8009bfc:	b112      	cbz	r2, 8009c04 <_raise_r+0x1e>
 8009bfe:	f852 3021 	ldr.w	r3, [r2, r1, lsl #2]
 8009c02:	b94b      	cbnz	r3, 8009c18 <_raise_r+0x32>
 8009c04:	4620      	mov	r0, r4
 8009c06:	f000 f831 	bl	8009c6c <_getpid_r>
 8009c0a:	462a      	mov	r2, r5
 8009c0c:	4601      	mov	r1, r0
 8009c0e:	4620      	mov	r0, r4
 8009c10:	e8bd 4038 	ldmia.w	sp!, {r3, r4, r5, lr}
 8009c14:	f000 b818 	b.w	8009c48 <_kill_r>
 8009c18:	2b01      	cmp	r3, #1
 8009c1a:	d00a      	beq.n	8009c32 <_raise_r+0x4c>
 8009c1c:	1c59      	adds	r1, r3, #1
 8009c1e:	d103      	bne.n	8009c28 <_raise_r+0x42>
 8009c20:	2316      	movs	r3, #22
 8009c22:	6003      	str	r3, [r0, #0]
 8009c24:	2001      	movs	r0, #1
 8009c26:	e7e7      	b.n	8009bf8 <_raise_r+0x12>
 8009c28:	2400      	movs	r4, #0
 8009c2a:	f842 4025 	str.w	r4, [r2, r5, lsl #2]
 8009c2e:	4628      	mov	r0, r5
 8009c30:	4798      	blx	r3
 8009c32:	2000      	movs	r0, #0
 8009c34:	e7e0      	b.n	8009bf8 <_raise_r+0x12>
	...

08009c38 <raise>:
 8009c38:	4b02      	ldr	r3, [pc, #8]	; (8009c44 <raise+0xc>)
 8009c3a:	4601      	mov	r1, r0
 8009c3c:	6818      	ldr	r0, [r3, #0]
 8009c3e:	f7ff bfd2 	b.w	8009be6 <_raise_r>
 8009c42:	bf00      	nop
 8009c44:	2000003c 	.word	0x2000003c

08009c48 <_kill_r>:
 8009c48:	b538      	push	{r3, r4, r5, lr}
 8009c4a:	4d07      	ldr	r5, [pc, #28]	; (8009c68 <_kill_r+0x20>)
 8009c4c:	2300      	movs	r3, #0
 8009c4e:	4604      	mov	r4, r0
 8009c50:	4608      	mov	r0, r1
 8009c52:	4611      	mov	r1, r2
 8009c54:	602b      	str	r3, [r5, #0]
 8009c56:	f7f9 f86b 	bl	8002d30 <_kill>
 8009c5a:	1c43      	adds	r3, r0, #1
 8009c5c:	d102      	bne.n	8009c64 <_kill_r+0x1c>
 8009c5e:	682b      	ldr	r3, [r5, #0]
 8009c60:	b103      	cbz	r3, 8009c64 <_kill_r+0x1c>
 8009c62:	6023      	str	r3, [r4, #0]
 8009c64:	bd38      	pop	{r3, r4, r5, pc}
 8009c66:	bf00      	nop
 8009c68:	20005374 	.word	0x20005374

08009c6c <_getpid_r>:
 8009c6c:	f7f9 b85e 	b.w	8002d2c <_getpid>

08009c70 <__sread>:
 8009c70:	b510      	push	{r4, lr}
 8009c72:	460c      	mov	r4, r1
 8009c74:	f9b1 100e 	ldrsh.w	r1, [r1, #14]
 8009c78:	f000 f8a8 	bl	8009dcc <_read_r>
 8009c7c:	2800      	cmp	r0, #0
 8009c7e:	bfab      	itete	ge
 8009c80:	6d63      	ldrge	r3, [r4, #84]	; 0x54
 8009c82:	89a3      	ldrhlt	r3, [r4, #12]
 8009c84:	181b      	addge	r3, r3, r0
 8009c86:	f423 5380 	biclt.w	r3, r3, #4096	; 0x1000
 8009c8a:	bfac      	ite	ge
 8009c8c:	6563      	strge	r3, [r4, #84]	; 0x54
 8009c8e:	81a3      	strhlt	r3, [r4, #12]
 8009c90:	bd10      	pop	{r4, pc}

08009c92 <__swrite>:
 8009c92:	e92d 41f0 	stmdb	sp!, {r4, r5, r6, r7, r8, lr}
 8009c96:	461f      	mov	r7, r3
 8009c98:	898b      	ldrh	r3, [r1, #12]
 8009c9a:	05db      	lsls	r3, r3, #23
 8009c9c:	4605      	mov	r5, r0
 8009c9e:	460c      	mov	r4, r1
 8009ca0:	4616      	mov	r6, r2
 8009ca2:	d505      	bpl.n	8009cb0 <__swrite+0x1e>
 8009ca4:	f9b1 100e 	ldrsh.w	r1, [r1, #14]
 8009ca8:	2302      	movs	r3, #2
 8009caa:	2200      	movs	r2, #0
 8009cac:	f000 f874 	bl	8009d98 <_lseek_r>
 8009cb0:	89a3      	ldrh	r3, [r4, #12]
 8009cb2:	f9b4 100e 	ldrsh.w	r1, [r4, #14]
 8009cb6:	f423 5380 	bic.w	r3, r3, #4096	; 0x1000
 8009cba:	81a3      	strh	r3, [r4, #12]
 8009cbc:	4632      	mov	r2, r6
 8009cbe:	463b      	mov	r3, r7
 8009cc0:	4628      	mov	r0, r5
 8009cc2:	e8bd 41f0 	ldmia.w	sp!, {r4, r5, r6, r7, r8, lr}
 8009cc6:	f000 b823 	b.w	8009d10 <_write_r>

08009cca <__sseek>:
 8009cca:	b510      	push	{r4, lr}
 8009ccc:	460c      	mov	r4, r1
 8009cce:	f9b1 100e 	ldrsh.w	r1, [r1, #14]
 8009cd2:	f000 f861 	bl	8009d98 <_lseek_r>
 8009cd6:	1c43      	adds	r3, r0, #1
 8009cd8:	89a3      	ldrh	r3, [r4, #12]
 8009cda:	bf15      	itete	ne
 8009cdc:	6560      	strne	r0, [r4, #84]	; 0x54
 8009cde:	f423 5380 	biceq.w	r3, r3, #4096	; 0x1000
 8009ce2:	f443 5380 	orrne.w	r3, r3, #4096	; 0x1000
 8009ce6:	81a3      	strheq	r3, [r4, #12]
 8009ce8:	bf18      	it	ne
 8009cea:	81a3      	strhne	r3, [r4, #12]
 8009cec:	bd10      	pop	{r4, pc}

08009cee <__sclose>:
 8009cee:	f9b1 100e 	ldrsh.w	r1, [r1, #14]
 8009cf2:	f000 b81f 	b.w	8009d34 <_close_r>

08009cf6 <__ascii_wctomb>:
 8009cf6:	b149      	cbz	r1, 8009d0c <__ascii_wctomb+0x16>
 8009cf8:	2aff      	cmp	r2, #255	; 0xff
 8009cfa:	bf85      	ittet	hi
 8009cfc:	238a      	movhi	r3, #138	; 0x8a
 8009cfe:	6003      	strhi	r3, [r0, #0]
 8009d00:	700a      	strbls	r2, [r1, #0]
 8009d02:	f04f 30ff 	movhi.w	r0, #4294967295
 8009d06:	bf98      	it	ls
 8009d08:	2001      	movls	r0, #1
 8009d0a:	4770      	bx	lr
 8009d0c:	4608      	mov	r0, r1
 8009d0e:	4770      	bx	lr

08009d10 <_write_r>:
 8009d10:	b538      	push	{r3, r4, r5, lr}
 8009d12:	4d07      	ldr	r5, [pc, #28]	; (8009d30 <_write_r+0x20>)
 8009d14:	4604      	mov	r4, r0
 8009d16:	4608      	mov	r0, r1
 8009d18:	4611      	mov	r1, r2
 8009d1a:	2200      	movs	r2, #0
 8009d1c:	602a      	str	r2, [r5, #0]
 8009d1e:	461a      	mov	r2, r3
 8009d20:	f7f9 f822 	bl	8002d68 <_write>
 8009d24:	1c43      	adds	r3, r0, #1
 8009d26:	d102      	bne.n	8009d2e <_write_r+0x1e>
 8009d28:	682b      	ldr	r3, [r5, #0]
 8009d2a:	b103      	cbz	r3, 8009d2e <_write_r+0x1e>
 8009d2c:	6023      	str	r3, [r4, #0]
 8009d2e:	bd38      	pop	{r3, r4, r5, pc}
 8009d30:	20005374 	.word	0x20005374

08009d34 <_close_r>:
 8009d34:	b538      	push	{r3, r4, r5, lr}
 8009d36:	4d06      	ldr	r5, [pc, #24]	; (8009d50 <_close_r+0x1c>)
 8009d38:	2300      	movs	r3, #0
 8009d3a:	4604      	mov	r4, r0
 8009d3c:	4608      	mov	r0, r1
 8009d3e:	602b      	str	r3, [r5, #0]
 8009d40:	f7f9 f820 	bl	8002d84 <_close>
 8009d44:	1c43      	adds	r3, r0, #1
 8009d46:	d102      	bne.n	8009d4e <_close_r+0x1a>
 8009d48:	682b      	ldr	r3, [r5, #0]
 8009d4a:	b103      	cbz	r3, 8009d4e <_close_r+0x1a>
 8009d4c:	6023      	str	r3, [r4, #0]
 8009d4e:	bd38      	pop	{r3, r4, r5, pc}
 8009d50:	20005374 	.word	0x20005374

08009d54 <_fstat_r>:
 8009d54:	b538      	push	{r3, r4, r5, lr}
 8009d56:	4d07      	ldr	r5, [pc, #28]	; (8009d74 <_fstat_r+0x20>)
 8009d58:	2300      	movs	r3, #0
 8009d5a:	4604      	mov	r4, r0
 8009d5c:	4608      	mov	r0, r1
 8009d5e:	4611      	mov	r1, r2
 8009d60:	602b      	str	r3, [r5, #0]
 8009d62:	f7f9 f812 	bl	8002d8a <_fstat>
 8009d66:	1c43      	adds	r3, r0, #1
 8009d68:	d102      	bne.n	8009d70 <_fstat_r+0x1c>
 8009d6a:	682b      	ldr	r3, [r5, #0]
 8009d6c:	b103      	cbz	r3, 8009d70 <_fstat_r+0x1c>
 8009d6e:	6023      	str	r3, [r4, #0]
 8009d70:	bd38      	pop	{r3, r4, r5, pc}
 8009d72:	bf00      	nop
 8009d74:	20005374 	.word	0x20005374

08009d78 <_isatty_r>:
 8009d78:	b538      	push	{r3, r4, r5, lr}
 8009d7a:	4d06      	ldr	r5, [pc, #24]	; (8009d94 <_isatty_r+0x1c>)
 8009d7c:	2300      	movs	r3, #0
 8009d7e:	4604      	mov	r4, r0
 8009d80:	4608      	mov	r0, r1
 8009d82:	602b      	str	r3, [r5, #0]
 8009d84:	f7f9 f806 	bl	8002d94 <_isatty>
 8009d88:	1c43      	adds	r3, r0, #1
 8009d8a:	d102      	bne.n	8009d92 <_isatty_r+0x1a>
 8009d8c:	682b      	ldr	r3, [r5, #0]
 8009d8e:	b103      	cbz	r3, 8009d92 <_isatty_r+0x1a>
 8009d90:	6023      	str	r3, [r4, #0]
 8009d92:	bd38      	pop	{r3, r4, r5, pc}
 8009d94:	20005374 	.word	0x20005374

08009d98 <_lseek_r>:
 8009d98:	b538      	push	{r3, r4, r5, lr}
 8009d9a:	4d07      	ldr	r5, [pc, #28]	; (8009db8 <_lseek_r+0x20>)
 8009d9c:	4604      	mov	r4, r0
 8009d9e:	4608      	mov	r0, r1
 8009da0:	4611      	mov	r1, r2
 8009da2:	2200      	movs	r2, #0
 8009da4:	602a      	str	r2, [r5, #0]
 8009da6:	461a      	mov	r2, r3
 8009da8:	f7f8 fff6 	bl	8002d98 <_lseek>
 8009dac:	1c43      	adds	r3, r0, #1
 8009dae:	d102      	bne.n	8009db6 <_lseek_r+0x1e>
 8009db0:	682b      	ldr	r3, [r5, #0]
 8009db2:	b103      	cbz	r3, 8009db6 <_lseek_r+0x1e>
 8009db4:	6023      	str	r3, [r4, #0]
 8009db6:	bd38      	pop	{r3, r4, r5, pc}
 8009db8:	20005374 	.word	0x20005374

08009dbc <_malloc_usable_size_r>:
 8009dbc:	f851 3c04 	ldr.w	r3, [r1, #-4]
 8009dc0:	1f18      	subs	r0, r3, #4
 8009dc2:	2b00      	cmp	r3, #0
 8009dc4:	bfbc      	itt	lt
 8009dc6:	580b      	ldrlt	r3, [r1, r0]
 8009dc8:	18c0      	addlt	r0, r0, r3
 8009dca:	4770      	bx	lr

08009dcc <_read_r>:
 8009dcc:	b538      	push	{r3, r4, r5, lr}
 8009dce:	4d07      	ldr	r5, [pc, #28]	; (8009dec <_read_r+0x20>)
 8009dd0:	4604      	mov	r4, r0
 8009dd2:	4608      	mov	r0, r1
 8009dd4:	4611      	mov	r1, r2
 8009dd6:	2200      	movs	r2, #0
 8009dd8:	602a      	str	r2, [r5, #0]
 8009dda:	461a      	mov	r2, r3
 8009ddc:	f7f8 ffb6 	bl	8002d4c <_read>
 8009de0:	1c43      	adds	r3, r0, #1
 8009de2:	d102      	bne.n	8009dea <_read_r+0x1e>
 8009de4:	682b      	ldr	r3, [r5, #0]
 8009de6:	b103      	cbz	r3, 8009dea <_read_r+0x1e>
 8009de8:	6023      	str	r3, [r4, #0]
 8009dea:	bd38      	pop	{r3, r4, r5, pc}
 8009dec:	20005374 	.word	0x20005374

08009df0 <_init>:
 8009df0:	b5f8      	push	{r3, r4, r5, r6, r7, lr}
 8009df2:	bf00      	nop
 8009df4:	bcf8      	pop	{r3, r4, r5, r6, r7}
 8009df6:	bc08      	pop	{r3}
 8009df8:	469e      	mov	lr, r3
 8009dfa:	4770      	bx	lr

08009dfc <_fini>:
 8009dfc:	b5f8      	push	{r3, r4, r5, r6, r7, lr}
 8009dfe:	bf00      	nop
 8009e00:	bcf8      	pop	{r3, r4, r5, r6, r7}
 8009e02:	bc08      	pop	{r3}
 8009e04:	469e      	mov	lr, r3
 8009e06:	4770      	bx	lr
